TN:
SF:/Library/Developer/CommandLineTools/usr/include/c++/v1/__locale
FN:232,_ZNSt3__1L9use_facetINS_5ctypeIcEEEERKT_RKNS_6localeE
FN:647,_ZNKSt3__15ctypeIcE5widenEc
FNDA:148,_ZNSt3__1L9use_facetINS_5ctypeIcEEEERKT_RKNS_6localeE
FNDA:148,_ZNKSt3__15ctypeIcE5widenEc
FNF:2
FNH:2
DA:232,148
DA:234,148
DA:647,148
DA:649,148
LF:4
LH:4
end_of_record
SF:/Library/Developer/CommandLineTools/usr/include/c++/v1/__string
FN:218,_ZNSt3__111char_traitsIcE6lengthEPKc
FN:237,_ZNSt3__111char_traitsIcE11eq_int_typeEii
FN:239,_ZNSt3__111char_traitsIcE3eofEv
FNDA:2792,_ZNSt3__111char_traitsIcE6lengthEPKc
FNDA:2056,_ZNSt3__111char_traitsIcE11eq_int_typeEii
FNDA:2760,_ZNSt3__111char_traitsIcE3eofEv
FNF:3
FNH:3
DA:218,2792
DA:237,2056
DA:238,2056
DA:239,2760
DA:240,2760
LF:5
LH:5
end_of_record
SF:/Library/Developer/CommandLineTools/usr/include/c++/v1/ios
FN:349,_ZNKSt3__18ios_base5rdbufEv
FN:459,_ZNKSt3__18ios_base5flagsEv
FN:521,_ZNKSt3__18ios_base5widthEv
FN:528,_ZNSt3__18ios_base5widthEl
FN:546,_ZNSt3__18ios_base8setstateEj
FN:633,_ZNSt3__19basic_iosIcNS_11char_traitsIcEEE8setstateEj
FN:738,_ZNKSt3__19basic_iosIcNS_11char_traitsIcEEE5rdbufEv
FN:776,_ZNKSt3__19basic_iosIcNS_11char_traitsIcEEE5widenEc
FN:784,_ZNKSt3__19basic_iosIcNS_11char_traitsIcEEE4fillEv
FNDA:1320,_ZNKSt3__18ios_base5rdbufEv
FNDA:1320,_ZNKSt3__18ios_base5flagsEv
FNDA:1320,_ZNKSt3__18ios_base5widthEv
FNDA:1320,_ZNSt3__18ios_base5widthEl
FNDA:0,_ZNSt3__18ios_base8setstateEj
FNDA:0,_ZNSt3__19basic_iosIcNS_11char_traitsIcEEE8setstateEj
FNDA:1320,_ZNKSt3__19basic_iosIcNS_11char_traitsIcEEE5rdbufEv
FNDA:148,_ZNKSt3__19basic_iosIcNS_11char_traitsIcEEE5widenEc
FNDA:1320,_ZNKSt3__19basic_iosIcNS_11char_traitsIcEEE4fillEv
FNF:9
FNH:7
DA:349,1320
DA:459,1320
DA:461,1320
DA:521,1320
DA:523,1320
DA:528,1320
DA:530,1320
DA:531,1320
DA:532,1320
DA:546,0
DA:548,0
DA:549,0
DA:633,0
DA:738,1320
DA:740,1320
DA:776,148
DA:778,148
DA:779,0
DA:784,1320
DA:786,1320
DA:787,144
DA:788,1320
LF:22
LH:17
end_of_record
SF:/Library/Developer/CommandLineTools/usr/include/c++/v1/iterator
FN:1067,_ZNSt3__119ostreambuf_iteratorIcNS_11char_traitsIcEEEC1ERNS_13basic_ostreamIcS2_EE
FN:1067,_ZNSt3__119ostreambuf_iteratorIcNS_11char_traitsIcEEEC2ERNS_13basic_ostreamIcS2_EE
FN:1080,_ZNKSt3__119ostreambuf_iteratorIcNS_11char_traitsIcEEE6failedEv
FNDA:1320,_ZNSt3__119ostreambuf_iteratorIcNS_11char_traitsIcEEEC1ERNS_13basic_ostreamIcS2_EE
FNDA:1320,_ZNSt3__119ostreambuf_iteratorIcNS_11char_traitsIcEEEC2ERNS_13basic_ostreamIcS2_EE
FNDA:1320,_ZNKSt3__119ostreambuf_iteratorIcNS_11char_traitsIcEEE6failedEv
FNF:3
FNH:3
DA:1067,2640
DA:1068,2640
DA:1080,1320
LF:3
LH:3
end_of_record
SF:/Library/Developer/CommandLineTools/usr/include/c++/v1/locale
FN:1383,_ZNSt3__116__pad_and_outputIcNS_11char_traitsIcEEEENS_19ostreambuf_iteratorIT_T0_EES6_PKS4_S8_S8_RNS_8ios_baseES4_
FNDA:1320,_ZNSt3__116__pad_and_outputIcNS_11char_traitsIcEEEENS_19ostreambuf_iteratorIT_T0_EES6_PKS4_S8_S8_RNS_8ios_baseES4_
FNF:1
FNH:1
DA:1383,1320
DA:1387,1320
DA:1388,0
DA:1389,1320
DA:1390,1320
DA:1391,1320
DA:1392,0
DA:1394,1320
DA:1395,1320
DA:1396,1320
DA:1398,0
DA:1400,0
DA:1401,0
DA:1403,0
DA:1404,1320
DA:1406,0
DA:1407,0
DA:1409,0
DA:1410,0
DA:1412,0
DA:1413,1320
DA:1414,1320
DA:1416,1320
DA:1418,0
DA:1419,0
DA:1421,1320
DA:1422,1320
DA:1423,1320
DA:1424,1320
LF:29
LH:16
end_of_record
SF:/Library/Developer/CommandLineTools/usr/include/c++/v1/memory
FN:988,_ZNSt3__114pointer_traitsIPKcE10pointer_toERS1_
FN:1106,_ZNSt3__1L16__to_raw_pointerIKcEEPT_S3_
FN:1798,_ZNSt3__19allocatorIcEC2Ev
FN:2140,_ZNSt3__122__compressed_pair_elemINS_12basic_stringIcNS_11char_traitsIcEENS_9allocatorIcEEE5__repELi0ELb0EEC2Ev
FN:2165,_ZNKSt3__122__compressed_pair_elemINS_12basic_stringIcNS_11char_traitsIcEENS_9allocatorIcEEE5__repELi0ELb0EE5__getEv
FN:2179,_ZNSt3__122__compressed_pair_elemINS_9allocatorIcEELi1ELb1EEC2Ev
FN:2234,_ZNSt3__117__compressed_pairINS_12basic_stringIcNS_11char_traitsIcEENS_9allocatorIcEEE5__repES5_EC2ILb1EvEEv
FN:2234,_ZNSt3__117__compressed_pairINS_12basic_stringIcNS_11char_traitsIcEENS_9allocatorIcEEE5__repES5_EC1ILb1EvEEv
FN:2284,_ZNKSt3__117__compressed_pairINS_12basic_stringIcNS_11char_traitsIcEENS_9allocatorIcEEE5__repES5_E5firstEv
FNDA:0,_ZNSt3__114pointer_traitsIPKcE10pointer_toERS1_
FNDA:0,_ZNSt3__1L16__to_raw_pointerIKcEEPT_S3_
FNDA:0,_ZNSt3__19allocatorIcEC2Ev
FNDA:0,_ZNSt3__122__compressed_pair_elemINS_12basic_stringIcNS_11char_traitsIcEENS_9allocatorIcEEE5__repELi0ELb0EEC2Ev
FNDA:0,_ZNKSt3__122__compressed_pair_elemINS_12basic_stringIcNS_11char_traitsIcEENS_9allocatorIcEEE5__repELi0ELb0EE5__getEv
FNDA:0,_ZNSt3__122__compressed_pair_elemINS_9allocatorIcEELi1ELb1EEC2Ev
FNDA:0,_ZNSt3__117__compressed_pairINS_12basic_stringIcNS_11char_traitsIcEENS_9allocatorIcEEE5__repES5_EC1ILb1EvEEv
FNDA:0,_ZNSt3__117__compressed_pairINS_12basic_stringIcNS_11char_traitsIcEENS_9allocatorIcEEE5__repES5_EC2ILb1EvEEv
FNDA:0,_ZNKSt3__117__compressed_pairINS_12basic_stringIcNS_11char_traitsIcEENS_9allocatorIcEEE5__repES5_E5firstEv
FNF:9
FNH:0
DA:988,0
DA:990,0
DA:1106,0
DA:1108,0
DA:1798,0
DA:2140,0
DA:2165,0
DA:2179,0
DA:2234,0
DA:2284,0
DA:2285,0
LF:11
LH:0
end_of_record
SF:/Library/Developer/CommandLineTools/usr/include/c++/v1/ostream
FN:195,_ZNSt3__113basic_ostreamIcNS_11char_traitsIcEEElsEPFRS3_S4_E
FN:255,_ZNKSt3__113basic_ostreamIcNS_11char_traitsIcEEE6sentrycvbEv
FN:715,_ZNSt3__124__put_character_sequenceIcNS_11char_traitsIcEEEERNS_13basic_ostreamIT_T0_EES7_PKS4_m
FN:863,_ZNSt3__1lsINS_11char_traitsIcEEEERNS_13basic_ostreamIcT_EES6_PKc
FN:1000,_ZNSt3__1L4endlIcNS_11char_traitsIcEEEERNS_13basic_ostreamIT_T0_EES7_
FNDA:4,_ZNSt3__113basic_ostreamIcNS_11char_traitsIcEEElsEPFRS3_S4_E
FNDA:1320,_ZNKSt3__113basic_ostreamIcNS_11char_traitsIcEEE6sentrycvbEv
FNDA:1320,_ZNSt3__124__put_character_sequenceIcNS_11char_traitsIcEEEERNS_13basic_ostreamIT_T0_EES7_PKS4_m
FNDA:144,_ZNSt3__1lsINS_11char_traitsIcEEEERNS_13basic_ostreamIcT_EES6_PKc
FNDA:4,_ZNSt3__1L4endlIcNS_11char_traitsIcEEEERNS_13basic_ostreamIT_T0_EES7_
FNF:5
FNH:5
DA:195,4
DA:196,4
DA:255,1320
DA:715,1320
DA:722,1320
DA:723,1320
DA:726,2640
DA:727,1320
DA:728,1320
DA:729,0
DA:730,1320
DA:731,1320
DA:732,1320
DA:733,2640
DA:734,0
DA:735,1320
DA:737,1320
DA:740,0
DA:741,0
DA:743,1320
DA:744,0
DA:863,144
DA:865,144
DA:1000,4
DA:1002,4
DA:1003,4
DA:1004,4
LF:27
LH:22
end_of_record
SF:/Library/Developer/CommandLineTools/usr/include/c++/v1/streambuf
FN:229,_ZNSt3__115basic_streambufIcNS_11char_traitsIcEEE5sputnEPKcl
FNDA:1320,_ZNSt3__115basic_streambufIcNS_11char_traitsIcEEE5sputnEPKcl
FNF:1
FNH:1
DA:229,1320
DA:230,1320
LF:2
LH:2
end_of_record
SF:/Library/Developer/CommandLineTools/usr/include/c++/v1/string
FN:1243,_ZNKSt3__112basic_stringIcNS_11char_traitsIcEENS_9allocatorIcEEE4dataEv
FN:1420,_ZNKSt3__112basic_stringIcNS_11char_traitsIcEENS_9allocatorIcEEE9__is_longEv
FN:1502,_ZNKSt3__112basic_stringIcNS_11char_traitsIcEENS_9allocatorIcEEE18__get_long_pointerEv
FN:1508,_ZNKSt3__112basic_stringIcNS_11char_traitsIcEENS_9allocatorIcEEE19__get_short_pointerEv
FN:1514,_ZNKSt3__112basic_stringIcNS_11char_traitsIcEENS_9allocatorIcEEE13__get_pointerEv
FN:1926,_ZNSt3__112basic_stringIcNS_11char_traitsIcEENS_9allocatorIcEEEC1Emc
FN:1926,_ZNSt3__112basic_stringIcNS_11char_traitsIcEENS_9allocatorIcEEEC2Emc
FNDA:0,_ZNKSt3__112basic_stringIcNS_11char_traitsIcEENS_9allocatorIcEEE4dataEv
FNDA:0,_ZNKSt3__112basic_stringIcNS_11char_traitsIcEENS_9allocatorIcEEE9__is_longEv
FNDA:0,_ZNKSt3__112basic_stringIcNS_11char_traitsIcEENS_9allocatorIcEEE18__get_long_pointerEv
FNDA:0,_ZNKSt3__112basic_stringIcNS_11char_traitsIcEENS_9allocatorIcEEE19__get_short_pointerEv
FNDA:0,_ZNKSt3__112basic_stringIcNS_11char_traitsIcEENS_9allocatorIcEEE13__get_pointerEv
FNDA:0,_ZNSt3__112basic_stringIcNS_11char_traitsIcEENS_9allocatorIcEEEC1Emc
FNDA:0,_ZNSt3__112basic_stringIcNS_11char_traitsIcEENS_9allocatorIcEEEC2Emc
FNF:7
FNH:0
DA:835,0
DA:1243,0
DA:1420,0
DA:1421,0
DA:1502,0
DA:1503,0
DA:1508,0
DA:1509,0
DA:1514,0
DA:1515,0
DA:1926,0
DA:1927,0
DA:1928,0
DA:1932,0
LF:14
LH:0
end_of_record
SF:/Library/Developer/CommandLineTools/usr/include/c++/v1/type_traits
FN:454,_ZNSt3__1L9addressofIKcEEPT_RS2_
FNDA:0,_ZNSt3__1L9addressofIKcEEPT_RS2_
FNF:1
FNH:0
DA:454,0
DA:456,0
LF:2
LH:0
end_of_record
SF:/Users/usuario/Desktop/LabAlgo1/tp2/reunionesRemotas/lib/gtest.h
FN:21188,_Z13RUN_ALL_TESTSv
FNDA:4,_Z13RUN_ALL_TESTSv
FNF:1
FNH:1
DA:21188,4
DA:21189,4
LF:2
LH:2
end_of_record
SF:/Users/usuario/Desktop/LabAlgo1/tp2/reunionesRemotas/main.cpp
FN:7,main
FNDA:4,main
FNF:1
FNH:1
DA:7,4
DA:8,4
DA:9,4
DA:10,4
LF:4
LH:4
end_of_record
TN:
SF:/Library/Developer/CommandLineTools/usr/include/c++/v1/__string
FN:218,_ZNSt3__111char_traitsIcE6lengthEPKc
FNDA:0,_ZNSt3__111char_traitsIcE6lengthEPKc
FNF:1
FNH:0
DA:218,0
LF:1
LH:0
end_of_record
SF:/Library/Developer/CommandLineTools/usr/include/c++/v1/algorithm
FN:716,_ZNKSt3__16__lessImmEclERKmS3_
FN:2454,_ZNSt3__1L3minImNS_6__lessImmEEEERKT_S5_S5_T0_
FN:2462,_ZNSt3__1L3minImEERKT_S3_S3_
FNDA:0,_ZNKSt3__16__lessImmEclERKmS3_
FNDA:0,_ZNSt3__1L3minImNS_6__lessImmEEEERKT_S5_S5_T0_
FNDA:0,_ZNSt3__1L3minImEERKT_S3_S3_
FNF:3
FNH:0
DA:716,0
DA:2454,0
DA:2456,0
DA:2462,0
DA:2464,0
LF:5
LH:0
end_of_record
SF:/Library/Developer/CommandLineTools/usr/include/c++/v1/initializer_list
FN:85,_ZNKSt16initializer_listIiE4sizeEv
FN:85,_ZNKSt16initializer_listINSt3__14pairINS0_6vectorIiNS0_9allocatorIiEEEEiEEE4sizeEv
FN:89,_ZNKSt16initializer_listIiE5beginEv
FN:89,_ZNKSt16initializer_listINSt3__14pairINS0_6vectorIiNS0_9allocatorIiEEEEiEEE5beginEv
FN:93,_ZNKSt16initializer_listIiE3endEv
FN:93,_ZNKSt16initializer_listINSt3__14pairINS0_6vectorIiNS0_9allocatorIiEEEEiEEE3endEv
FNDA:384,_ZNKSt16initializer_listIiE4sizeEv
FNDA:96,_ZNKSt16initializer_listINSt3__14pairINS0_6vectorIiNS0_9allocatorIiEEEEiEEE4sizeEv
FNDA:128,_ZNKSt16initializer_listIiE5beginEv
FNDA:32,_ZNKSt16initializer_listINSt3__14pairINS0_6vectorIiNS0_9allocatorIiEEEEiEEE5beginEv
FNDA:128,_ZNKSt16initializer_listIiE3endEv
FNDA:32,_ZNKSt16initializer_listINSt3__14pairINS0_6vectorIiNS0_9allocatorIiEEEEiEEE3endEv
FNF:6
FNH:6
DA:85,480
DA:89,160
DA:93,160
LF:3
LH:3
end_of_record
SF:/Library/Developer/CommandLineTools/usr/include/c++/v1/limits
FN:215,_ZNSt3__123__libcpp_numeric_limitsIlLb1EE3maxEv
FN:452,_ZNSt3__114numeric_limitsIlE3maxEv
FNDA:0,_ZNSt3__123__libcpp_numeric_limitsIlLb1EE3maxEv
FNDA:0,_ZNSt3__114numeric_limitsIlE3maxEv
FNF:2
FNH:0
DA:215,0
DA:452,0
LF:2
LH:0
end_of_record
SF:/Library/Developer/CommandLineTools/usr/include/c++/v1/memory
FN:1106,_ZNSt3__1L16__to_raw_pointerIiEEPT_S2_
FN:1106,_ZNSt3__1L16__to_raw_pointerINS_4pairINS_6vectorIiNS_9allocatorIiEEEEiEEEEPT_S8_
FN:1546,_ZNSt3__116allocator_traitsINS_9allocatorIiEEE8allocateERS2_m
FN:1546,_ZNSt3__116allocator_traitsINS_9allocatorINS_4pairINS_6vectorIiNS1_IiEEEEiEEEEE8allocateERS7_m
FN:1554,_ZNSt3__116allocator_traitsINS_9allocatorIiEEE10deallocateERS2_Pim
FN:1554,_ZNSt3__116allocator_traitsINS_9allocatorINS_4pairINS_6vectorIiNS1_IiEEEEiEEEEE10deallocateERS7_PS6_m
FN:1560,_ZNSt3__116allocator_traitsINS_9allocatorINS_4pairINS_6vectorIiNS1_IiEEEEiEEEEE9constructIS6_JRKS6_EEEvRS7_PT_DpOT0_
FN:1560,_ZNSt3__116allocator_traitsINS_9allocatorINS_4pairINS_6vectorIiNS1_IiEEEEiEEEEE9constructIS6_JRS6_EEEvRS7_PT_DpOT0_
FN:1595,_ZNSt3__116allocator_traitsINS_9allocatorINS_4pairINS_6vectorIiNS1_IiEEEEiEEEEE7destroyIS6_EEvRS7_PT_
FN:1595,_ZNSt3__116allocator_traitsINS_9allocatorIiEEE7destroyIiEEvRS2_PT_
FN:1599,_ZNSt3__116allocator_traitsINS_9allocatorINS_4pairINS_6vectorIiNS1_IiEEEEiEEEEE8max_sizeERKS7_
FN:1599,_ZNSt3__116allocator_traitsINS_9allocatorIiEEE8max_sizeERKS2_
FN:1604,_ZNSt3__116allocator_traitsINS_9allocatorIiEEE37select_on_container_copy_constructionERKS2_
FN:1604,_ZNSt3__116allocator_traitsINS_9allocatorINS_4pairINS_6vectorIiNS1_IiEEEEiEEEEE37select_on_container_copy_constructionERKS7_
FN:1643,_ZNSt3__116allocator_traitsINS_9allocatorINS_4pairINS_6vectorIiNS1_IiEEEEiEEEEE25__construct_range_forwardIPS6_SA_EEvRS7_T_SC_RT0_
FN:1643,_ZNSt3__116allocator_traitsINS_9allocatorINS_4pairINS_6vectorIiNS1_IiEEEEiEEEEE25__construct_range_forwardIPKS6_PS6_EEvRS7_T_SE_RT0_
FN:1662,_ZNSt3__116allocator_traitsINS_9allocatorIiEEE25__construct_range_forwardIKiiiiEENS_9enable_ifIXaaaasr31is_trivially_move_constructibleIT0_EE5valuesr7is_sameIT1_T2_EE5valueooL_ZNS_17integral_constantIbLb1EE5valueEEntsr15__has_constructIS2_PS7_RT_EE5valueEvE4typeERS2_PSD_SI_RSC_
FN:1662,_ZNSt3__116allocator_traitsINS_9allocatorIiEEE25__construct_range_forwardIiiiiEENS_9enable_ifIXaaaasr31is_trivially_move_constructibleIT0_EE5valuesr7is_sameIT1_T2_EE5valueooL_ZNS_17integral_constantIbLb1EE5valueEEntsr15__has_constructIS2_PS6_RT_EE5valueEvE4typeERS2_PSC_SH_RSB_
FN:1717,_ZNSt3__116allocator_traitsINS_9allocatorINS_4pairINS_6vectorIiNS1_IiEEEEiEEEEE11__constructIS6_JRKS6_EEEvNS_17integral_constantIbLb1EEERS7_PT_DpOT0_
FN:1717,_ZNSt3__116allocator_traitsINS_9allocatorINS_4pairINS_6vectorIiNS1_IiEEEEiEEEEE11__constructIS6_JRS6_EEEvNS_17integral_constantIbLb1EEERS7_PT_DpOT0_
FN:1742,_ZNSt3__116allocator_traitsINS_9allocatorIiEEE9__destroyIiEEvNS_17integral_constantIbLb1EEERS2_PT_
FN:1742,_ZNSt3__116allocator_traitsINS_9allocatorINS_4pairINS_6vectorIiNS1_IiEEEEiEEEEE9__destroyIS6_EEvNS_17integral_constantIbLb1EEERS7_PT_
FN:1752,_ZNSt3__116allocator_traitsINS_9allocatorINS_4pairINS_6vectorIiNS1_IiEEEEiEEEEE10__max_sizeENS_17integral_constantIbLb1EEERKS7_
FN:1752,_ZNSt3__116allocator_traitsINS_9allocatorIiEEE10__max_sizeENS_17integral_constantIbLb1EEERKS2_
FN:1764,_ZNSt3__116allocator_traitsINS_9allocatorINS_4pairINS_6vectorIiNS1_IiEEEEiEEEEE39__select_on_container_copy_constructionENS_17integral_constantIbLb0EEERKS7_
FN:1764,_ZNSt3__116allocator_traitsINS_9allocatorIiEEE39__select_on_container_copy_constructionENS_17integral_constantIbLb0EEERKS2_
FN:1798,_ZNSt3__19allocatorINS_4pairINS_6vectorIiNS0_IiEEEEiEEEC2Ev
FN:1798,_ZNSt3__19allocatorIcEC2Ev
FN:1798,_ZNSt3__19allocatorIiEC2Ev
FN:1809,_ZNSt3__19allocatorINS_4pairINS_6vectorIiNS0_IiEEEEiEEE8allocateEmPKv
FN:1809,_ZNSt3__19allocatorIiE8allocateEmPKv
FN:1816,_ZNSt3__19allocatorINS_4pairINS_6vectorIiNS0_IiEEEEiEEE10deallocateEPS5_m
FN:1816,_ZNSt3__19allocatorIiE10deallocateEPim
FN:1818,_ZNKSt3__19allocatorIiE8max_sizeEv
FN:1818,_ZNKSt3__19allocatorINS_4pairINS_6vectorIiNS0_IiEEEEiEEE8max_sizeEv
FN:1824,_ZNSt3__19allocatorINS_4pairINS_6vectorIiNS0_IiEEEEiEEE9constructIS5_JRS5_EEEvPT_DpOT0_
FN:1824,_ZNSt3__19allocatorINS_4pairINS_6vectorIiNS0_IiEEEEiEEE9constructIS5_JRKS5_EEEvPT_DpOT0_
FN:1881,_ZNSt3__19allocatorIiE7destroyEPi
FN:1881,_ZNSt3__19allocatorINS_4pairINS_6vectorIiNS0_IiEEEEiEEE7destroyEPS5_
FN:2140,_ZNSt3__122__compressed_pair_elemINS_12basic_stringIcNS_11char_traitsIcEENS_9allocatorIcEEE5__repELi0ELb0EEC2Ev
FN:2147,_ZNSt3__122__compressed_pair_elemIPiLi0ELb0EEC2IDnvEEOT_
FN:2147,_ZNSt3__122__compressed_pair_elemIPNS_4pairINS_6vectorIiNS_9allocatorIiEEEEiEELi0ELb0EEC2IDnvEEOT_
FN:2163,_ZNSt3__122__compressed_pair_elemIPiLi0ELb0EE5__getEv
FN:2163,_ZNSt3__122__compressed_pair_elemIPNS_4pairINS_6vectorIiNS_9allocatorIiEEEEiEELi0ELb0EE5__getEv
FN:2165,_ZNKSt3__122__compressed_pair_elemIPiLi0ELb0EE5__getEv
FN:2165,_ZNKSt3__122__compressed_pair_elemIPNS_4pairINS_6vectorIiNS_9allocatorIiEEEEiEELi0ELb0EE5__getEv
FN:2179,_ZNSt3__122__compressed_pair_elemINS_9allocatorIcEELi1ELb1EEC2Ev
FN:2179,_ZNSt3__122__compressed_pair_elemINS_9allocatorIiEELi1ELb1EEC2Ev
FN:2179,_ZNSt3__122__compressed_pair_elemINS_9allocatorINS_4pairINS_6vectorIiNS1_IiEEEEiEEEELi1ELb1EEC2Ev
FN:2186,_ZNSt3__122__compressed_pair_elemINS_9allocatorINS_4pairINS_6vectorIiNS1_IiEEEEiEEEELi1ELb1EEC2IS7_vEEOT_
FN:2186,_ZNSt3__122__compressed_pair_elemINS_9allocatorIiEELi1ELb1EEC2IS2_vEEOT_
FN:2202,_ZNSt3__122__compressed_pair_elemINS_9allocatorINS_4pairINS_6vectorIiNS1_IiEEEEiEEEELi1ELb1EE5__getEv
FN:2202,_ZNSt3__122__compressed_pair_elemINS_9allocatorIiEELi1ELb1EE5__getEv
FN:2204,_ZNKSt3__122__compressed_pair_elemINS_9allocatorINS_4pairINS_6vectorIiNS1_IiEEEEiEEEELi1ELb1EE5__getEv
FN:2204,_ZNKSt3__122__compressed_pair_elemINS_9allocatorIiEELi1ELb1EE5__getEv
FN:2234,_ZNSt3__117__compressed_pairINS_12basic_stringIcNS_11char_traitsIcEENS_9allocatorIcEEE5__repES5_EC1ILb1EvEEv
FN:2234,_ZNSt3__117__compressed_pairINS_12basic_stringIcNS_11char_traitsIcEENS_9allocatorIcEEE5__repES5_EC2ILb1EvEEv
FN:2240,_ZNSt3__117__compressed_pairIPNS_4pairINS_6vectorIiNS_9allocatorIiEEEEiEENS3_IS6_EEEC2IDnLb1EEEOT_
FN:2240,_ZNSt3__117__compressed_pairIPiNS_9allocatorIiEEEC1IDnLb1EEEOT_
FN:2240,_ZNSt3__117__compressed_pairIPNS_4pairINS_6vectorIiNS_9allocatorIiEEEEiEENS3_IS6_EEEC1IDnLb1EEEOT_
FN:2240,_ZNSt3__117__compressed_pairIPiNS_9allocatorIiEEEC2IDnLb1EEEOT_
FN:2250,_ZNSt3__117__compressed_pairIPiNS_9allocatorIiEEEC1IDnS3_EEOT_OT0_
FN:2250,_ZNSt3__117__compressed_pairIPNS_4pairINS_6vectorIiNS_9allocatorIiEEEEiEENS3_IS6_EEEC2IDnS8_EEOT_OT0_
FN:2250,_ZNSt3__117__compressed_pairIPiNS_9allocatorIiEEEC2IDnS3_EEOT_OT0_
FN:2250,_ZNSt3__117__compressed_pairIPNS_4pairINS_6vectorIiNS_9allocatorIiEEEEiEENS3_IS6_EEEC1IDnS8_EEOT_OT0_
FN:2279,_ZNSt3__117__compressed_pairIPiNS_9allocatorIiEEE5firstEv
FN:2279,_ZNSt3__117__compressed_pairIPNS_4pairINS_6vectorIiNS_9allocatorIiEEEEiEENS3_IS6_EEE5firstEv
FN:2284,_ZNKSt3__117__compressed_pairIPNS_4pairINS_6vectorIiNS_9allocatorIiEEEEiEENS3_IS6_EEE5firstEv
FN:2284,_ZNKSt3__117__compressed_pairIPiNS_9allocatorIiEEE5firstEv
FN:2289,_ZNSt3__117__compressed_pairIPNS_4pairINS_6vectorIiNS_9allocatorIiEEEEiEENS3_IS6_EEE6secondEv
FN:2289,_ZNSt3__117__compressed_pairIPiNS_9allocatorIiEEE6secondEv
FN:2294,_ZNKSt3__117__compressed_pairIPiNS_9allocatorIiEEE6secondEv
FN:2294,_ZNKSt3__117__compressed_pairIPNS_4pairINS_6vectorIiNS_9allocatorIiEEEEiEENS3_IS6_EEE6secondEv
FNDA:640,_ZNSt3__1L16__to_raw_pointerIiEEPT_S2_
FNDA:256,_ZNSt3__1L16__to_raw_pointerINS_4pairINS_6vectorIiNS_9allocatorIiEEEEiEEEEPT_S8_
FNDA:0,_ZNSt3__116allocator_traitsINS_9allocatorIiEEE8allocateERS2_m
FNDA:0,_ZNSt3__116allocator_traitsINS_9allocatorINS_4pairINS_6vectorIiNS1_IiEEEEiEEEEE8allocateERS7_m
FNDA:0,_ZNSt3__116allocator_traitsINS_9allocatorIiEEE10deallocateERS2_Pim
FNDA:0,_ZNSt3__116allocator_traitsINS_9allocatorINS_4pairINS_6vectorIiNS1_IiEEEEiEEEEE10deallocateERS7_PS6_m
FNDA:0,_ZNSt3__116allocator_traitsINS_9allocatorINS_4pairINS_6vectorIiNS1_IiEEEEiEEEEE9constructIS6_JRKS6_EEEvRS7_PT_DpOT0_
FNDA:0,_ZNSt3__116allocator_traitsINS_9allocatorINS_4pairINS_6vectorIiNS1_IiEEEEiEEEEE9constructIS6_JRS6_EEEvRS7_PT_DpOT0_
FNDA:0,_ZNSt3__116allocator_traitsINS_9allocatorIiEEE7destroyIiEEvRS2_PT_
FNDA:0,_ZNSt3__116allocator_traitsINS_9allocatorINS_4pairINS_6vectorIiNS1_IiEEEEiEEEEE7destroyIS6_EEvRS7_PT_
FNDA:0,_ZNSt3__116allocator_traitsINS_9allocatorIiEEE8max_sizeERKS2_
FNDA:0,_ZNSt3__116allocator_traitsINS_9allocatorINS_4pairINS_6vectorIiNS1_IiEEEEiEEEEE8max_sizeERKS7_
FNDA:0,_ZNSt3__116allocator_traitsINS_9allocatorIiEEE37select_on_container_copy_constructionERKS2_
FNDA:0,_ZNSt3__116allocator_traitsINS_9allocatorINS_4pairINS_6vectorIiNS1_IiEEEEiEEEEE37select_on_container_copy_constructionERKS7_
FNDA:0,_ZNSt3__116allocator_traitsINS_9allocatorINS_4pairINS_6vectorIiNS1_IiEEEEiEEEEE25__construct_range_forwardIPKS6_PS6_EEvRS7_T_SE_RT0_
FNDA:0,_ZNSt3__116allocator_traitsINS_9allocatorINS_4pairINS_6vectorIiNS1_IiEEEEiEEEEE25__construct_range_forwardIPS6_SA_EEvRS7_T_SC_RT0_
FNDA:0,_ZNSt3__116allocator_traitsINS_9allocatorIiEEE25__construct_range_forwardIKiiiiEENS_9enable_ifIXaaaasr31is_trivially_move_constructibleIT0_EE5valuesr7is_sameIT1_T2_EE5valueooL_ZNS_17integral_constantIbLb1EE5valueEEntsr15__has_constructIS2_PS7_RT_EE5valueEvE4typeERS2_PSD_SI_RSC_
FNDA:0,_ZNSt3__116allocator_traitsINS_9allocatorIiEEE25__construct_range_forwardIiiiiEENS_9enable_ifIXaaaasr31is_trivially_move_constructibleIT0_EE5valuesr7is_sameIT1_T2_EE5valueooL_ZNS_17integral_constantIbLb1EE5valueEEntsr15__has_constructIS2_PS6_RT_EE5valueEvE4typeERS2_PSC_SH_RSB_
FNDA:0,_ZNSt3__116allocator_traitsINS_9allocatorINS_4pairINS_6vectorIiNS1_IiEEEEiEEEEE11__constructIS6_JRKS6_EEEvNS_17integral_constantIbLb1EEERS7_PT_DpOT0_
FNDA:0,_ZNSt3__116allocator_traitsINS_9allocatorINS_4pairINS_6vectorIiNS1_IiEEEEiEEEEE11__constructIS6_JRS6_EEEvNS_17integral_constantIbLb1EEERS7_PT_DpOT0_
FNDA:0,_ZNSt3__116allocator_traitsINS_9allocatorIiEEE9__destroyIiEEvNS_17integral_constantIbLb1EEERS2_PT_
FNDA:0,_ZNSt3__116allocator_traitsINS_9allocatorINS_4pairINS_6vectorIiNS1_IiEEEEiEEEEE9__destroyIS6_EEvNS_17integral_constantIbLb1EEERS7_PT_
FNDA:0,_ZNSt3__116allocator_traitsINS_9allocatorIiEEE10__max_sizeENS_17integral_constantIbLb1EEERKS2_
FNDA:0,_ZNSt3__116allocator_traitsINS_9allocatorINS_4pairINS_6vectorIiNS1_IiEEEEiEEEEE10__max_sizeENS_17integral_constantIbLb1EEERKS7_
FNDA:0,_ZNSt3__116allocator_traitsINS_9allocatorIiEEE39__select_on_container_copy_constructionENS_17integral_constantIbLb0EEERKS2_
FNDA:0,_ZNSt3__116allocator_traitsINS_9allocatorINS_4pairINS_6vectorIiNS1_IiEEEEiEEEEE39__select_on_container_copy_constructionENS_17integral_constantIbLb0EEERKS7_
FNDA:32,_ZNSt3__19allocatorIcEC2Ev
FNDA:128,_ZNSt3__19allocatorIiEC2Ev
FNDA:32,_ZNSt3__19allocatorINS_4pairINS_6vectorIiNS0_IiEEEEiEEEC2Ev
FNDA:0,_ZNSt3__19allocatorIiE8allocateEmPKv
FNDA:0,_ZNSt3__19allocatorINS_4pairINS_6vectorIiNS0_IiEEEEiEEE8allocateEmPKv
FNDA:0,_ZNSt3__19allocatorIiE10deallocateEPim
FNDA:0,_ZNSt3__19allocatorINS_4pairINS_6vectorIiNS0_IiEEEEiEEE10deallocateEPS5_m
FNDA:0,_ZNKSt3__19allocatorIiE8max_sizeEv
FNDA:0,_ZNKSt3__19allocatorINS_4pairINS_6vectorIiNS0_IiEEEEiEEE8max_sizeEv
FNDA:0,_ZNSt3__19allocatorINS_4pairINS_6vectorIiNS0_IiEEEEiEEE9constructIS5_JRKS5_EEEvPT_DpOT0_
FNDA:0,_ZNSt3__19allocatorINS_4pairINS_6vectorIiNS0_IiEEEEiEEE9constructIS5_JRS5_EEEvPT_DpOT0_
FNDA:0,_ZNSt3__19allocatorIiE7destroyEPi
FNDA:0,_ZNSt3__19allocatorINS_4pairINS_6vectorIiNS0_IiEEEEiEEE7destroyEPS5_
FNDA:32,_ZNSt3__122__compressed_pair_elemINS_12basic_stringIcNS_11char_traitsIcEENS_9allocatorIcEEE5__repELi0ELb0EEC2Ev
FNDA:128,_ZNSt3__122__compressed_pair_elemIPiLi0ELb0EEC2IDnvEEOT_
FNDA:32,_ZNSt3__122__compressed_pair_elemIPNS_4pairINS_6vectorIiNS_9allocatorIiEEEEiEELi0ELb0EEC2IDnvEEOT_
FNDA:0,_ZNSt3__122__compressed_pair_elemIPiLi0ELb0EE5__getEv
FNDA:0,_ZNSt3__122__compressed_pair_elemIPNS_4pairINS_6vectorIiNS_9allocatorIiEEEEiEELi0ELb0EE5__getEv
FNDA:320,_ZNKSt3__122__compressed_pair_elemIPiLi0ELb0EE5__getEv
FNDA:128,_ZNKSt3__122__compressed_pair_elemIPNS_4pairINS_6vectorIiNS_9allocatorIiEEEEiEELi0ELb0EE5__getEv
FNDA:32,_ZNSt3__122__compressed_pair_elemINS_9allocatorIcEELi1ELb1EEC2Ev
FNDA:128,_ZNSt3__122__compressed_pair_elemINS_9allocatorIiEELi1ELb1EEC2Ev
FNDA:32,_ZNSt3__122__compressed_pair_elemINS_9allocatorINS_4pairINS_6vectorIiNS1_IiEEEEiEEEELi1ELb1EEC2Ev
FNDA:0,_ZNSt3__122__compressed_pair_elemINS_9allocatorIiEELi1ELb1EEC2IS2_vEEOT_
FNDA:0,_ZNSt3__122__compressed_pair_elemINS_9allocatorINS_4pairINS_6vectorIiNS1_IiEEEEiEEEELi1ELb1EEC2IS7_vEEOT_
FNDA:0,_ZNSt3__122__compressed_pair_elemINS_9allocatorIiEELi1ELb1EE5__getEv
FNDA:0,_ZNSt3__122__compressed_pair_elemINS_9allocatorINS_4pairINS_6vectorIiNS1_IiEEEEiEEEELi1ELb1EE5__getEv
FNDA:0,_ZNKSt3__122__compressed_pair_elemINS_9allocatorIiEELi1ELb1EE5__getEv
FNDA:0,_ZNKSt3__122__compressed_pair_elemINS_9allocatorINS_4pairINS_6vectorIiNS1_IiEEEEiEEEELi1ELb1EE5__getEv
FNDA:32,_ZNSt3__117__compressed_pairINS_12basic_stringIcNS_11char_traitsIcEENS_9allocatorIcEEE5__repES5_EC1ILb1EvEEv
FNDA:32,_ZNSt3__117__compressed_pairINS_12basic_stringIcNS_11char_traitsIcEENS_9allocatorIcEEE5__repES5_EC2ILb1EvEEv
FNDA:128,_ZNSt3__117__compressed_pairIPiNS_9allocatorIiEEEC1IDnLb1EEEOT_
FNDA:128,_ZNSt3__117__compressed_pairIPiNS_9allocatorIiEEEC2IDnLb1EEEOT_
FNDA:32,_ZNSt3__117__compressed_pairIPNS_4pairINS_6vectorIiNS_9allocatorIiEEEEiEENS3_IS6_EEEC1IDnLb1EEEOT_
FNDA:32,_ZNSt3__117__compressed_pairIPNS_4pairINS_6vectorIiNS_9allocatorIiEEEEiEENS3_IS6_EEEC2IDnLb1EEEOT_
FNDA:0,_ZNSt3__117__compressed_pairIPiNS_9allocatorIiEEEC1IDnS3_EEOT_OT0_
FNDA:0,_ZNSt3__117__compressed_pairIPiNS_9allocatorIiEEEC2IDnS3_EEOT_OT0_
FNDA:0,_ZNSt3__117__compressed_pairIPNS_4pairINS_6vectorIiNS_9allocatorIiEEEEiEENS3_IS6_EEEC1IDnS8_EEOT_OT0_
FNDA:0,_ZNSt3__117__compressed_pairIPNS_4pairINS_6vectorIiNS_9allocatorIiEEEEiEENS3_IS6_EEEC2IDnS8_EEOT_OT0_
FNDA:0,_ZNSt3__117__compressed_pairIPiNS_9allocatorIiEEE5firstEv
FNDA:0,_ZNSt3__117__compressed_pairIPNS_4pairINS_6vectorIiNS_9allocatorIiEEEEiEENS3_IS6_EEE5firstEv
FNDA:320,_ZNKSt3__117__compressed_pairIPiNS_9allocatorIiEEE5firstEv
FNDA:128,_ZNKSt3__117__compressed_pairIPNS_4pairINS_6vectorIiNS_9allocatorIiEEEEiEENS3_IS6_EEE5firstEv
FNDA:0,_ZNSt3__117__compressed_pairIPiNS_9allocatorIiEEE6secondEv
FNDA:0,_ZNSt3__117__compressed_pairIPNS_4pairINS_6vectorIiNS_9allocatorIiEEEEiEENS3_IS6_EEE6secondEv
FNDA:0,_ZNKSt3__117__compressed_pairIPiNS_9allocatorIiEEE6secondEv
FNDA:0,_ZNKSt3__117__compressed_pairIPNS_4pairINS_6vectorIiNS_9allocatorIiEEEEiEENS3_IS6_EEE6secondEv
FNF:73
FNH:21
DA:1106,896
DA:1108,896
DA:1546,0
DA:1547,0
DA:1554,0
DA:1555,0
DA:1560,0
DA:1561,0
DA:1562,0
DA:1595,0
DA:1596,0
DA:1599,0
DA:1600,0
DA:1604,0
DA:1605,0
DA:1606,0
DA:1607,0
DA:1643,0
DA:1645,0
DA:1646,0
DA:1647,0
DA:1662,0
DA:1664,0
DA:1665,0
DA:1667,0
DA:1668,0
DA:1669,0
DA:1670,0
DA:1717,0
DA:1718,0
DA:1742,0
DA:1743,0
DA:1752,0
DA:1753,0
DA:1764,0
DA:1765,0
DA:1798,192
DA:1809,0
DA:1811,0
DA:1812,0
DA:1814,0
DA:1816,0
DA:1817,0
DA:1818,0
DA:1819,0
DA:1824,0
DA:1826,0
DA:1827,0
DA:1881,0
DA:2140,32
DA:2147,160
DA:2148,160
DA:2150,160
DA:2163,0
DA:2165,448
DA:2179,192
DA:2186,0
DA:2187,0
DA:2188,0
DA:2202,0
DA:2204,0
DA:2234,64
DA:2240,320
DA:2241,320
DA:2250,0
DA:2251,0
DA:2279,0
DA:2280,0
DA:2284,448
DA:2285,448
DA:2289,0
DA:2290,0
DA:2294,0
DA:2295,0
LF:74
LH:14
end_of_record
SF:/Library/Developer/CommandLineTools/usr/include/c++/v1/new
FN:223,_ZNSt3__1L17__libcpp_allocateEmm
FN:245,_ZNSt3__117_DeallocateCaller33__do_deallocate_handle_size_alignEPvmm
FN:275,_ZNSt3__117_DeallocateCaller27__do_deallocate_handle_sizeEPvm
FN:316,_ZNSt3__117_DeallocateCaller9__do_callEPv
FN:325,_ZNSt3__1L19__libcpp_deallocateEPvmm
FNDA:0,_ZNSt3__1L17__libcpp_allocateEmm
FNDA:0,_ZNSt3__117_DeallocateCaller33__do_deallocate_handle_size_alignEPvmm
FNDA:0,_ZNSt3__117_DeallocateCaller27__do_deallocate_handle_sizeEPvm
FNDA:0,_ZNSt3__117_DeallocateCaller9__do_callEPv
FNDA:0,_ZNSt3__1L19__libcpp_deallocateEPvmm
FNF:5
FNH:0
DA:223,0
DA:239,0
DA:245,0
DA:248,0
DA:275,0
DA:278,0
DA:316,0
DA:320,0
DA:325,0
DA:326,0
DA:327,0
LF:11
LH:0
end_of_record
SF:/Library/Developer/CommandLineTools/usr/include/c++/v1/stdexcept
FN:136,_ZNSt12length_errorC2EPKc
FN:136,_ZNSt12length_errorC1EPKc
FN:222,_ZNSt3__1L20__throw_length_errorEPKc
FNDA:0,_ZNSt12length_errorC1EPKc
FNDA:0,_ZNSt12length_errorC2EPKc
FNDA:0,_ZNSt3__1L20__throw_length_errorEPKc
FNF:3
FNH:0
DA:136,0
DA:222,0
DA:225,0
DA:230,0
LF:4
LH:0
end_of_record
SF:/Library/Developer/CommandLineTools/usr/include/c++/v1/string
FN:818,_ZNSt3__112basic_stringIcNS_11char_traitsIcEENS_9allocatorIcEEEC1IDnEEPKc
FN:818,_ZNSt3__112basic_stringIcNS_11char_traitsIcEENS_9allocatorIcEEEC2IDnEEPKc
FNDA:32,_ZNSt3__112basic_stringIcNS_11char_traitsIcEENS_9allocatorIcEEEC1IDnEEPKc
FNDA:32,_ZNSt3__112basic_stringIcNS_11char_traitsIcEENS_9allocatorIcEEEC2IDnEEPKc
FNF:2
FNH:2
DA:818,64
DA:820,32
DA:824,64
LF:3
LH:3
end_of_record
SF:/Library/Developer/CommandLineTools/usr/include/c++/v1/type_traits
FN:2310,_ZNSt3__1L4moveIRNS_9allocatorINS_4pairINS_6vectorIiNS1_IiEEEEiEEEEEEONS_16remove_referenceIT_E4typeEOSA_
FN:2310,_ZNSt3__1L4moveIRNS_9allocatorIiEEEEONS_16remove_referenceIT_E4typeEOS5_
FN:2319,_ZNSt3__1L7forwardINS_9allocatorINS_4pairINS_6vectorIiNS1_IiEEEEiEEEEEEOT_RNS_16remove_referenceIS8_E4typeE
FN:2319,_ZNSt3__1L7forwardINS_9allocatorIiEEEEOT_RNS_16remove_referenceIS3_E4typeE
FN:2319,_ZNSt3__1L7forwardIRKNS_4pairINS_6vectorIiNS_9allocatorIiEEEEiEEEEOT_RNS_16remove_referenceIS9_E4typeE
FN:2319,_ZNSt3__1L7forwardIDnEEOT_RNS_16remove_referenceIS1_E4typeE
FN:2319,_ZNSt3__1L7forwardIRNS_6vectorIiNS_9allocatorIiEEEEEEOT_RNS_16remove_referenceIS6_E4typeE
FN:2319,_ZNSt3__1L7forwardIRNS_4pairINS_6vectorIiNS_9allocatorIiEEEEiEEEEOT_RNS_16remove_referenceIS8_E4typeE
FN:2319,_ZNSt3__1L7forwardIiEEOT_RNS_16remove_referenceIS1_E4typeE
FNDA:0,_ZNSt3__1L4moveIRNS_9allocatorIiEEEEONS_16remove_referenceIT_E4typeEOS5_
FNDA:0,_ZNSt3__1L4moveIRNS_9allocatorINS_4pairINS_6vectorIiNS1_IiEEEEiEEEEEEONS_16remove_referenceIT_E4typeEOSA_
FNDA:320,_ZNSt3__1L7forwardIDnEEOT_RNS_16remove_referenceIS1_E4typeE
FNDA:192,_ZNSt3__1L7forwardIRNS_6vectorIiNS_9allocatorIiEEEEEEOT_RNS_16remove_referenceIS6_E4typeE
FNDA:192,_ZNSt3__1L7forwardIiEEOT_RNS_16remove_referenceIS1_E4typeE
FNDA:0,_ZNSt3__1L7forwardINS_9allocatorIiEEEEOT_RNS_16remove_referenceIS3_E4typeE
FNDA:0,_ZNSt3__1L7forwardIRKNS_4pairINS_6vectorIiNS_9allocatorIiEEEEiEEEEOT_RNS_16remove_referenceIS9_E4typeE
FNDA:0,_ZNSt3__1L7forwardINS_9allocatorINS_4pairINS_6vectorIiNS1_IiEEEEiEEEEEEOT_RNS_16remove_referenceIS8_E4typeE
FNDA:0,_ZNSt3__1L7forwardIRNS_4pairINS_6vectorIiNS_9allocatorIiEEEEiEEEEOT_RNS_16remove_referenceIS8_E4typeE
FNF:9
FNH:3
DA:2310,0
DA:2313,0
DA:2319,704
DA:2321,704
LF:4
LH:2
end_of_record
SF:/Library/Developer/CommandLineTools/usr/include/c++/v1/utility
FN:316,_ZNSt3__14pairINS_6vectorIiNS_9allocatorIiEEEEiED1Ev
FN:316,_ZNSt3__14pairINS_6vectorIiNS_9allocatorIiEEEEiED2Ev
FN:328,_ZNSt3__14pairINS_6vectorIiNS_9allocatorIiEEEEiEC2ERKS5_
FN:328,_ZNSt3__14pairINS_6vectorIiNS_9allocatorIiEEEEiEC1ERKS5_
FN:448,_ZNSt3__14pairINS_6vectorIiNS_9allocatorIiEEEEiEC1IRS4_iLb0EEEOT_OT0_
FN:448,_ZNSt3__14pairINS_6vectorIiNS_9allocatorIiEEEEiEC2IRS4_iLb0EEEOT_OT0_
FN:668,_ZNSt3__1L9make_pairIRNS_6vectorIiNS_9allocatorIiEEEEiEENS_4pairINS_18__unwrap_ref_decayIT_E4typeENS7_IT0_E4typeEEEOS8_OSB_
FNDA:0,_ZNSt3__14pairINS_6vectorIiNS_9allocatorIiEEEEiED1Ev
FNDA:0,_ZNSt3__14pairINS_6vectorIiNS_9allocatorIiEEEEiED2Ev
FNDA:0,_ZNSt3__14pairINS_6vectorIiNS_9allocatorIiEEEEiEC1ERKS5_
FNDA:0,_ZNSt3__14pairINS_6vectorIiNS_9allocatorIiEEEEiEC2ERKS5_
FNDA:96,_ZNSt3__14pairINS_6vectorIiNS_9allocatorIiEEEEiEC1IRS4_iLb0EEEOT_OT0_
FNDA:96,_ZNSt3__14pairINS_6vectorIiNS_9allocatorIiEEEEiEC2IRS4_iLb0EEEOT_OT0_
FNDA:96,_ZNSt3__1L9make_pairIRNS_6vectorIiNS_9allocatorIiEEEEiEENS_4pairINS_18__unwrap_ref_decayIT_E4typeENS7_IT0_E4typeEEEOS8_OSB_
FNF:7
FNH:3
DA:316,0
DA:328,0
DA:448,192
DA:451,192
DA:668,96
DA:670,96
DA:671,96
LF:7
LH:5
end_of_record
SF:/Library/Developer/CommandLineTools/usr/include/c++/v1/vector
FN:304,_ZNSt3__120__vector_base_commonILb1EEC2Ev
FN:348,_ZNSt3__113__vector_baseINS_4pairINS_6vectorIiNS_9allocatorIiEEEEiEENS3_IS6_EEE7__allocEv
FN:348,_ZNSt3__113__vector_baseIiNS_9allocatorIiEEE7__allocEv
FN:351,_ZNKSt3__113__vector_baseIiNS_9allocatorIiEEE7__allocEv
FN:351,_ZNKSt3__113__vector_baseINS_4pairINS_6vectorIiNS_9allocatorIiEEEEiEENS3_IS6_EEE7__allocEv
FN:354,_ZNSt3__113__vector_baseIiNS_9allocatorIiEEE9__end_capEv
FN:354,_ZNSt3__113__vector_baseINS_4pairINS_6vectorIiNS_9allocatorIiEEEEiEENS3_IS6_EEE9__end_capEv
FN:357,_ZNKSt3__113__vector_baseIiNS_9allocatorIiEEE9__end_capEv
FN:357,_ZNKSt3__113__vector_baseINS_4pairINS_6vectorIiNS_9allocatorIiEEEEiEENS3_IS6_EEE9__end_capEv
FN:370,_ZNSt3__113__vector_baseIiNS_9allocatorIiEEE5clearEv
FN:370,_ZNSt3__113__vector_baseINS_4pairINS_6vectorIiNS_9allocatorIiEEEEiEENS3_IS6_EEE5clearEv
FN:372,_ZNKSt3__113__vector_baseINS_4pairINS_6vectorIiNS_9allocatorIiEEEEiEENS3_IS6_EEE8capacityEv
FN:372,_ZNKSt3__113__vector_baseIiNS_9allocatorIiEEE8capacityEv
FN:423,_ZNSt3__113__vector_baseINS_4pairINS_6vectorIiNS_9allocatorIiEEEEiEENS3_IS6_EEE17__destruct_at_endEPS6_
FN:423,_ZNSt3__113__vector_baseIiNS_9allocatorIiEEE17__destruct_at_endEPi
FN:433,_ZNSt3__113__vector_baseINS_4pairINS_6vectorIiNS_9allocatorIiEEEEiEENS3_IS6_EEEC2Ev
FN:433,_ZNSt3__113__vector_baseIiNS_9allocatorIiEEEC2Ev
FN:453,_ZNSt3__113__vector_baseINS_4pairINS_6vectorIiNS_9allocatorIiEEEEiEENS3_IS6_EEEC2EOS7_
FN:453,_ZNSt3__113__vector_baseIiNS_9allocatorIiEEEC2EOS2_
FN:460,_ZNSt3__113__vector_baseIiNS_9allocatorIiEEED2Ev
FN:460,_ZNSt3__113__vector_baseINS_4pairINS_6vectorIiNS_9allocatorIiEEEEiEENS3_IS6_EEED2Ev
FN:550,_ZNSt3__16vectorINS_4pairINS0_IiNS_9allocatorIiEEEEiEENS2_IS5_EEED1Ev
FN:550,_ZNSt3__16vectorIiNS_9allocatorIiEEED1Ev
FN:550,_ZNSt3__16vectorIiNS_9allocatorIiEEED2Ev
FN:550,_ZNSt3__16vectorINS_4pairINS0_IiNS_9allocatorIiEEEEiEENS2_IS5_EEED2Ev
FN:656,_ZNKSt3__16vectorINS_4pairINS0_IiNS_9allocatorIiEEEEiEENS2_IS5_EEE4sizeEv
FN:656,_ZNKSt3__16vectorIiNS_9allocatorIiEEE4sizeEv
FN:659,_ZNKSt3__16vectorIiNS_9allocatorIiEEE8capacityEv
FN:659,_ZNKSt3__16vectorINS_4pairINS0_IiNS_9allocatorIiEEEEiEENS2_IS5_EEE8capacityEv
FN:698,_ZNKSt3__16vectorIiNS_9allocatorIiEEE4dataEv
FN:698,_ZNKSt3__16vectorINS_4pairINS0_IiNS_9allocatorIiEEEEiEENS2_IS5_EEE4dataEv
FN:862,_ZNKSt3__16vectorINS_4pairINS0_IiNS_9allocatorIiEEEEiEENS2_IS5_EEE31__annotate_contiguous_containerEPKvS9_S9_S9_
FN:862,_ZNKSt3__16vectorIiNS_9allocatorIiEEE31__annotate_contiguous_containerEPKvS5_S5_S5_
FN:866,_ZNKSt3__16vectorINS_4pairINS0_IiNS_9allocatorIiEEEEiEENS2_IS5_EEE14__annotate_newEm
FN:866,_ZNKSt3__16vectorIiNS_9allocatorIiEEE14__annotate_newEm
FN:872,_ZNKSt3__16vectorINS_4pairINS0_IiNS_9allocatorIiEEEEiEENS2_IS5_EEE17__annotate_deleteEv
FN:872,_ZNKSt3__16vectorIiNS_9allocatorIiEEE17__annotate_deleteEv
FN:910,_ZNSt3__16vectorINS_4pairINS0_IiNS_9allocatorIiEEEEiEENS2_IS5_EEE24__RAII_IncreaseAnnotatorC1ERKS7_m
FN:910,_ZNSt3__16vectorIiNS_9allocatorIiEEE24__RAII_IncreaseAnnotatorC2ERKS3_m
FN:910,_ZNSt3__16vectorINS_4pairINS0_IiNS_9allocatorIiEEEEiEENS2_IS5_EEE24__RAII_IncreaseAnnotatorC2ERKS7_m
FN:910,_ZNSt3__16vectorIiNS_9allocatorIiEEE24__RAII_IncreaseAnnotatorC1ERKS3_m
FN:911,_ZNSt3__16vectorINS_4pairINS0_IiNS_9allocatorIiEEEEiEENS2_IS5_EEE24__RAII_IncreaseAnnotator6__doneEv
FN:911,_ZNSt3__16vectorIiNS_9allocatorIiEEE24__RAII_IncreaseAnnotator6__doneEv
FN:973,_ZNSt3__16vectorIiNS_9allocatorIiEEE11__vallocateEm
FN:973,_ZNSt3__16vectorINS_4pairINS0_IiNS_9allocatorIiEEEEiEENS2_IS5_EEE11__vallocateEm
FN:996,_ZNKSt3__16vectorINS_4pairINS0_IiNS_9allocatorIiEEEEiEENS2_IS5_EEE8max_sizeEv
FN:996,_ZNKSt3__16vectorIiNS_9allocatorIiEEE8max_sizeEv
FN:1066,_ZNSt3__16vectorINS_4pairINS0_IiNS_9allocatorIiEEEEiEENS2_IS5_EEE18__construct_at_endIPS5_EENS_9enable_ifIXsr21__is_forward_iteratorIT_EE5valueEvE4typeESB_SB_m
FN:1066,_ZNSt3__16vectorIiNS_9allocatorIiEEE18__construct_at_endIPKiEENS_9enable_ifIXsr21__is_forward_iteratorIT_EE5valueEvE4typeES8_S8_m
FN:1066,_ZNSt3__16vectorIiNS_9allocatorIiEEE18__construct_at_endIPiEENS_9enable_ifIXsr21__is_forward_iteratorIT_EE5valueEvE4typeES7_S7_m
FN:1066,_ZNSt3__16vectorINS_4pairINS0_IiNS_9allocatorIiEEEEiEENS2_IS5_EEE18__construct_at_endIPKS5_EENS_9enable_ifIXsr21__is_forward_iteratorIT_EE5valueEvE4typeESC_SC_m
FN:1243,_ZNSt3__16vectorINS_4pairINS0_IiNS_9allocatorIiEEEEiEENS2_IS5_EEEC2ERKS7_
FN:1243,_ZNSt3__16vectorIiNS_9allocatorIiEEEC1ERKS3_
FN:1243,_ZNSt3__16vectorINS_4pairINS0_IiNS_9allocatorIiEEEEiEENS2_IS5_EEEC1ERKS7_
FN:1243,_ZNSt3__16vectorIiNS_9allocatorIiEEEC2ERKS3_
FN:1321,_ZNSt3__16vectorIiNS_9allocatorIiEEEC2ESt16initializer_listIiE
FN:1321,_ZNSt3__16vectorINS_4pairINS0_IiNS_9allocatorIiEEEEiEENS2_IS5_EEEC1ESt16initializer_listIS5_E
FN:1321,_ZNSt3__16vectorINS_4pairINS0_IiNS_9allocatorIiEEEEiEENS2_IS5_EEEC2ESt16initializer_listIS5_E
FN:1321,_ZNSt3__16vectorIiNS_9allocatorIiEEEC1ESt16initializer_listIiE
FNDA:160,_ZNSt3__120__vector_base_commonILb1EEC2Ev
FNDA:0,_ZNSt3__113__vector_baseIiNS_9allocatorIiEEE7__allocEv
FNDA:0,_ZNSt3__113__vector_baseINS_4pairINS_6vectorIiNS_9allocatorIiEEEEiEENS3_IS6_EEE7__allocEv
FNDA:0,_ZNKSt3__113__vector_baseIiNS_9allocatorIiEEE7__allocEv
FNDA:0,_ZNKSt3__113__vector_baseINS_4pairINS_6vectorIiNS_9allocatorIiEEEEiEENS3_IS6_EEE7__allocEv
FNDA:0,_ZNSt3__113__vector_baseIiNS_9allocatorIiEEE9__end_capEv
FNDA:0,_ZNSt3__113__vector_baseINS_4pairINS_6vectorIiNS_9allocatorIiEEEEiEENS3_IS6_EEE9__end_capEv
FNDA:320,_ZNKSt3__113__vector_baseIiNS_9allocatorIiEEE9__end_capEv
FNDA:128,_ZNKSt3__113__vector_baseINS_4pairINS_6vectorIiNS_9allocatorIiEEEEiEENS3_IS6_EEE9__end_capEv
FNDA:0,_ZNSt3__113__vector_baseIiNS_9allocatorIiEEE5clearEv
FNDA:0,_ZNSt3__113__vector_baseINS_4pairINS_6vectorIiNS_9allocatorIiEEEEiEENS3_IS6_EEE5clearEv
FNDA:320,_ZNKSt3__113__vector_baseIiNS_9allocatorIiEEE8capacityEv
FNDA:128,_ZNKSt3__113__vector_baseINS_4pairINS_6vectorIiNS_9allocatorIiEEEEiEENS3_IS6_EEE8capacityEv
FNDA:0,_ZNSt3__113__vector_baseIiNS_9allocatorIiEEE17__destruct_at_endEPi
FNDA:0,_ZNSt3__113__vector_baseINS_4pairINS_6vectorIiNS_9allocatorIiEEEEiEENS3_IS6_EEE17__destruct_at_endEPS6_
FNDA:128,_ZNSt3__113__vector_baseIiNS_9allocatorIiEEEC2Ev
FNDA:32,_ZNSt3__113__vector_baseINS_4pairINS_6vectorIiNS_9allocatorIiEEEEiEENS3_IS6_EEEC2Ev
FNDA:0,_ZNSt3__113__vector_baseIiNS_9allocatorIiEEEC2EOS2_
FNDA:0,_ZNSt3__113__vector_baseINS_4pairINS_6vectorIiNS_9allocatorIiEEEEiEENS3_IS6_EEEC2EOS7_
FNDA:0,_ZNSt3__113__vector_baseIiNS_9allocatorIiEEED2Ev
FNDA:0,_ZNSt3__113__vector_baseINS_4pairINS_6vectorIiNS_9allocatorIiEEEEiEENS3_IS6_EEED2Ev
FNDA:160,_ZNSt3__16vectorIiNS_9allocatorIiEEED1Ev
FNDA:64,_ZNSt3__16vectorINS_4pairINS0_IiNS_9allocatorIiEEEEiEENS2_IS5_EEED1Ev
FNDA:160,_ZNSt3__16vectorIiNS_9allocatorIiEEED2Ev
FNDA:64,_ZNSt3__16vectorINS_4pairINS0_IiNS_9allocatorIiEEEEiEENS2_IS5_EEED2Ev
FNDA:160,_ZNKSt3__16vectorIiNS_9allocatorIiEEE4sizeEv
FNDA:64,_ZNKSt3__16vectorINS_4pairINS0_IiNS_9allocatorIiEEEEiEENS2_IS5_EEE4sizeEv
FNDA:320,_ZNKSt3__16vectorIiNS_9allocatorIiEEE8capacityEv
FNDA:128,_ZNKSt3__16vectorINS_4pairINS0_IiNS_9allocatorIiEEEEiEENS2_IS5_EEE8capacityEv
FNDA:640,_ZNKSt3__16vectorIiNS_9allocatorIiEEE4dataEv
FNDA:256,_ZNKSt3__16vectorINS_4pairINS0_IiNS_9allocatorIiEEEEiEENS2_IS5_EEE4dataEv
FNDA:160,_ZNKSt3__16vectorIiNS_9allocatorIiEEE31__annotate_contiguous_containerEPKvS5_S5_S5_
FNDA:64,_ZNKSt3__16vectorINS_4pairINS0_IiNS_9allocatorIiEEEEiEENS2_IS5_EEE31__annotate_contiguous_containerEPKvS9_S9_S9_
FNDA:0,_ZNKSt3__16vectorIiNS_9allocatorIiEEE14__annotate_newEm
FNDA:0,_ZNKSt3__16vectorINS_4pairINS0_IiNS_9allocatorIiEEEEiEENS2_IS5_EEE14__annotate_newEm
FNDA:160,_ZNKSt3__16vectorIiNS_9allocatorIiEEE17__annotate_deleteEv
FNDA:64,_ZNKSt3__16vectorINS_4pairINS0_IiNS_9allocatorIiEEEEiEENS2_IS5_EEE17__annotate_deleteEv
FNDA:0,_ZNSt3__16vectorIiNS_9allocatorIiEEE24__RAII_IncreaseAnnotatorC1ERKS3_m
FNDA:0,_ZNSt3__16vectorIiNS_9allocatorIiEEE24__RAII_IncreaseAnnotatorC2ERKS3_m
FNDA:0,_ZNSt3__16vectorINS_4pairINS0_IiNS_9allocatorIiEEEEiEENS2_IS5_EEE24__RAII_IncreaseAnnotatorC1ERKS7_m
FNDA:0,_ZNSt3__16vectorINS_4pairINS0_IiNS_9allocatorIiEEEEiEENS2_IS5_EEE24__RAII_IncreaseAnnotatorC2ERKS7_m
FNDA:0,_ZNSt3__16vectorIiNS_9allocatorIiEEE24__RAII_IncreaseAnnotator6__doneEv
FNDA:0,_ZNSt3__16vectorINS_4pairINS0_IiNS_9allocatorIiEEEEiEENS2_IS5_EEE24__RAII_IncreaseAnnotator6__doneEv
FNDA:0,_ZNSt3__16vectorIiNS_9allocatorIiEEE11__vallocateEm
FNDA:0,_ZNSt3__16vectorINS_4pairINS0_IiNS_9allocatorIiEEEEiEENS2_IS5_EEE11__vallocateEm
FNDA:0,_ZNKSt3__16vectorIiNS_9allocatorIiEEE8max_sizeEv
FNDA:0,_ZNKSt3__16vectorINS_4pairINS0_IiNS_9allocatorIiEEEEiEENS2_IS5_EEE8max_sizeEv
FNDA:0,_ZNSt3__16vectorIiNS_9allocatorIiEEE18__construct_at_endIPKiEENS_9enable_ifIXsr21__is_forward_iteratorIT_EE5valueEvE4typeES8_S8_m
FNDA:0,_ZNSt3__16vectorIiNS_9allocatorIiEEE18__construct_at_endIPiEENS_9enable_ifIXsr21__is_forward_iteratorIT_EE5valueEvE4typeES7_S7_m
FNDA:0,_ZNSt3__16vectorINS_4pairINS0_IiNS_9allocatorIiEEEEiEENS2_IS5_EEE18__construct_at_endIPKS5_EENS_9enable_ifIXsr21__is_forward_iteratorIT_EE5valueEvE4typeESC_SC_m
FNDA:0,_ZNSt3__16vectorINS_4pairINS0_IiNS_9allocatorIiEEEEiEENS2_IS5_EEE18__construct_at_endIPS5_EENS_9enable_ifIXsr21__is_forward_iteratorIT_EE5valueEvE4typeESB_SB_m
FNDA:0,_ZNSt3__16vectorINS_4pairINS0_IiNS_9allocatorIiEEEEiEENS2_IS5_EEEC1ERKS7_
FNDA:0,_ZNSt3__16vectorIiNS_9allocatorIiEEEC1ERKS3_
FNDA:0,_ZNSt3__16vectorIiNS_9allocatorIiEEEC2ERKS3_
FNDA:0,_ZNSt3__16vectorINS_4pairINS0_IiNS_9allocatorIiEEEEiEENS2_IS5_EEEC2ERKS7_
FNDA:128,_ZNSt3__16vectorIiNS_9allocatorIiEEEC1ESt16initializer_listIiE
FNDA:32,_ZNSt3__16vectorINS_4pairINS0_IiNS_9allocatorIiEEEEiEENS2_IS5_EEEC1ESt16initializer_listIS5_E
FNDA:128,_ZNSt3__16vectorIiNS_9allocatorIiEEEC2ESt16initializer_listIiE
FNDA:32,_ZNSt3__16vectorINS_4pairINS0_IiNS_9allocatorIiEEEEiEENS2_IS5_EEEC2ESt16initializer_listIS5_E
FNF:59
FNH:25
DA:304,160
DA:348,0
DA:349,0
DA:351,0
DA:352,0
DA:354,0
DA:355,0
DA:357,448
DA:358,448
DA:361,160
DA:365,0
DA:370,0
DA:372,448
DA:373,448
DA:423,0
DA:425,0
DA:426,0
DA:427,0
DA:428,0
DA:429,0
DA:433,160
DA:435,160
DA:436,160
DA:437,160
DA:438,160
DA:439,160
DA:453,0
DA:454,0
DA:455,0
DA:456,0
DA:460,0
DA:462,0
DA:464,0
DA:465,0
DA:466,0
DA:467,0
DA:550,448
DA:551,224
DA:552,224
DA:556,448
DA:565,160
DA:656,224
DA:657,224
DA:659,448
DA:660,448
DA:698,896
DA:699,896
DA:862,224
DA:863,224
DA:866,0
DA:867,0
DA:868,0
DA:869,0
DA:872,224
DA:873,448
DA:874,224
DA:875,224
DA:910,0
DA:911,0
DA:973,0
DA:975,0
DA:976,0
DA:977,0
DA:978,0
DA:979,0
DA:980,0
DA:996,0
DA:998,0
DA:999,0
DA:1066,0
DA:1068,0
DA:1069,0
DA:1070,0
DA:1071,0
DA:1072,0
DA:1243,0
DA:1244,0
DA:1245,0
DA:1249,0
DA:1250,0
DA:1252,0
DA:1253,0
DA:1254,0
DA:1255,0
DA:1321,320
DA:1322,320
DA:1326,160
DA:1328,160
DA:1329,160
DA:1330,160
DA:1331,320
LF:91
LH:36
end_of_record
SF:/Users/usuario/Desktop/LabAlgo1/tp2/reunionesRemotas/lib/gtest.h
FN:8201,_ZN7testing8internal15TestFactoryBaseD1Ev
FN:8201,_ZN7testing8internal15TestFactoryBaseD0Ev
FN:8201,_ZN7testing8internal15TestFactoryBaseD2Ev
FN:8208,_ZN7testing8internal15TestFactoryBaseC2Ev
FN:8217,_ZN7testing8internal15TestFactoryImplI53tonosDeVozElevadosTEST_tonosDeVozElevadosValido6_TestEC2Ev
FN:8217,_ZN7testing8internal15TestFactoryImplI53tonosDeVozElevadosTEST_tonosDeVozElevadosValido5_TestED0Ev
FN:8217,_ZN7testing8internal15TestFactoryImplI53tonosDeVozElevadosTEST_tonosDeVozElevadosValido2_TestEC1Ev
FN:8217,_ZN7testing8internal15TestFactoryImplI53tonosDeVozElevadosTEST_tonosDeVozElevadosValido4_TestED2Ev
FN:8217,_ZN7testing8internal15TestFactoryImplI53tonosDeVozElevadosTEST_tonosDeVozElevadosValido6_TestEC1Ev
FN:8217,_ZN7testing8internal15TestFactoryImplI53tonosDeVozElevadosTEST_tonosDeVozElevadosValido5_TestEC1Ev
FN:8217,_ZN7testing8internal15TestFactoryImplI53tonosDeVozElevadosTEST_tonosDeVozElevadosValido5_TestED1Ev
FN:8217,_ZN7testing8internal15TestFactoryImplI53tonosDeVozElevadosTEST_tonosDeVozElevadosValido5_TestEC2Ev
FN:8217,_ZN7testing8internal15TestFactoryImplI52tonosDeVozElevadosTEST_tonosDeVozElevadosValido_TestEC2Ev
FN:8217,_ZN7testing8internal15TestFactoryImplI53tonosDeVozElevadosTEST_tonosDeVozElevadosValido2_TestED2Ev
FN:8217,_ZN7testing8internal15TestFactoryImplI52tonosDeVozElevadosTEST_tonosDeVozElevadosValido_TestED0Ev
FN:8217,_ZN7testing8internal15TestFactoryImplI53tonosDeVozElevadosTEST_tonosDeVozElevadosValido4_TestEC1Ev
FN:8217,_ZN7testing8internal15TestFactoryImplI53tonosDeVozElevadosTEST_tonosDeVozElevadosValido3_TestED2Ev
FN:8217,_ZN7testing8internal15TestFactoryImplI52tonosDeVozElevadosTEST_tonosDeVozElevadosValido_TestEC1Ev
FN:8217,_ZN7testing8internal15TestFactoryImplI53tonosDeVozElevadosTEST_tonosDeVozElevadosValido2_TestEC2Ev
FN:8217,_ZN7testing8internal15TestFactoryImplI53tonosDeVozElevadosTEST_tonosDeVozElevadosValido7_TestEC2Ev
FN:8217,_ZN7testing8internal15TestFactoryImplI53tonosDeVozElevadosTEST_tonosDeVozElevadosValido2_TestED1Ev
FN:8217,_ZN7testing8internal15TestFactoryImplI53tonosDeVozElevadosTEST_tonosDeVozElevadosValido7_TestED1Ev
FN:8217,_ZN7testing8internal15TestFactoryImplI53tonosDeVozElevadosTEST_tonosDeVozElevadosValido3_TestEC2Ev
FN:8217,_ZN7testing8internal15TestFactoryImplI53tonosDeVozElevadosTEST_tonosDeVozElevadosValido3_TestED0Ev
FN:8217,_ZN7testing8internal15TestFactoryImplI53tonosDeVozElevadosTEST_tonosDeVozElevadosValido7_TestED0Ev
FN:8217,_ZN7testing8internal15TestFactoryImplI53tonosDeVozElevadosTEST_tonosDeVozElevadosValido5_TestED2Ev
FN:8217,_ZN7testing8internal15TestFactoryImplI53tonosDeVozElevadosTEST_tonosDeVozElevadosValido4_TestED0Ev
FN:8217,_ZN7testing8internal15TestFactoryImplI53tonosDeVozElevadosTEST_tonosDeVozElevadosValido6_TestED2Ev
FN:8217,_ZN7testing8internal15TestFactoryImplI53tonosDeVozElevadosTEST_tonosDeVozElevadosValido2_TestED0Ev
FN:8217,_ZN7testing8internal15TestFactoryImplI53tonosDeVozElevadosTEST_tonosDeVozElevadosValido4_TestED1Ev
FN:8217,_ZN7testing8internal15TestFactoryImplI52tonosDeVozElevadosTEST_tonosDeVozElevadosValido_TestED1Ev
FN:8217,_ZN7testing8internal15TestFactoryImplI53tonosDeVozElevadosTEST_tonosDeVozElevadosValido6_TestED0Ev
FN:8217,_ZN7testing8internal15TestFactoryImplI53tonosDeVozElevadosTEST_tonosDeVozElevadosValido8_TestEC1Ev
FN:8217,_ZN7testing8internal15TestFactoryImplI53tonosDeVozElevadosTEST_tonosDeVozElevadosValido3_TestED1Ev
FN:8217,_ZN7testing8internal15TestFactoryImplI53tonosDeVozElevadosTEST_tonosDeVozElevadosValido8_TestED0Ev
FN:8217,_ZN7testing8internal15TestFactoryImplI53tonosDeVozElevadosTEST_tonosDeVozElevadosValido4_TestEC2Ev
FN:8217,_ZN7testing8internal15TestFactoryImplI53tonosDeVozElevadosTEST_tonosDeVozElevadosValido3_TestEC1Ev
FN:8217,_ZN7testing8internal15TestFactoryImplI53tonosDeVozElevadosTEST_tonosDeVozElevadosValido6_TestED1Ev
FN:8217,_ZN7testing8internal15TestFactoryImplI53tonosDeVozElevadosTEST_tonosDeVozElevadosValido7_TestED2Ev
FN:8217,_ZN7testing8internal15TestFactoryImplI53tonosDeVozElevadosTEST_tonosDeVozElevadosValido8_TestED2Ev
FN:8217,_ZN7testing8internal15TestFactoryImplI53tonosDeVozElevadosTEST_tonosDeVozElevadosValido7_TestEC1Ev
FN:8217,_ZN7testing8internal15TestFactoryImplI53tonosDeVozElevadosTEST_tonosDeVozElevadosValido8_TestED1Ev
FN:8217,_ZN7testing8internal15TestFactoryImplI53tonosDeVozElevadosTEST_tonosDeVozElevadosValido8_TestEC2Ev
FN:8217,_ZN7testing8internal15TestFactoryImplI52tonosDeVozElevadosTEST_tonosDeVozElevadosValido_TestED2Ev
FN:8219,_ZN7testing8internal15TestFactoryImplI52tonosDeVozElevadosTEST_tonosDeVozElevadosValido_TestE10CreateTestEv
FN:8219,_ZN7testing8internal15TestFactoryImplI53tonosDeVozElevadosTEST_tonosDeVozElevadosValido7_TestE10CreateTestEv
FN:8219,_ZN7testing8internal15TestFactoryImplI53tonosDeVozElevadosTEST_tonosDeVozElevadosValido6_TestE10CreateTestEv
FN:8219,_ZN7testing8internal15TestFactoryImplI53tonosDeVozElevadosTEST_tonosDeVozElevadosValido4_TestE10CreateTestEv
FN:8219,_ZN7testing8internal15TestFactoryImplI53tonosDeVozElevadosTEST_tonosDeVozElevadosValido3_TestE10CreateTestEv
FN:8219,_ZN7testing8internal15TestFactoryImplI53tonosDeVozElevadosTEST_tonosDeVozElevadosValido2_TestE10CreateTestEv
FN:8219,_ZN7testing8internal15TestFactoryImplI53tonosDeVozElevadosTEST_tonosDeVozElevadosValido8_TestE10CreateTestEv
FN:8219,_ZN7testing8internal15TestFactoryImplI53tonosDeVozElevadosTEST_tonosDeVozElevadosValido5_TestE10CreateTestEv
FN:8239,_ZN7testing8internal12CodeLocationD1Ev
FN:8239,_ZN7testing8internal12CodeLocationD2Ev
FN:8240,_ZN7testing8internal12CodeLocationC2ERKNSt3__112basic_stringIcNS2_11char_traitsIcEENS2_9allocatorIcEEEEi
FN:8240,_ZN7testing8internal12CodeLocationC1ERKNSt3__112basic_stringIcNS2_11char_traitsIcEENS2_9allocatorIcEEEEi
FN:18988,_ZN7testing4Test13SetUpTestCaseEv
FN:18996,_ZN7testing4Test16TearDownTestCaseEv
FN:19073,_ZN7testing4Test5SetupEv
FNDA:0,_ZN7testing8internal15TestFactoryBaseD1Ev
FNDA:0,_ZN7testing8internal15TestFactoryBaseD0Ev
FNDA:0,_ZN7testing8internal15TestFactoryBaseD2Ev
FNDA:0,_ZN7testing8internal15TestFactoryBaseC2Ev
FNDA:4,_ZN7testing8internal15TestFactoryImplI52tonosDeVozElevadosTEST_tonosDeVozElevadosValido_TestEC1Ev
FNDA:4,_ZN7testing8internal15TestFactoryImplI53tonosDeVozElevadosTEST_tonosDeVozElevadosValido2_TestEC1Ev
FNDA:4,_ZN7testing8internal15TestFactoryImplI53tonosDeVozElevadosTEST_tonosDeVozElevadosValido3_TestEC1Ev
FNDA:4,_ZN7testing8internal15TestFactoryImplI53tonosDeVozElevadosTEST_tonosDeVozElevadosValido4_TestEC1Ev
FNDA:4,_ZN7testing8internal15TestFactoryImplI53tonosDeVozElevadosTEST_tonosDeVozElevadosValido5_TestEC1Ev
FNDA:4,_ZN7testing8internal15TestFactoryImplI53tonosDeVozElevadosTEST_tonosDeVozElevadosValido6_TestEC1Ev
FNDA:4,_ZN7testing8internal15TestFactoryImplI53tonosDeVozElevadosTEST_tonosDeVozElevadosValido7_TestEC1Ev
FNDA:4,_ZN7testing8internal15TestFactoryImplI53tonosDeVozElevadosTEST_tonosDeVozElevadosValido8_TestEC1Ev
FNDA:4,_ZN7testing8internal15TestFactoryImplI52tonosDeVozElevadosTEST_tonosDeVozElevadosValido_TestEC2Ev
FNDA:4,_ZN7testing8internal15TestFactoryImplI52tonosDeVozElevadosTEST_tonosDeVozElevadosValido_TestED1Ev
FNDA:4,_ZN7testing8internal15TestFactoryImplI52tonosDeVozElevadosTEST_tonosDeVozElevadosValido_TestED0Ev
FNDA:4,_ZN7testing8internal15TestFactoryImplI52tonosDeVozElevadosTEST_tonosDeVozElevadosValido_TestED2Ev
FNDA:4,_ZN7testing8internal15TestFactoryImplI53tonosDeVozElevadosTEST_tonosDeVozElevadosValido2_TestEC2Ev
FNDA:4,_ZN7testing8internal15TestFactoryImplI53tonosDeVozElevadosTEST_tonosDeVozElevadosValido2_TestED1Ev
FNDA:4,_ZN7testing8internal15TestFactoryImplI53tonosDeVozElevadosTEST_tonosDeVozElevadosValido2_TestED0Ev
FNDA:4,_ZN7testing8internal15TestFactoryImplI53tonosDeVozElevadosTEST_tonosDeVozElevadosValido2_TestED2Ev
FNDA:4,_ZN7testing8internal15TestFactoryImplI53tonosDeVozElevadosTEST_tonosDeVozElevadosValido3_TestEC2Ev
FNDA:4,_ZN7testing8internal15TestFactoryImplI53tonosDeVozElevadosTEST_tonosDeVozElevadosValido3_TestED1Ev
FNDA:4,_ZN7testing8internal15TestFactoryImplI53tonosDeVozElevadosTEST_tonosDeVozElevadosValido3_TestED0Ev
FNDA:4,_ZN7testing8internal15TestFactoryImplI53tonosDeVozElevadosTEST_tonosDeVozElevadosValido3_TestED2Ev
FNDA:4,_ZN7testing8internal15TestFactoryImplI53tonosDeVozElevadosTEST_tonosDeVozElevadosValido4_TestEC2Ev
FNDA:4,_ZN7testing8internal15TestFactoryImplI53tonosDeVozElevadosTEST_tonosDeVozElevadosValido4_TestED1Ev
FNDA:4,_ZN7testing8internal15TestFactoryImplI53tonosDeVozElevadosTEST_tonosDeVozElevadosValido4_TestED0Ev
FNDA:4,_ZN7testing8internal15TestFactoryImplI53tonosDeVozElevadosTEST_tonosDeVozElevadosValido4_TestED2Ev
FNDA:4,_ZN7testing8internal15TestFactoryImplI53tonosDeVozElevadosTEST_tonosDeVozElevadosValido5_TestEC2Ev
FNDA:4,_ZN7testing8internal15TestFactoryImplI53tonosDeVozElevadosTEST_tonosDeVozElevadosValido5_TestED1Ev
FNDA:4,_ZN7testing8internal15TestFactoryImplI53tonosDeVozElevadosTEST_tonosDeVozElevadosValido5_TestED0Ev
FNDA:4,_ZN7testing8internal15TestFactoryImplI53tonosDeVozElevadosTEST_tonosDeVozElevadosValido5_TestED2Ev
FNDA:4,_ZN7testing8internal15TestFactoryImplI53tonosDeVozElevadosTEST_tonosDeVozElevadosValido6_TestEC2Ev
FNDA:4,_ZN7testing8internal15TestFactoryImplI53tonosDeVozElevadosTEST_tonosDeVozElevadosValido6_TestED1Ev
FNDA:4,_ZN7testing8internal15TestFactoryImplI53tonosDeVozElevadosTEST_tonosDeVozElevadosValido6_TestED0Ev
FNDA:4,_ZN7testing8internal15TestFactoryImplI53tonosDeVozElevadosTEST_tonosDeVozElevadosValido6_TestED2Ev
FNDA:4,_ZN7testing8internal15TestFactoryImplI53tonosDeVozElevadosTEST_tonosDeVozElevadosValido7_TestEC2Ev
FNDA:4,_ZN7testing8internal15TestFactoryImplI53tonosDeVozElevadosTEST_tonosDeVozElevadosValido7_TestED1Ev
FNDA:4,_ZN7testing8internal15TestFactoryImplI53tonosDeVozElevadosTEST_tonosDeVozElevadosValido7_TestED0Ev
FNDA:4,_ZN7testing8internal15TestFactoryImplI53tonosDeVozElevadosTEST_tonosDeVozElevadosValido7_TestED2Ev
FNDA:4,_ZN7testing8internal15TestFactoryImplI53tonosDeVozElevadosTEST_tonosDeVozElevadosValido8_TestEC2Ev
FNDA:4,_ZN7testing8internal15TestFactoryImplI53tonosDeVozElevadosTEST_tonosDeVozElevadosValido8_TestED1Ev
FNDA:4,_ZN7testing8internal15TestFactoryImplI53tonosDeVozElevadosTEST_tonosDeVozElevadosValido8_TestED0Ev
FNDA:4,_ZN7testing8internal15TestFactoryImplI53tonosDeVozElevadosTEST_tonosDeVozElevadosValido8_TestED2Ev
FNDA:4,_ZN7testing8internal15TestFactoryImplI52tonosDeVozElevadosTEST_tonosDeVozElevadosValido_TestE10CreateTestEv
FNDA:4,_ZN7testing8internal15TestFactoryImplI53tonosDeVozElevadosTEST_tonosDeVozElevadosValido2_TestE10CreateTestEv
FNDA:4,_ZN7testing8internal15TestFactoryImplI53tonosDeVozElevadosTEST_tonosDeVozElevadosValido3_TestE10CreateTestEv
FNDA:4,_ZN7testing8internal15TestFactoryImplI53tonosDeVozElevadosTEST_tonosDeVozElevadosValido4_TestE10CreateTestEv
FNDA:4,_ZN7testing8internal15TestFactoryImplI53tonosDeVozElevadosTEST_tonosDeVozElevadosValido5_TestE10CreateTestEv
FNDA:4,_ZN7testing8internal15TestFactoryImplI53tonosDeVozElevadosTEST_tonosDeVozElevadosValido6_TestE10CreateTestEv
FNDA:4,_ZN7testing8internal15TestFactoryImplI53tonosDeVozElevadosTEST_tonosDeVozElevadosValido7_TestE10CreateTestEv
FNDA:4,_ZN7testing8internal15TestFactoryImplI53tonosDeVozElevadosTEST_tonosDeVozElevadosValido8_TestE10CreateTestEv
FNDA:0,_ZN7testing8internal12CodeLocationD1Ev
FNDA:0,_ZN7testing8internal12CodeLocationD2Ev
FNDA:0,_ZN7testing8internal12CodeLocationC1ERKNSt3__112basic_stringIcNS2_11char_traitsIcEENS2_9allocatorIcEEEEi
FNDA:0,_ZN7testing8internal12CodeLocationC2ERKNSt3__112basic_stringIcNS2_11char_traitsIcEENS2_9allocatorIcEEEEi
FNDA:0,_ZN7testing4Test13SetUpTestCaseEv
FNDA:0,_ZN7testing4Test16TearDownTestCaseEv
FNDA:0,_ZN7testing4Test5SetupEv
FNF:59
FNH:48
DA:8201,0
DA:8208,0
DA:8217,160
DA:8219,32
DA:8239,0
DA:8240,0
DA:18988,0
DA:18996,0
DA:19073,0
LF:9
LH:2
end_of_record
SF:/Users/usuario/Desktop/LabAlgo1/tp2/reunionesRemotas/tests/tonosDeVozElevados.cpp
FN:8,_ZN52tonosDeVozElevadosTEST_tonosDeVozElevadosValido_TestC1Ev
FN:8,_ZN52tonosDeVozElevadosTEST_tonosDeVozElevadosValido_Test8TestBodyEv
FN:8,_ZN52tonosDeVozElevadosTEST_tonosDeVozElevadosValido_TestC2Ev
FN:8,__cxx_global_var_init
FN:8,_ZN52tonosDeVozElevadosTEST_tonosDeVozElevadosValido_TestD2Ev
FN:8,_ZN52tonosDeVozElevadosTEST_tonosDeVozElevadosValido_TestD0Ev
FN:8,_ZN52tonosDeVozElevadosTEST_tonosDeVozElevadosValido_TestD1Ev
FN:18,_ZN53tonosDeVozElevadosTEST_tonosDeVozElevadosValido2_Test8TestBodyEv
FN:18,_ZN53tonosDeVozElevadosTEST_tonosDeVozElevadosValido2_TestD2Ev
FN:18,_ZN53tonosDeVozElevadosTEST_tonosDeVozElevadosValido2_TestD1Ev
FN:18,_ZN53tonosDeVozElevadosTEST_tonosDeVozElevadosValido2_TestD0Ev
FN:18,_ZN53tonosDeVozElevadosTEST_tonosDeVozElevadosValido2_TestC2Ev
FN:18,__cxx_global_var_init.5
FN:18,_ZN53tonosDeVozElevadosTEST_tonosDeVozElevadosValido2_TestC1Ev
FN:28,_ZN53tonosDeVozElevadosTEST_tonosDeVozElevadosValido3_TestC2Ev
FN:28,_ZN53tonosDeVozElevadosTEST_tonosDeVozElevadosValido3_TestC1Ev
FN:28,__cxx_global_var_init.9
FN:28,_ZN53tonosDeVozElevadosTEST_tonosDeVozElevadosValido3_TestD2Ev
FN:28,_ZN53tonosDeVozElevadosTEST_tonosDeVozElevadosValido3_TestD1Ev
FN:28,_ZN53tonosDeVozElevadosTEST_tonosDeVozElevadosValido3_Test8TestBodyEv
FN:28,_ZN53tonosDeVozElevadosTEST_tonosDeVozElevadosValido3_TestD0Ev
FN:39,_ZN53tonosDeVozElevadosTEST_tonosDeVozElevadosValido4_TestD2Ev
FN:39,_ZN53tonosDeVozElevadosTEST_tonosDeVozElevadosValido4_Test8TestBodyEv
FN:39,_ZN53tonosDeVozElevadosTEST_tonosDeVozElevadosValido4_TestC1Ev
FN:39,__cxx_global_var_init.14
FN:39,_ZN53tonosDeVozElevadosTEST_tonosDeVozElevadosValido4_TestD0Ev
FN:39,_ZN53tonosDeVozElevadosTEST_tonosDeVozElevadosValido4_TestD1Ev
FN:39,_ZN53tonosDeVozElevadosTEST_tonosDeVozElevadosValido4_TestC2Ev
FN:50,__cxx_global_var_init.19
FN:50,_ZN53tonosDeVozElevadosTEST_tonosDeVozElevadosValido5_Test8TestBodyEv
FN:50,_ZN53tonosDeVozElevadosTEST_tonosDeVozElevadosValido5_TestD0Ev
FN:50,_ZN53tonosDeVozElevadosTEST_tonosDeVozElevadosValido5_TestC1Ev
FN:50,_ZN53tonosDeVozElevadosTEST_tonosDeVozElevadosValido5_TestC2Ev
FN:50,_ZN53tonosDeVozElevadosTEST_tonosDeVozElevadosValido5_TestD2Ev
FN:50,_ZN53tonosDeVozElevadosTEST_tonosDeVozElevadosValido5_TestD1Ev
FN:61,_ZN53tonosDeVozElevadosTEST_tonosDeVozElevadosValido6_TestD0Ev
FN:61,__cxx_global_var_init.24
FN:61,_ZN53tonosDeVozElevadosTEST_tonosDeVozElevadosValido6_Test8TestBodyEv
FN:61,_ZN53tonosDeVozElevadosTEST_tonosDeVozElevadosValido6_TestD1Ev
FN:61,_ZN53tonosDeVozElevadosTEST_tonosDeVozElevadosValido6_TestC1Ev
FN:61,_ZN53tonosDeVozElevadosTEST_tonosDeVozElevadosValido6_TestC2Ev
FN:61,_ZN53tonosDeVozElevadosTEST_tonosDeVozElevadosValido6_TestD2Ev
FN:76,_ZN53tonosDeVozElevadosTEST_tonosDeVozElevadosValido7_TestC1Ev
FN:76,_ZN53tonosDeVozElevadosTEST_tonosDeVozElevadosValido7_Test8TestBodyEv
FN:76,__cxx_global_var_init.32
FN:76,_ZN53tonosDeVozElevadosTEST_tonosDeVozElevadosValido7_TestD2Ev
FN:76,_ZN53tonosDeVozElevadosTEST_tonosDeVozElevadosValido7_TestD1Ev
FN:76,_ZN53tonosDeVozElevadosTEST_tonosDeVozElevadosValido7_TestD0Ev
FN:76,_ZN53tonosDeVozElevadosTEST_tonosDeVozElevadosValido7_TestC2Ev
FN:91,_ZN53tonosDeVozElevadosTEST_tonosDeVozElevadosValido8_TestC1Ev
FN:91,_ZN53tonosDeVozElevadosTEST_tonosDeVozElevadosValido8_TestC2Ev
FN:91,_ZN53tonosDeVozElevadosTEST_tonosDeVozElevadosValido8_TestD0Ev
FN:91,__cxx_global_var_init.40
FN:91,_ZN53tonosDeVozElevadosTEST_tonosDeVozElevadosValido8_TestD2Ev
FN:91,_ZN53tonosDeVozElevadosTEST_tonosDeVozElevadosValido8_Test8TestBodyEv
FN:91,_ZN53tonosDeVozElevadosTEST_tonosDeVozElevadosValido8_TestD1Ev
FNDA:4,__cxx_global_var_init
FNDA:4,_ZN52tonosDeVozElevadosTEST_tonosDeVozElevadosValido_Test8TestBodyEv
FNDA:4,_ZN52tonosDeVozElevadosTEST_tonosDeVozElevadosValido_TestD1Ev
FNDA:4,_ZN52tonosDeVozElevadosTEST_tonosDeVozElevadosValido_TestD0Ev
FNDA:4,_ZN52tonosDeVozElevadosTEST_tonosDeVozElevadosValido_TestC1Ev
FNDA:4,_ZN52tonosDeVozElevadosTEST_tonosDeVozElevadosValido_TestC2Ev
FNDA:4,_ZN52tonosDeVozElevadosTEST_tonosDeVozElevadosValido_TestD2Ev
FNDA:4,__cxx_global_var_init.5
FNDA:4,_ZN53tonosDeVozElevadosTEST_tonosDeVozElevadosValido2_Test8TestBodyEv
FNDA:4,_ZN53tonosDeVozElevadosTEST_tonosDeVozElevadosValido2_TestD1Ev
FNDA:4,_ZN53tonosDeVozElevadosTEST_tonosDeVozElevadosValido2_TestD0Ev
FNDA:4,_ZN53tonosDeVozElevadosTEST_tonosDeVozElevadosValido2_TestC1Ev
FNDA:4,_ZN53tonosDeVozElevadosTEST_tonosDeVozElevadosValido2_TestC2Ev
FNDA:4,_ZN53tonosDeVozElevadosTEST_tonosDeVozElevadosValido2_TestD2Ev
FNDA:4,__cxx_global_var_init.9
FNDA:4,_ZN53tonosDeVozElevadosTEST_tonosDeVozElevadosValido3_Test8TestBodyEv
FNDA:4,_ZN53tonosDeVozElevadosTEST_tonosDeVozElevadosValido3_TestD1Ev
FNDA:4,_ZN53tonosDeVozElevadosTEST_tonosDeVozElevadosValido3_TestD0Ev
FNDA:4,_ZN53tonosDeVozElevadosTEST_tonosDeVozElevadosValido3_TestC1Ev
FNDA:4,_ZN53tonosDeVozElevadosTEST_tonosDeVozElevadosValido3_TestC2Ev
FNDA:4,_ZN53tonosDeVozElevadosTEST_tonosDeVozElevadosValido3_TestD2Ev
FNDA:4,__cxx_global_var_init.14
FNDA:4,_ZN53tonosDeVozElevadosTEST_tonosDeVozElevadosValido4_Test8TestBodyEv
FNDA:4,_ZN53tonosDeVozElevadosTEST_tonosDeVozElevadosValido4_TestD1Ev
FNDA:4,_ZN53tonosDeVozElevadosTEST_tonosDeVozElevadosValido4_TestD0Ev
FNDA:4,_ZN53tonosDeVozElevadosTEST_tonosDeVozElevadosValido4_TestC1Ev
FNDA:4,_ZN53tonosDeVozElevadosTEST_tonosDeVozElevadosValido4_TestC2Ev
FNDA:4,_ZN53tonosDeVozElevadosTEST_tonosDeVozElevadosValido4_TestD2Ev
FNDA:4,__cxx_global_var_init.19
FNDA:4,_ZN53tonosDeVozElevadosTEST_tonosDeVozElevadosValido5_Test8TestBodyEv
FNDA:4,_ZN53tonosDeVozElevadosTEST_tonosDeVozElevadosValido5_TestD1Ev
FNDA:4,_ZN53tonosDeVozElevadosTEST_tonosDeVozElevadosValido5_TestD0Ev
FNDA:4,_ZN53tonosDeVozElevadosTEST_tonosDeVozElevadosValido5_TestC1Ev
FNDA:4,_ZN53tonosDeVozElevadosTEST_tonosDeVozElevadosValido5_TestC2Ev
FNDA:4,_ZN53tonosDeVozElevadosTEST_tonosDeVozElevadosValido5_TestD2Ev
FNDA:4,__cxx_global_var_init.24
FNDA:4,_ZN53tonosDeVozElevadosTEST_tonosDeVozElevadosValido6_Test8TestBodyEv
FNDA:4,_ZN53tonosDeVozElevadosTEST_tonosDeVozElevadosValido6_TestD1Ev
FNDA:4,_ZN53tonosDeVozElevadosTEST_tonosDeVozElevadosValido6_TestD0Ev
FNDA:4,_ZN53tonosDeVozElevadosTEST_tonosDeVozElevadosValido6_TestC1Ev
FNDA:4,_ZN53tonosDeVozElevadosTEST_tonosDeVozElevadosValido6_TestC2Ev
FNDA:4,_ZN53tonosDeVozElevadosTEST_tonosDeVozElevadosValido6_TestD2Ev
FNDA:4,__cxx_global_var_init.32
FNDA:4,_ZN53tonosDeVozElevadosTEST_tonosDeVozElevadosValido7_Test8TestBodyEv
FNDA:4,_ZN53tonosDeVozElevadosTEST_tonosDeVozElevadosValido7_TestD1Ev
FNDA:4,_ZN53tonosDeVozElevadosTEST_tonosDeVozElevadosValido7_TestD0Ev
FNDA:4,_ZN53tonosDeVozElevadosTEST_tonosDeVozElevadosValido7_TestC1Ev
FNDA:4,_ZN53tonosDeVozElevadosTEST_tonosDeVozElevadosValido7_TestC2Ev
FNDA:4,_ZN53tonosDeVozElevadosTEST_tonosDeVozElevadosValido7_TestD2Ev
FNDA:4,__cxx_global_var_init.40
FNDA:4,_ZN53tonosDeVozElevadosTEST_tonosDeVozElevadosValido8_Test8TestBodyEv
FNDA:4,_ZN53tonosDeVozElevadosTEST_tonosDeVozElevadosValido8_TestD1Ev
FNDA:4,_ZN53tonosDeVozElevadosTEST_tonosDeVozElevadosValido8_TestD0Ev
FNDA:4,_ZN53tonosDeVozElevadosTEST_tonosDeVozElevadosValido8_TestC1Ev
FNDA:4,_ZN53tonosDeVozElevadosTEST_tonosDeVozElevadosValido8_TestC2Ev
FNDA:4,_ZN53tonosDeVozElevadosTEST_tonosDeVozElevadosValido8_TestD2Ev
FNF:56
FNH:56
DA:8,28
DA:9,4
DA:10,4
DA:11,8
DA:12,4
DA:13,4
DA:15,4
DA:16,4
DA:18,28
DA:20,4
DA:21,4
DA:22,4
DA:23,4
DA:25,4
DA:26,4
DA:28,28
DA:30,4
DA:31,4
DA:32,8
DA:33,4
DA:34,4
DA:36,4
DA:37,4
DA:39,28
DA:41,4
DA:42,4
DA:43,8
DA:44,4
DA:45,4
DA:47,4
DA:48,4
DA:50,28
DA:52,4
DA:53,4
DA:54,8
DA:55,4
DA:56,4
DA:58,4
DA:59,4
DA:61,28
DA:63,4
DA:64,4
DA:65,4
DA:66,4
DA:67,4
DA:69,20
DA:70,4
DA:71,4
DA:73,4
DA:74,4
DA:76,28
DA:78,4
DA:79,4
DA:80,4
DA:81,4
DA:82,4
DA:84,20
DA:85,4
DA:86,4
DA:88,4
DA:89,4
DA:91,28
DA:93,4
DA:94,4
DA:95,4
DA:96,4
DA:97,4
DA:99,20
DA:100,4
DA:101,4
DA:103,4
DA:104,4
LF:72
LH:72
end_of_record
TN:
SF:/Library/Developer/CommandLineTools/usr/include/c++/v1/__string
FN:218,_ZNSt3__111char_traitsIcE6lengthEPKc
FNDA:0,_ZNSt3__111char_traitsIcE6lengthEPKc
FNF:1
FNH:0
DA:218,0
LF:1
LH:0
end_of_record
SF:/Library/Developer/CommandLineTools/usr/include/c++/v1/algorithm
FN:716,_ZNKSt3__16__lessImmEclERKmS3_
FN:2454,_ZNSt3__1L3minImNS_6__lessImmEEEERKT_S5_S5_T0_
FN:2462,_ZNSt3__1L3minImEERKT_S3_S3_
FNDA:0,_ZNKSt3__16__lessImmEclERKmS3_
FNDA:0,_ZNSt3__1L3minImNS_6__lessImmEEEERKT_S5_S5_T0_
FNDA:0,_ZNSt3__1L3minImEERKT_S3_S3_
FNF:3
FNH:0
DA:716,0
DA:2454,0
DA:2456,0
DA:2462,0
DA:2464,0
LF:5
LH:0
end_of_record
SF:/Library/Developer/CommandLineTools/usr/include/c++/v1/initializer_list
FN:85,_ZNKSt16initializer_listIiE4sizeEv
FN:85,_ZNKSt16initializer_listINSt3__14pairINS0_6vectorIiNS0_9allocatorIiEEEEiEEE4sizeEv
FN:89,_ZNKSt16initializer_listINSt3__14pairINS0_6vectorIiNS0_9allocatorIiEEEEiEEE5beginEv
FN:89,_ZNKSt16initializer_listIiE5beginEv
FN:93,_ZNKSt16initializer_listINSt3__14pairINS0_6vectorIiNS0_9allocatorIiEEEEiEEE3endEv
FN:93,_ZNKSt16initializer_listIiE3endEv
FNDA:144,_ZNKSt16initializer_listIiE4sizeEv
FNDA:60,_ZNKSt16initializer_listINSt3__14pairINS0_6vectorIiNS0_9allocatorIiEEEEiEEE4sizeEv
FNDA:48,_ZNKSt16initializer_listIiE5beginEv
FNDA:20,_ZNKSt16initializer_listINSt3__14pairINS0_6vectorIiNS0_9allocatorIiEEEEiEEE5beginEv
FNDA:48,_ZNKSt16initializer_listIiE3endEv
FNDA:20,_ZNKSt16initializer_listINSt3__14pairINS0_6vectorIiNS0_9allocatorIiEEEEiEEE3endEv
FNF:6
FNH:6
DA:85,204
DA:89,68
DA:93,68
LF:3
LH:3
end_of_record
SF:/Library/Developer/CommandLineTools/usr/include/c++/v1/limits
FN:215,_ZNSt3__123__libcpp_numeric_limitsIlLb1EE3maxEv
FN:452,_ZNSt3__114numeric_limitsIlE3maxEv
FNDA:0,_ZNSt3__123__libcpp_numeric_limitsIlLb1EE3maxEv
FNDA:0,_ZNSt3__114numeric_limitsIlE3maxEv
FNF:2
FNH:0
DA:215,0
DA:452,0
LF:2
LH:0
end_of_record
SF:/Library/Developer/CommandLineTools/usr/include/c++/v1/memory
FN:988,_ZNSt3__114pointer_traitsIPKcE10pointer_toERS1_
FN:1106,_ZNSt3__1L16__to_raw_pointerIKcEEPT_S3_
FN:1106,_ZNSt3__1L16__to_raw_pointerIiEEPT_S2_
FN:1106,_ZNSt3__1L16__to_raw_pointerINS_4pairINS_6vectorIiNS_9allocatorIiEEEEiEEEEPT_S8_
FN:1546,_ZNSt3__116allocator_traitsINS_9allocatorIiEEE8allocateERS2_m
FN:1546,_ZNSt3__116allocator_traitsINS_9allocatorINS_4pairINS_6vectorIiNS1_IiEEEEiEEEEE8allocateERS7_m
FN:1554,_ZNSt3__116allocator_traitsINS_9allocatorIiEEE10deallocateERS2_Pim
FN:1554,_ZNSt3__116allocator_traitsINS_9allocatorINS_4pairINS_6vectorIiNS1_IiEEEEiEEEEE10deallocateERS7_PS6_m
FN:1560,_ZNSt3__116allocator_traitsINS_9allocatorINS_4pairINS_6vectorIiNS1_IiEEEEiEEEEE9constructIS6_JRKS6_EEEvRS7_PT_DpOT0_
FN:1560,_ZNSt3__116allocator_traitsINS_9allocatorINS_4pairINS_6vectorIiNS1_IiEEEEiEEEEE9constructIS6_JRS6_EEEvRS7_PT_DpOT0_
FN:1595,_ZNSt3__116allocator_traitsINS_9allocatorINS_4pairINS_6vectorIiNS1_IiEEEEiEEEEE7destroyIS6_EEvRS7_PT_
FN:1595,_ZNSt3__116allocator_traitsINS_9allocatorIiEEE7destroyIiEEvRS2_PT_
FN:1599,_ZNSt3__116allocator_traitsINS_9allocatorINS_4pairINS_6vectorIiNS1_IiEEEEiEEEEE8max_sizeERKS7_
FN:1599,_ZNSt3__116allocator_traitsINS_9allocatorIiEEE8max_sizeERKS2_
FN:1604,_ZNSt3__116allocator_traitsINS_9allocatorIiEEE37select_on_container_copy_constructionERKS2_
FN:1604,_ZNSt3__116allocator_traitsINS_9allocatorINS_4pairINS_6vectorIiNS1_IiEEEEiEEEEE37select_on_container_copy_constructionERKS7_
FN:1643,_ZNSt3__116allocator_traitsINS_9allocatorINS_4pairINS_6vectorIiNS1_IiEEEEiEEEEE25__construct_range_forwardIPS6_SA_EEvRS7_T_SC_RT0_
FN:1643,_ZNSt3__116allocator_traitsINS_9allocatorINS_4pairINS_6vectorIiNS1_IiEEEEiEEEEE25__construct_range_forwardIPKS6_PS6_EEvRS7_T_SE_RT0_
FN:1662,_ZNSt3__116allocator_traitsINS_9allocatorIiEEE25__construct_range_forwardIKiiiiEENS_9enable_ifIXaaaasr31is_trivially_move_constructibleIT0_EE5valuesr7is_sameIT1_T2_EE5valueooL_ZNS_17integral_constantIbLb1EE5valueEEntsr15__has_constructIS2_PS7_RT_EE5valueEvE4typeERS2_PSD_SI_RSC_
FN:1662,_ZNSt3__116allocator_traitsINS_9allocatorIiEEE25__construct_range_forwardIiiiiEENS_9enable_ifIXaaaasr31is_trivially_move_constructibleIT0_EE5valuesr7is_sameIT1_T2_EE5valueooL_ZNS_17integral_constantIbLb1EE5valueEEntsr15__has_constructIS2_PS6_RT_EE5valueEvE4typeERS2_PSC_SH_RSB_
FN:1717,_ZNSt3__116allocator_traitsINS_9allocatorINS_4pairINS_6vectorIiNS1_IiEEEEiEEEEE11__constructIS6_JRKS6_EEEvNS_17integral_constantIbLb1EEERS7_PT_DpOT0_
FN:1717,_ZNSt3__116allocator_traitsINS_9allocatorINS_4pairINS_6vectorIiNS1_IiEEEEiEEEEE11__constructIS6_JRS6_EEEvNS_17integral_constantIbLb1EEERS7_PT_DpOT0_
FN:1742,_ZNSt3__116allocator_traitsINS_9allocatorIiEEE9__destroyIiEEvNS_17integral_constantIbLb1EEERS2_PT_
FN:1742,_ZNSt3__116allocator_traitsINS_9allocatorINS_4pairINS_6vectorIiNS1_IiEEEEiEEEEE9__destroyIS6_EEvNS_17integral_constantIbLb1EEERS7_PT_
FN:1752,_ZNSt3__116allocator_traitsINS_9allocatorINS_4pairINS_6vectorIiNS1_IiEEEEiEEEEE10__max_sizeENS_17integral_constantIbLb1EEERKS7_
FN:1752,_ZNSt3__116allocator_traitsINS_9allocatorIiEEE10__max_sizeENS_17integral_constantIbLb1EEERKS2_
FN:1764,_ZNSt3__116allocator_traitsINS_9allocatorINS_4pairINS_6vectorIiNS1_IiEEEEiEEEEE39__select_on_container_copy_constructionENS_17integral_constantIbLb0EEERKS7_
FN:1764,_ZNSt3__116allocator_traitsINS_9allocatorIiEEE39__select_on_container_copy_constructionENS_17integral_constantIbLb0EEERKS2_
FN:1798,_ZNSt3__19allocatorINS_4pairINS_6vectorIiNS0_IiEEEEiEEEC2Ev
FN:1798,_ZNSt3__19allocatorIcEC2Ev
FN:1798,_ZNSt3__19allocatorIiEC2Ev
FN:1809,_ZNSt3__19allocatorINS_4pairINS_6vectorIiNS0_IiEEEEiEEE8allocateEmPKv
FN:1809,_ZNSt3__19allocatorIiE8allocateEmPKv
FN:1816,_ZNSt3__19allocatorINS_4pairINS_6vectorIiNS0_IiEEEEiEEE10deallocateEPS5_m
FN:1816,_ZNSt3__19allocatorIiE10deallocateEPim
FN:1818,_ZNKSt3__19allocatorIiE8max_sizeEv
FN:1818,_ZNKSt3__19allocatorINS_4pairINS_6vectorIiNS0_IiEEEEiEEE8max_sizeEv
FN:1824,_ZNSt3__19allocatorINS_4pairINS_6vectorIiNS0_IiEEEEiEEE9constructIS5_JRS5_EEEvPT_DpOT0_
FN:1824,_ZNSt3__19allocatorINS_4pairINS_6vectorIiNS0_IiEEEEiEEE9constructIS5_JRKS5_EEEvPT_DpOT0_
FN:1881,_ZNSt3__19allocatorIiE7destroyEPi
FN:1881,_ZNSt3__19allocatorINS_4pairINS_6vectorIiNS0_IiEEEEiEEE7destroyEPS5_
FN:2140,_ZNSt3__122__compressed_pair_elemINS_12basic_stringIcNS_11char_traitsIcEENS_9allocatorIcEEE5__repELi0ELb0EEC2Ev
FN:2147,_ZNSt3__122__compressed_pair_elemIPiLi0ELb0EEC2IDnvEEOT_
FN:2147,_ZNSt3__122__compressed_pair_elemIPNS_4pairINS_6vectorIiNS_9allocatorIiEEEEiEELi0ELb0EEC2IDnvEEOT_
FN:2163,_ZNSt3__122__compressed_pair_elemIPiLi0ELb0EE5__getEv
FN:2163,_ZNSt3__122__compressed_pair_elemIPNS_4pairINS_6vectorIiNS_9allocatorIiEEEEiEELi0ELb0EE5__getEv
FN:2165,_ZNKSt3__122__compressed_pair_elemIPiLi0ELb0EE5__getEv
FN:2165,_ZNKSt3__122__compressed_pair_elemIPNS_4pairINS_6vectorIiNS_9allocatorIiEEEEiEELi0ELb0EE5__getEv
FN:2165,_ZNKSt3__122__compressed_pair_elemINS_12basic_stringIcNS_11char_traitsIcEENS_9allocatorIcEEE5__repELi0ELb0EE5__getEv
FN:2179,_ZNSt3__122__compressed_pair_elemINS_9allocatorIcEELi1ELb1EEC2Ev
FN:2179,_ZNSt3__122__compressed_pair_elemINS_9allocatorIiEELi1ELb1EEC2Ev
FN:2179,_ZNSt3__122__compressed_pair_elemINS_9allocatorINS_4pairINS_6vectorIiNS1_IiEEEEiEEEELi1ELb1EEC2Ev
FN:2186,_ZNSt3__122__compressed_pair_elemINS_9allocatorIiEELi1ELb1EEC2IS2_vEEOT_
FN:2186,_ZNSt3__122__compressed_pair_elemINS_9allocatorINS_4pairINS_6vectorIiNS1_IiEEEEiEEEELi1ELb1EEC2IS7_vEEOT_
FN:2202,_ZNSt3__122__compressed_pair_elemINS_9allocatorINS_4pairINS_6vectorIiNS1_IiEEEEiEEEELi1ELb1EE5__getEv
FN:2202,_ZNSt3__122__compressed_pair_elemINS_9allocatorIiEELi1ELb1EE5__getEv
FN:2204,_ZNKSt3__122__compressed_pair_elemINS_9allocatorINS_4pairINS_6vectorIiNS1_IiEEEEiEEEELi1ELb1EE5__getEv
FN:2204,_ZNKSt3__122__compressed_pair_elemINS_9allocatorIiEELi1ELb1EE5__getEv
FN:2234,_ZNSt3__117__compressed_pairINS_12basic_stringIcNS_11char_traitsIcEENS_9allocatorIcEEE5__repES5_EC1ILb1EvEEv
FN:2234,_ZNSt3__117__compressed_pairINS_12basic_stringIcNS_11char_traitsIcEENS_9allocatorIcEEE5__repES5_EC2ILb1EvEEv
FN:2240,_ZNSt3__117__compressed_pairIPNS_4pairINS_6vectorIiNS_9allocatorIiEEEEiEENS3_IS6_EEEC2IDnLb1EEEOT_
FN:2240,_ZNSt3__117__compressed_pairIPiNS_9allocatorIiEEEC1IDnLb1EEEOT_
FN:2240,_ZNSt3__117__compressed_pairIPNS_4pairINS_6vectorIiNS_9allocatorIiEEEEiEENS3_IS6_EEEC1IDnLb1EEEOT_
FN:2240,_ZNSt3__117__compressed_pairIPiNS_9allocatorIiEEEC2IDnLb1EEEOT_
FN:2250,_ZNSt3__117__compressed_pairIPiNS_9allocatorIiEEEC1IDnS3_EEOT_OT0_
FN:2250,_ZNSt3__117__compressed_pairIPNS_4pairINS_6vectorIiNS_9allocatorIiEEEEiEENS3_IS6_EEEC2IDnS8_EEOT_OT0_
FN:2250,_ZNSt3__117__compressed_pairIPNS_4pairINS_6vectorIiNS_9allocatorIiEEEEiEENS3_IS6_EEEC1IDnS8_EEOT_OT0_
FN:2250,_ZNSt3__117__compressed_pairIPiNS_9allocatorIiEEEC2IDnS3_EEOT_OT0_
FN:2279,_ZNSt3__117__compressed_pairIPiNS_9allocatorIiEEE5firstEv
FN:2279,_ZNSt3__117__compressed_pairIPNS_4pairINS_6vectorIiNS_9allocatorIiEEEEiEENS3_IS6_EEE5firstEv
FN:2284,_ZNKSt3__117__compressed_pairIPNS_4pairINS_6vectorIiNS_9allocatorIiEEEEiEENS3_IS6_EEE5firstEv
FN:2284,_ZNKSt3__117__compressed_pairIPiNS_9allocatorIiEEE5firstEv
FN:2284,_ZNKSt3__117__compressed_pairINS_12basic_stringIcNS_11char_traitsIcEENS_9allocatorIcEEE5__repES5_E5firstEv
FN:2289,_ZNSt3__117__compressed_pairIPNS_4pairINS_6vectorIiNS_9allocatorIiEEEEiEENS3_IS6_EEE6secondEv
FN:2289,_ZNSt3__117__compressed_pairIPiNS_9allocatorIiEEE6secondEv
FN:2294,_ZNKSt3__117__compressed_pairIPNS_4pairINS_6vectorIiNS_9allocatorIiEEEEiEENS3_IS6_EEE6secondEv
FN:2294,_ZNKSt3__117__compressed_pairIPiNS_9allocatorIiEEE6secondEv
FNDA:0,_ZNSt3__114pointer_traitsIPKcE10pointer_toERS1_
FNDA:0,_ZNSt3__1L16__to_raw_pointerIKcEEPT_S3_
FNDA:192,_ZNSt3__1L16__to_raw_pointerIiEEPT_S2_
FNDA:160,_ZNSt3__1L16__to_raw_pointerINS_4pairINS_6vectorIiNS_9allocatorIiEEEEiEEEEPT_S8_
FNDA:0,_ZNSt3__116allocator_traitsINS_9allocatorIiEEE8allocateERS2_m
FNDA:0,_ZNSt3__116allocator_traitsINS_9allocatorINS_4pairINS_6vectorIiNS1_IiEEEEiEEEEE8allocateERS7_m
FNDA:0,_ZNSt3__116allocator_traitsINS_9allocatorIiEEE10deallocateERS2_Pim
FNDA:0,_ZNSt3__116allocator_traitsINS_9allocatorINS_4pairINS_6vectorIiNS1_IiEEEEiEEEEE10deallocateERS7_PS6_m
FNDA:0,_ZNSt3__116allocator_traitsINS_9allocatorINS_4pairINS_6vectorIiNS1_IiEEEEiEEEEE9constructIS6_JRKS6_EEEvRS7_PT_DpOT0_
FNDA:0,_ZNSt3__116allocator_traitsINS_9allocatorINS_4pairINS_6vectorIiNS1_IiEEEEiEEEEE9constructIS6_JRS6_EEEvRS7_PT_DpOT0_
FNDA:0,_ZNSt3__116allocator_traitsINS_9allocatorIiEEE7destroyIiEEvRS2_PT_
FNDA:0,_ZNSt3__116allocator_traitsINS_9allocatorINS_4pairINS_6vectorIiNS1_IiEEEEiEEEEE7destroyIS6_EEvRS7_PT_
FNDA:0,_ZNSt3__116allocator_traitsINS_9allocatorIiEEE8max_sizeERKS2_
FNDA:0,_ZNSt3__116allocator_traitsINS_9allocatorINS_4pairINS_6vectorIiNS1_IiEEEEiEEEEE8max_sizeERKS7_
FNDA:0,_ZNSt3__116allocator_traitsINS_9allocatorIiEEE37select_on_container_copy_constructionERKS2_
FNDA:0,_ZNSt3__116allocator_traitsINS_9allocatorINS_4pairINS_6vectorIiNS1_IiEEEEiEEEEE37select_on_container_copy_constructionERKS7_
FNDA:0,_ZNSt3__116allocator_traitsINS_9allocatorINS_4pairINS_6vectorIiNS1_IiEEEEiEEEEE25__construct_range_forwardIPKS6_PS6_EEvRS7_T_SE_RT0_
FNDA:0,_ZNSt3__116allocator_traitsINS_9allocatorINS_4pairINS_6vectorIiNS1_IiEEEEiEEEEE25__construct_range_forwardIPS6_SA_EEvRS7_T_SC_RT0_
FNDA:0,_ZNSt3__116allocator_traitsINS_9allocatorIiEEE25__construct_range_forwardIKiiiiEENS_9enable_ifIXaaaasr31is_trivially_move_constructibleIT0_EE5valuesr7is_sameIT1_T2_EE5valueooL_ZNS_17integral_constantIbLb1EE5valueEEntsr15__has_constructIS2_PS7_RT_EE5valueEvE4typeERS2_PSD_SI_RSC_
FNDA:0,_ZNSt3__116allocator_traitsINS_9allocatorIiEEE25__construct_range_forwardIiiiiEENS_9enable_ifIXaaaasr31is_trivially_move_constructibleIT0_EE5valuesr7is_sameIT1_T2_EE5valueooL_ZNS_17integral_constantIbLb1EE5valueEEntsr15__has_constructIS2_PS6_RT_EE5valueEvE4typeERS2_PSC_SH_RSB_
FNDA:0,_ZNSt3__116allocator_traitsINS_9allocatorINS_4pairINS_6vectorIiNS1_IiEEEEiEEEEE11__constructIS6_JRKS6_EEEvNS_17integral_constantIbLb1EEERS7_PT_DpOT0_
FNDA:0,_ZNSt3__116allocator_traitsINS_9allocatorINS_4pairINS_6vectorIiNS1_IiEEEEiEEEEE11__constructIS6_JRS6_EEEvNS_17integral_constantIbLb1EEERS7_PT_DpOT0_
FNDA:0,_ZNSt3__116allocator_traitsINS_9allocatorIiEEE9__destroyIiEEvNS_17integral_constantIbLb1EEERS2_PT_
FNDA:0,_ZNSt3__116allocator_traitsINS_9allocatorINS_4pairINS_6vectorIiNS1_IiEEEEiEEEEE9__destroyIS6_EEvNS_17integral_constantIbLb1EEERS7_PT_
FNDA:0,_ZNSt3__116allocator_traitsINS_9allocatorIiEEE10__max_sizeENS_17integral_constantIbLb1EEERKS2_
FNDA:0,_ZNSt3__116allocator_traitsINS_9allocatorINS_4pairINS_6vectorIiNS1_IiEEEEiEEEEE10__max_sizeENS_17integral_constantIbLb1EEERKS7_
FNDA:0,_ZNSt3__116allocator_traitsINS_9allocatorIiEEE39__select_on_container_copy_constructionENS_17integral_constantIbLb0EEERKS2_
FNDA:0,_ZNSt3__116allocator_traitsINS_9allocatorINS_4pairINS_6vectorIiNS1_IiEEEEiEEEEE39__select_on_container_copy_constructionENS_17integral_constantIbLb0EEERKS7_
FNDA:20,_ZNSt3__19allocatorIcEC2Ev
FNDA:48,_ZNSt3__19allocatorIiEC2Ev
FNDA:20,_ZNSt3__19allocatorINS_4pairINS_6vectorIiNS0_IiEEEEiEEEC2Ev
FNDA:0,_ZNSt3__19allocatorIiE8allocateEmPKv
FNDA:0,_ZNSt3__19allocatorINS_4pairINS_6vectorIiNS0_IiEEEEiEEE8allocateEmPKv
FNDA:0,_ZNSt3__19allocatorIiE10deallocateEPim
FNDA:0,_ZNSt3__19allocatorINS_4pairINS_6vectorIiNS0_IiEEEEiEEE10deallocateEPS5_m
FNDA:0,_ZNKSt3__19allocatorIiE8max_sizeEv
FNDA:0,_ZNKSt3__19allocatorINS_4pairINS_6vectorIiNS0_IiEEEEiEEE8max_sizeEv
FNDA:0,_ZNSt3__19allocatorINS_4pairINS_6vectorIiNS0_IiEEEEiEEE9constructIS5_JRKS5_EEEvPT_DpOT0_
FNDA:0,_ZNSt3__19allocatorINS_4pairINS_6vectorIiNS0_IiEEEEiEEE9constructIS5_JRS5_EEEvPT_DpOT0_
FNDA:0,_ZNSt3__19allocatorIiE7destroyEPi
FNDA:0,_ZNSt3__19allocatorINS_4pairINS_6vectorIiNS0_IiEEEEiEEE7destroyEPS5_
FNDA:20,_ZNSt3__122__compressed_pair_elemINS_12basic_stringIcNS_11char_traitsIcEENS_9allocatorIcEEE5__repELi0ELb0EEC2Ev
FNDA:48,_ZNSt3__122__compressed_pair_elemIPiLi0ELb0EEC2IDnvEEOT_
FNDA:20,_ZNSt3__122__compressed_pair_elemIPNS_4pairINS_6vectorIiNS_9allocatorIiEEEEiEELi0ELb0EEC2IDnvEEOT_
FNDA:0,_ZNSt3__122__compressed_pair_elemIPiLi0ELb0EE5__getEv
FNDA:0,_ZNSt3__122__compressed_pair_elemIPNS_4pairINS_6vectorIiNS_9allocatorIiEEEEiEELi0ELb0EE5__getEv
FNDA:0,_ZNKSt3__122__compressed_pair_elemINS_12basic_stringIcNS_11char_traitsIcEENS_9allocatorIcEEE5__repELi0ELb0EE5__getEv
FNDA:96,_ZNKSt3__122__compressed_pair_elemIPiLi0ELb0EE5__getEv
FNDA:80,_ZNKSt3__122__compressed_pair_elemIPNS_4pairINS_6vectorIiNS_9allocatorIiEEEEiEELi0ELb0EE5__getEv
FNDA:20,_ZNSt3__122__compressed_pair_elemINS_9allocatorIcEELi1ELb1EEC2Ev
FNDA:48,_ZNSt3__122__compressed_pair_elemINS_9allocatorIiEELi1ELb1EEC2Ev
FNDA:20,_ZNSt3__122__compressed_pair_elemINS_9allocatorINS_4pairINS_6vectorIiNS1_IiEEEEiEEEELi1ELb1EEC2Ev
FNDA:0,_ZNSt3__122__compressed_pair_elemINS_9allocatorIiEELi1ELb1EEC2IS2_vEEOT_
FNDA:0,_ZNSt3__122__compressed_pair_elemINS_9allocatorINS_4pairINS_6vectorIiNS1_IiEEEEiEEEELi1ELb1EEC2IS7_vEEOT_
FNDA:0,_ZNSt3__122__compressed_pair_elemINS_9allocatorIiEELi1ELb1EE5__getEv
FNDA:0,_ZNSt3__122__compressed_pair_elemINS_9allocatorINS_4pairINS_6vectorIiNS1_IiEEEEiEEEELi1ELb1EE5__getEv
FNDA:0,_ZNKSt3__122__compressed_pair_elemINS_9allocatorIiEELi1ELb1EE5__getEv
FNDA:0,_ZNKSt3__122__compressed_pair_elemINS_9allocatorINS_4pairINS_6vectorIiNS1_IiEEEEiEEEELi1ELb1EE5__getEv
FNDA:20,_ZNSt3__117__compressed_pairINS_12basic_stringIcNS_11char_traitsIcEENS_9allocatorIcEEE5__repES5_EC1ILb1EvEEv
FNDA:20,_ZNSt3__117__compressed_pairINS_12basic_stringIcNS_11char_traitsIcEENS_9allocatorIcEEE5__repES5_EC2ILb1EvEEv
FNDA:48,_ZNSt3__117__compressed_pairIPiNS_9allocatorIiEEEC1IDnLb1EEEOT_
FNDA:48,_ZNSt3__117__compressed_pairIPiNS_9allocatorIiEEEC2IDnLb1EEEOT_
FNDA:20,_ZNSt3__117__compressed_pairIPNS_4pairINS_6vectorIiNS_9allocatorIiEEEEiEENS3_IS6_EEEC1IDnLb1EEEOT_
FNDA:20,_ZNSt3__117__compressed_pairIPNS_4pairINS_6vectorIiNS_9allocatorIiEEEEiEENS3_IS6_EEEC2IDnLb1EEEOT_
FNDA:0,_ZNSt3__117__compressed_pairIPiNS_9allocatorIiEEEC1IDnS3_EEOT_OT0_
FNDA:0,_ZNSt3__117__compressed_pairIPiNS_9allocatorIiEEEC2IDnS3_EEOT_OT0_
FNDA:0,_ZNSt3__117__compressed_pairIPNS_4pairINS_6vectorIiNS_9allocatorIiEEEEiEENS3_IS6_EEEC1IDnS8_EEOT_OT0_
FNDA:0,_ZNSt3__117__compressed_pairIPNS_4pairINS_6vectorIiNS_9allocatorIiEEEEiEENS3_IS6_EEEC2IDnS8_EEOT_OT0_
FNDA:0,_ZNSt3__117__compressed_pairIPiNS_9allocatorIiEEE5firstEv
FNDA:0,_ZNSt3__117__compressed_pairIPNS_4pairINS_6vectorIiNS_9allocatorIiEEEEiEENS3_IS6_EEE5firstEv
FNDA:0,_ZNKSt3__117__compressed_pairINS_12basic_stringIcNS_11char_traitsIcEENS_9allocatorIcEEE5__repES5_E5firstEv
FNDA:96,_ZNKSt3__117__compressed_pairIPiNS_9allocatorIiEEE5firstEv
FNDA:80,_ZNKSt3__117__compressed_pairIPNS_4pairINS_6vectorIiNS_9allocatorIiEEEEiEENS3_IS6_EEE5firstEv
FNDA:0,_ZNSt3__117__compressed_pairIPiNS_9allocatorIiEEE6secondEv
FNDA:0,_ZNSt3__117__compressed_pairIPNS_4pairINS_6vectorIiNS_9allocatorIiEEEEiEENS3_IS6_EEE6secondEv
FNDA:0,_ZNKSt3__117__compressed_pairIPiNS_9allocatorIiEEE6secondEv
FNDA:0,_ZNKSt3__117__compressed_pairIPNS_4pairINS_6vectorIiNS_9allocatorIiEEEEiEENS3_IS6_EEE6secondEv
FNF:77
FNH:21
DA:988,0
DA:990,0
DA:1106,352
DA:1108,352
DA:1546,0
DA:1547,0
DA:1554,0
DA:1555,0
DA:1560,0
DA:1561,0
DA:1562,0
DA:1595,0
DA:1596,0
DA:1599,0
DA:1600,0
DA:1604,0
DA:1605,0
DA:1606,0
DA:1607,0
DA:1643,0
DA:1645,0
DA:1646,0
DA:1647,0
DA:1662,0
DA:1664,0
DA:1665,0
DA:1667,0
DA:1668,0
DA:1669,0
DA:1670,0
DA:1717,0
DA:1718,0
DA:1742,0
DA:1743,0
DA:1752,0
DA:1753,0
DA:1764,0
DA:1765,0
DA:1798,88
DA:1809,0
DA:1811,0
DA:1812,0
DA:1814,0
DA:1816,0
DA:1817,0
DA:1818,0
DA:1819,0
DA:1824,0
DA:1826,0
DA:1827,0
DA:1881,0
DA:2140,20
DA:2147,68
DA:2148,68
DA:2150,68
DA:2163,0
DA:2165,176
DA:2179,88
DA:2186,0
DA:2187,0
DA:2188,0
DA:2202,0
DA:2204,0
DA:2234,40
DA:2240,136
DA:2241,136
DA:2250,0
DA:2251,0
DA:2279,0
DA:2280,0
DA:2284,176
DA:2285,176
DA:2289,0
DA:2290,0
DA:2294,0
DA:2295,0
LF:76
LH:14
end_of_record
SF:/Library/Developer/CommandLineTools/usr/include/c++/v1/new
FN:223,_ZNSt3__1L17__libcpp_allocateEmm
FN:245,_ZNSt3__117_DeallocateCaller33__do_deallocate_handle_size_alignEPvmm
FN:275,_ZNSt3__117_DeallocateCaller27__do_deallocate_handle_sizeEPvm
FN:316,_ZNSt3__117_DeallocateCaller9__do_callEPv
FN:325,_ZNSt3__1L19__libcpp_deallocateEPvmm
FNDA:0,_ZNSt3__1L17__libcpp_allocateEmm
FNDA:0,_ZNSt3__117_DeallocateCaller33__do_deallocate_handle_size_alignEPvmm
FNDA:0,_ZNSt3__117_DeallocateCaller27__do_deallocate_handle_sizeEPvm
FNDA:0,_ZNSt3__117_DeallocateCaller9__do_callEPv
FNDA:0,_ZNSt3__1L19__libcpp_deallocateEPvmm
FNF:5
FNH:0
DA:223,0
DA:239,0
DA:245,0
DA:248,0
DA:275,0
DA:278,0
DA:316,0
DA:320,0
DA:325,0
DA:326,0
DA:327,0
LF:11
LH:0
end_of_record
SF:/Library/Developer/CommandLineTools/usr/include/c++/v1/stdexcept
FN:136,_ZNSt12length_errorC2EPKc
FN:136,_ZNSt12length_errorC1EPKc
FN:222,_ZNSt3__1L20__throw_length_errorEPKc
FNDA:0,_ZNSt12length_errorC1EPKc
FNDA:0,_ZNSt12length_errorC2EPKc
FNDA:0,_ZNSt3__1L20__throw_length_errorEPKc
FNF:3
FNH:0
DA:136,0
DA:222,0
DA:225,0
DA:230,0
LF:4
LH:0
end_of_record
SF:/Library/Developer/CommandLineTools/usr/include/c++/v1/string
FN:818,_ZNSt3__112basic_stringIcNS_11char_traitsIcEENS_9allocatorIcEEEC1IDnEEPKc
FN:818,_ZNSt3__112basic_stringIcNS_11char_traitsIcEENS_9allocatorIcEEEC2IDnEEPKc
FN:1241,_ZNKSt3__112basic_stringIcNS_11char_traitsIcEENS_9allocatorIcEEE5c_strEv
FN:1243,_ZNKSt3__112basic_stringIcNS_11char_traitsIcEENS_9allocatorIcEEE4dataEv
FN:1420,_ZNKSt3__112basic_stringIcNS_11char_traitsIcEENS_9allocatorIcEEE9__is_longEv
FN:1502,_ZNKSt3__112basic_stringIcNS_11char_traitsIcEENS_9allocatorIcEEE18__get_long_pointerEv
FN:1508,_ZNKSt3__112basic_stringIcNS_11char_traitsIcEENS_9allocatorIcEEE19__get_short_pointerEv
FN:1514,_ZNKSt3__112basic_stringIcNS_11char_traitsIcEENS_9allocatorIcEEE13__get_pointerEv
FNDA:20,_ZNSt3__112basic_stringIcNS_11char_traitsIcEENS_9allocatorIcEEEC1IDnEEPKc
FNDA:20,_ZNSt3__112basic_stringIcNS_11char_traitsIcEENS_9allocatorIcEEEC2IDnEEPKc
FNDA:0,_ZNKSt3__112basic_stringIcNS_11char_traitsIcEENS_9allocatorIcEEE5c_strEv
FNDA:0,_ZNKSt3__112basic_stringIcNS_11char_traitsIcEENS_9allocatorIcEEE4dataEv
FNDA:0,_ZNKSt3__112basic_stringIcNS_11char_traitsIcEENS_9allocatorIcEEE9__is_longEv
FNDA:0,_ZNKSt3__112basic_stringIcNS_11char_traitsIcEENS_9allocatorIcEEE18__get_long_pointerEv
FNDA:0,_ZNKSt3__112basic_stringIcNS_11char_traitsIcEENS_9allocatorIcEEE19__get_short_pointerEv
FNDA:0,_ZNKSt3__112basic_stringIcNS_11char_traitsIcEENS_9allocatorIcEEE13__get_pointerEv
FNF:8
FNH:2
DA:818,40
DA:820,20
DA:824,40
DA:1241,0
DA:1243,0
DA:1420,0
DA:1421,0
DA:1502,0
DA:1503,0
DA:1508,0
DA:1509,0
DA:1514,0
DA:1515,0
LF:13
LH:3
end_of_record
SF:/Library/Developer/CommandLineTools/usr/include/c++/v1/type_traits
FN:454,_ZNSt3__1L9addressofIKcEEPT_RS2_
FN:2310,_ZNSt3__1L4moveIRNS_9allocatorINS_4pairINS_6vectorIiNS1_IiEEEEiEEEEEEONS_16remove_referenceIT_E4typeEOSA_
FN:2310,_ZNSt3__1L4moveIRNS_9allocatorIiEEEEONS_16remove_referenceIT_E4typeEOS5_
FN:2319,_ZNSt3__1L7forwardINS_9allocatorINS_4pairINS_6vectorIiNS1_IiEEEEiEEEEEEOT_RNS_16remove_referenceIS8_E4typeE
FN:2319,_ZNSt3__1L7forwardINS_9allocatorIiEEEEOT_RNS_16remove_referenceIS3_E4typeE
FN:2319,_ZNSt3__1L7forwardIDnEEOT_RNS_16remove_referenceIS1_E4typeE
FN:2319,_ZNSt3__1L7forwardIRKNS_4pairINS_6vectorIiNS_9allocatorIiEEEEiEEEEOT_RNS_16remove_referenceIS9_E4typeE
FN:2319,_ZNSt3__1L7forwardIRNS_4pairINS_6vectorIiNS_9allocatorIiEEEEiEEEEOT_RNS_16remove_referenceIS8_E4typeE
FN:2319,_ZNSt3__1L7forwardIRNS_6vectorIiNS_9allocatorIiEEEEEEOT_RNS_16remove_referenceIS6_E4typeE
FN:2319,_ZNSt3__1L7forwardIiEEOT_RNS_16remove_referenceIS1_E4typeE
FNDA:0,_ZNSt3__1L9addressofIKcEEPT_RS2_
FNDA:0,_ZNSt3__1L4moveIRNS_9allocatorIiEEEEONS_16remove_referenceIT_E4typeEOS5_
FNDA:0,_ZNSt3__1L4moveIRNS_9allocatorINS_4pairINS_6vectorIiNS1_IiEEEEiEEEEEEONS_16remove_referenceIT_E4typeEOSA_
FNDA:136,_ZNSt3__1L7forwardIDnEEOT_RNS_16remove_referenceIS1_E4typeE
FNDA:96,_ZNSt3__1L7forwardIRNS_6vectorIiNS_9allocatorIiEEEEEEOT_RNS_16remove_referenceIS6_E4typeE
FNDA:96,_ZNSt3__1L7forwardIiEEOT_RNS_16remove_referenceIS1_E4typeE
FNDA:0,_ZNSt3__1L7forwardINS_9allocatorIiEEEEOT_RNS_16remove_referenceIS3_E4typeE
FNDA:0,_ZNSt3__1L7forwardIRKNS_4pairINS_6vectorIiNS_9allocatorIiEEEEiEEEEOT_RNS_16remove_referenceIS9_E4typeE
FNDA:0,_ZNSt3__1L7forwardINS_9allocatorINS_4pairINS_6vectorIiNS1_IiEEEEiEEEEEEOT_RNS_16remove_referenceIS8_E4typeE
FNDA:0,_ZNSt3__1L7forwardIRNS_4pairINS_6vectorIiNS_9allocatorIiEEEEiEEEEOT_RNS_16remove_referenceIS8_E4typeE
FNF:10
FNH:3
DA:454,0
DA:456,0
DA:2310,0
DA:2313,0
DA:2319,328
DA:2321,328
LF:6
LH:2
end_of_record
SF:/Library/Developer/CommandLineTools/usr/include/c++/v1/utility
FN:316,_ZNSt3__14pairINS_6vectorIiNS_9allocatorIiEEEEiED1Ev
FN:316,_ZNSt3__14pairINS_6vectorIiNS_9allocatorIiEEEEiED2Ev
FN:328,_ZNSt3__14pairINS_6vectorIiNS_9allocatorIiEEEEiEC1ERKS5_
FN:328,_ZNSt3__14pairINS_6vectorIiNS_9allocatorIiEEEEiEC2ERKS5_
FN:448,_ZNSt3__14pairINS_6vectorIiNS_9allocatorIiEEEEiEC1IRS4_iLb0EEEOT_OT0_
FN:448,_ZNSt3__14pairINS_6vectorIiNS_9allocatorIiEEEEiEC2IRS4_iLb0EEEOT_OT0_
FN:668,_ZNSt3__1L9make_pairIRNS_6vectorIiNS_9allocatorIiEEEEiEENS_4pairINS_18__unwrap_ref_decayIT_E4typeENS7_IT0_E4typeEEEOS8_OSB_
FNDA:0,_ZNSt3__14pairINS_6vectorIiNS_9allocatorIiEEEEiED1Ev
FNDA:0,_ZNSt3__14pairINS_6vectorIiNS_9allocatorIiEEEEiED2Ev
FNDA:0,_ZNSt3__14pairINS_6vectorIiNS_9allocatorIiEEEEiEC1ERKS5_
FNDA:0,_ZNSt3__14pairINS_6vectorIiNS_9allocatorIiEEEEiEC2ERKS5_
FNDA:48,_ZNSt3__14pairINS_6vectorIiNS_9allocatorIiEEEEiEC1IRS4_iLb0EEEOT_OT0_
FNDA:48,_ZNSt3__14pairINS_6vectorIiNS_9allocatorIiEEEEiEC2IRS4_iLb0EEEOT_OT0_
FNDA:48,_ZNSt3__1L9make_pairIRNS_6vectorIiNS_9allocatorIiEEEEiEENS_4pairINS_18__unwrap_ref_decayIT_E4typeENS7_IT0_E4typeEEEOS8_OSB_
FNF:7
FNH:3
DA:316,0
DA:328,0
DA:448,96
DA:451,96
DA:668,48
DA:670,48
DA:671,48
LF:7
LH:5
end_of_record
SF:/Library/Developer/CommandLineTools/usr/include/c++/v1/vector
FN:304,_ZNSt3__120__vector_base_commonILb1EEC2Ev
FN:348,_ZNSt3__113__vector_baseINS_4pairINS_6vectorIiNS_9allocatorIiEEEEiEENS3_IS6_EEE7__allocEv
FN:348,_ZNSt3__113__vector_baseIiNS_9allocatorIiEEE7__allocEv
FN:351,_ZNKSt3__113__vector_baseIiNS_9allocatorIiEEE7__allocEv
FN:351,_ZNKSt3__113__vector_baseINS_4pairINS_6vectorIiNS_9allocatorIiEEEEiEENS3_IS6_EEE7__allocEv
FN:354,_ZNSt3__113__vector_baseIiNS_9allocatorIiEEE9__end_capEv
FN:354,_ZNSt3__113__vector_baseINS_4pairINS_6vectorIiNS_9allocatorIiEEEEiEENS3_IS6_EEE9__end_capEv
FN:357,_ZNKSt3__113__vector_baseIiNS_9allocatorIiEEE9__end_capEv
FN:357,_ZNKSt3__113__vector_baseINS_4pairINS_6vectorIiNS_9allocatorIiEEEEiEENS3_IS6_EEE9__end_capEv
FN:370,_ZNSt3__113__vector_baseIiNS_9allocatorIiEEE5clearEv
FN:370,_ZNSt3__113__vector_baseINS_4pairINS_6vectorIiNS_9allocatorIiEEEEiEENS3_IS6_EEE5clearEv
FN:372,_ZNKSt3__113__vector_baseINS_4pairINS_6vectorIiNS_9allocatorIiEEEEiEENS3_IS6_EEE8capacityEv
FN:372,_ZNKSt3__113__vector_baseIiNS_9allocatorIiEEE8capacityEv
FN:423,_ZNSt3__113__vector_baseINS_4pairINS_6vectorIiNS_9allocatorIiEEEEiEENS3_IS6_EEE17__destruct_at_endEPS6_
FN:423,_ZNSt3__113__vector_baseIiNS_9allocatorIiEEE17__destruct_at_endEPi
FN:433,_ZNSt3__113__vector_baseINS_4pairINS_6vectorIiNS_9allocatorIiEEEEiEENS3_IS6_EEEC2Ev
FN:433,_ZNSt3__113__vector_baseIiNS_9allocatorIiEEEC2Ev
FN:453,_ZNSt3__113__vector_baseINS_4pairINS_6vectorIiNS_9allocatorIiEEEEiEENS3_IS6_EEEC2EOS7_
FN:453,_ZNSt3__113__vector_baseIiNS_9allocatorIiEEEC2EOS2_
FN:460,_ZNSt3__113__vector_baseIiNS_9allocatorIiEEED2Ev
FN:460,_ZNSt3__113__vector_baseINS_4pairINS_6vectorIiNS_9allocatorIiEEEEiEENS3_IS6_EEED2Ev
FN:550,_ZNSt3__16vectorINS_4pairINS0_IiNS_9allocatorIiEEEEiEENS2_IS5_EEED1Ev
FN:550,_ZNSt3__16vectorIiNS_9allocatorIiEEED2Ev
FN:550,_ZNSt3__16vectorIiNS_9allocatorIiEEED1Ev
FN:550,_ZNSt3__16vectorINS_4pairINS0_IiNS_9allocatorIiEEEEiEENS2_IS5_EEED2Ev
FN:656,_ZNKSt3__16vectorINS_4pairINS0_IiNS_9allocatorIiEEEEiEENS2_IS5_EEE4sizeEv
FN:656,_ZNKSt3__16vectorIiNS_9allocatorIiEEE4sizeEv
FN:659,_ZNKSt3__16vectorIiNS_9allocatorIiEEE8capacityEv
FN:659,_ZNKSt3__16vectorINS_4pairINS0_IiNS_9allocatorIiEEEEiEENS2_IS5_EEE8capacityEv
FN:698,_ZNKSt3__16vectorIiNS_9allocatorIiEEE4dataEv
FN:698,_ZNKSt3__16vectorINS_4pairINS0_IiNS_9allocatorIiEEEEiEENS2_IS5_EEE4dataEv
FN:862,_ZNKSt3__16vectorINS_4pairINS0_IiNS_9allocatorIiEEEEiEENS2_IS5_EEE31__annotate_contiguous_containerEPKvS9_S9_S9_
FN:862,_ZNKSt3__16vectorIiNS_9allocatorIiEEE31__annotate_contiguous_containerEPKvS5_S5_S5_
FN:866,_ZNKSt3__16vectorINS_4pairINS0_IiNS_9allocatorIiEEEEiEENS2_IS5_EEE14__annotate_newEm
FN:866,_ZNKSt3__16vectorIiNS_9allocatorIiEEE14__annotate_newEm
FN:872,_ZNKSt3__16vectorINS_4pairINS0_IiNS_9allocatorIiEEEEiEENS2_IS5_EEE17__annotate_deleteEv
FN:872,_ZNKSt3__16vectorIiNS_9allocatorIiEEE17__annotate_deleteEv
FN:910,_ZNSt3__16vectorINS_4pairINS0_IiNS_9allocatorIiEEEEiEENS2_IS5_EEE24__RAII_IncreaseAnnotatorC1ERKS7_m
FN:910,_ZNSt3__16vectorINS_4pairINS0_IiNS_9allocatorIiEEEEiEENS2_IS5_EEE24__RAII_IncreaseAnnotatorC2ERKS7_m
FN:910,_ZNSt3__16vectorIiNS_9allocatorIiEEE24__RAII_IncreaseAnnotatorC2ERKS3_m
FN:910,_ZNSt3__16vectorIiNS_9allocatorIiEEE24__RAII_IncreaseAnnotatorC1ERKS3_m
FN:911,_ZNSt3__16vectorIiNS_9allocatorIiEEE24__RAII_IncreaseAnnotator6__doneEv
FN:911,_ZNSt3__16vectorINS_4pairINS0_IiNS_9allocatorIiEEEEiEENS2_IS5_EEE24__RAII_IncreaseAnnotator6__doneEv
FN:973,_ZNSt3__16vectorINS_4pairINS0_IiNS_9allocatorIiEEEEiEENS2_IS5_EEE11__vallocateEm
FN:973,_ZNSt3__16vectorIiNS_9allocatorIiEEE11__vallocateEm
FN:996,_ZNKSt3__16vectorIiNS_9allocatorIiEEE8max_sizeEv
FN:996,_ZNKSt3__16vectorINS_4pairINS0_IiNS_9allocatorIiEEEEiEENS2_IS5_EEE8max_sizeEv
FN:1066,_ZNSt3__16vectorINS_4pairINS0_IiNS_9allocatorIiEEEEiEENS2_IS5_EEE18__construct_at_endIPS5_EENS_9enable_ifIXsr21__is_forward_iteratorIT_EE5valueEvE4typeESB_SB_m
FN:1066,_ZNSt3__16vectorIiNS_9allocatorIiEEE18__construct_at_endIPKiEENS_9enable_ifIXsr21__is_forward_iteratorIT_EE5valueEvE4typeES8_S8_m
FN:1066,_ZNSt3__16vectorIiNS_9allocatorIiEEE18__construct_at_endIPiEENS_9enable_ifIXsr21__is_forward_iteratorIT_EE5valueEvE4typeES7_S7_m
FN:1066,_ZNSt3__16vectorINS_4pairINS0_IiNS_9allocatorIiEEEEiEENS2_IS5_EEE18__construct_at_endIPKS5_EENS_9enable_ifIXsr21__is_forward_iteratorIT_EE5valueEvE4typeESC_SC_m
FN:1243,_ZNSt3__16vectorINS_4pairINS0_IiNS_9allocatorIiEEEEiEENS2_IS5_EEEC2ERKS7_
FN:1243,_ZNSt3__16vectorIiNS_9allocatorIiEEEC1ERKS3_
FN:1243,_ZNSt3__16vectorIiNS_9allocatorIiEEEC2ERKS3_
FN:1243,_ZNSt3__16vectorINS_4pairINS0_IiNS_9allocatorIiEEEEiEENS2_IS5_EEEC1ERKS7_
FN:1321,_ZNSt3__16vectorINS_4pairINS0_IiNS_9allocatorIiEEEEiEENS2_IS5_EEEC2ESt16initializer_listIS5_E
FN:1321,_ZNSt3__16vectorINS_4pairINS0_IiNS_9allocatorIiEEEEiEENS2_IS5_EEEC1ESt16initializer_listIS5_E
FN:1321,_ZNSt3__16vectorIiNS_9allocatorIiEEEC2ESt16initializer_listIiE
FN:1321,_ZNSt3__16vectorIiNS_9allocatorIiEEEC1ESt16initializer_listIiE
FNDA:68,_ZNSt3__120__vector_base_commonILb1EEC2Ev
FNDA:0,_ZNSt3__113__vector_baseIiNS_9allocatorIiEEE7__allocEv
FNDA:0,_ZNSt3__113__vector_baseINS_4pairINS_6vectorIiNS_9allocatorIiEEEEiEENS3_IS6_EEE7__allocEv
FNDA:0,_ZNKSt3__113__vector_baseIiNS_9allocatorIiEEE7__allocEv
FNDA:0,_ZNKSt3__113__vector_baseINS_4pairINS_6vectorIiNS_9allocatorIiEEEEiEENS3_IS6_EEE7__allocEv
FNDA:0,_ZNSt3__113__vector_baseIiNS_9allocatorIiEEE9__end_capEv
FNDA:0,_ZNSt3__113__vector_baseINS_4pairINS_6vectorIiNS_9allocatorIiEEEEiEENS3_IS6_EEE9__end_capEv
FNDA:96,_ZNKSt3__113__vector_baseIiNS_9allocatorIiEEE9__end_capEv
FNDA:80,_ZNKSt3__113__vector_baseINS_4pairINS_6vectorIiNS_9allocatorIiEEEEiEENS3_IS6_EEE9__end_capEv
FNDA:0,_ZNSt3__113__vector_baseIiNS_9allocatorIiEEE5clearEv
FNDA:0,_ZNSt3__113__vector_baseINS_4pairINS_6vectorIiNS_9allocatorIiEEEEiEENS3_IS6_EEE5clearEv
FNDA:96,_ZNKSt3__113__vector_baseIiNS_9allocatorIiEEE8capacityEv
FNDA:80,_ZNKSt3__113__vector_baseINS_4pairINS_6vectorIiNS_9allocatorIiEEEEiEENS3_IS6_EEE8capacityEv
FNDA:0,_ZNSt3__113__vector_baseIiNS_9allocatorIiEEE17__destruct_at_endEPi
FNDA:0,_ZNSt3__113__vector_baseINS_4pairINS_6vectorIiNS_9allocatorIiEEEEiEENS3_IS6_EEE17__destruct_at_endEPS6_
FNDA:48,_ZNSt3__113__vector_baseIiNS_9allocatorIiEEEC2Ev
FNDA:20,_ZNSt3__113__vector_baseINS_4pairINS_6vectorIiNS_9allocatorIiEEEEiEENS3_IS6_EEEC2Ev
FNDA:0,_ZNSt3__113__vector_baseIiNS_9allocatorIiEEEC2EOS2_
FNDA:0,_ZNSt3__113__vector_baseINS_4pairINS_6vectorIiNS_9allocatorIiEEEEiEENS3_IS6_EEEC2EOS7_
FNDA:0,_ZNSt3__113__vector_baseIiNS_9allocatorIiEEED2Ev
FNDA:0,_ZNSt3__113__vector_baseINS_4pairINS_6vectorIiNS_9allocatorIiEEEEiEENS3_IS6_EEED2Ev
FNDA:40,_ZNSt3__16vectorINS_4pairINS0_IiNS_9allocatorIiEEEEiEENS2_IS5_EEED1Ev
FNDA:48,_ZNSt3__16vectorIiNS_9allocatorIiEEED1Ev
FNDA:48,_ZNSt3__16vectorIiNS_9allocatorIiEEED2Ev
FNDA:40,_ZNSt3__16vectorINS_4pairINS0_IiNS_9allocatorIiEEEEiEENS2_IS5_EEED2Ev
FNDA:48,_ZNKSt3__16vectorIiNS_9allocatorIiEEE4sizeEv
FNDA:40,_ZNKSt3__16vectorINS_4pairINS0_IiNS_9allocatorIiEEEEiEENS2_IS5_EEE4sizeEv
FNDA:96,_ZNKSt3__16vectorIiNS_9allocatorIiEEE8capacityEv
FNDA:80,_ZNKSt3__16vectorINS_4pairINS0_IiNS_9allocatorIiEEEEiEENS2_IS5_EEE8capacityEv
FNDA:192,_ZNKSt3__16vectorIiNS_9allocatorIiEEE4dataEv
FNDA:160,_ZNKSt3__16vectorINS_4pairINS0_IiNS_9allocatorIiEEEEiEENS2_IS5_EEE4dataEv
FNDA:48,_ZNKSt3__16vectorIiNS_9allocatorIiEEE31__annotate_contiguous_containerEPKvS5_S5_S5_
FNDA:40,_ZNKSt3__16vectorINS_4pairINS0_IiNS_9allocatorIiEEEEiEENS2_IS5_EEE31__annotate_contiguous_containerEPKvS9_S9_S9_
FNDA:0,_ZNKSt3__16vectorIiNS_9allocatorIiEEE14__annotate_newEm
FNDA:0,_ZNKSt3__16vectorINS_4pairINS0_IiNS_9allocatorIiEEEEiEENS2_IS5_EEE14__annotate_newEm
FNDA:48,_ZNKSt3__16vectorIiNS_9allocatorIiEEE17__annotate_deleteEv
FNDA:40,_ZNKSt3__16vectorINS_4pairINS0_IiNS_9allocatorIiEEEEiEENS2_IS5_EEE17__annotate_deleteEv
FNDA:0,_ZNSt3__16vectorIiNS_9allocatorIiEEE24__RAII_IncreaseAnnotatorC1ERKS3_m
FNDA:0,_ZNSt3__16vectorIiNS_9allocatorIiEEE24__RAII_IncreaseAnnotatorC2ERKS3_m
FNDA:0,_ZNSt3__16vectorINS_4pairINS0_IiNS_9allocatorIiEEEEiEENS2_IS5_EEE24__RAII_IncreaseAnnotatorC1ERKS7_m
FNDA:0,_ZNSt3__16vectorINS_4pairINS0_IiNS_9allocatorIiEEEEiEENS2_IS5_EEE24__RAII_IncreaseAnnotatorC2ERKS7_m
FNDA:0,_ZNSt3__16vectorIiNS_9allocatorIiEEE24__RAII_IncreaseAnnotator6__doneEv
FNDA:0,_ZNSt3__16vectorINS_4pairINS0_IiNS_9allocatorIiEEEEiEENS2_IS5_EEE24__RAII_IncreaseAnnotator6__doneEv
FNDA:0,_ZNSt3__16vectorIiNS_9allocatorIiEEE11__vallocateEm
FNDA:0,_ZNSt3__16vectorINS_4pairINS0_IiNS_9allocatorIiEEEEiEENS2_IS5_EEE11__vallocateEm
FNDA:0,_ZNKSt3__16vectorIiNS_9allocatorIiEEE8max_sizeEv
FNDA:0,_ZNKSt3__16vectorINS_4pairINS0_IiNS_9allocatorIiEEEEiEENS2_IS5_EEE8max_sizeEv
FNDA:0,_ZNSt3__16vectorIiNS_9allocatorIiEEE18__construct_at_endIPKiEENS_9enable_ifIXsr21__is_forward_iteratorIT_EE5valueEvE4typeES8_S8_m
FNDA:0,_ZNSt3__16vectorIiNS_9allocatorIiEEE18__construct_at_endIPiEENS_9enable_ifIXsr21__is_forward_iteratorIT_EE5valueEvE4typeES7_S7_m
FNDA:0,_ZNSt3__16vectorINS_4pairINS0_IiNS_9allocatorIiEEEEiEENS2_IS5_EEE18__construct_at_endIPKS5_EENS_9enable_ifIXsr21__is_forward_iteratorIT_EE5valueEvE4typeESC_SC_m
FNDA:0,_ZNSt3__16vectorINS_4pairINS0_IiNS_9allocatorIiEEEEiEENS2_IS5_EEE18__construct_at_endIPS5_EENS_9enable_ifIXsr21__is_forward_iteratorIT_EE5valueEvE4typeESB_SB_m
FNDA:0,_ZNSt3__16vectorINS_4pairINS0_IiNS_9allocatorIiEEEEiEENS2_IS5_EEEC1ERKS7_
FNDA:0,_ZNSt3__16vectorIiNS_9allocatorIiEEEC1ERKS3_
FNDA:0,_ZNSt3__16vectorIiNS_9allocatorIiEEEC2ERKS3_
FNDA:0,_ZNSt3__16vectorINS_4pairINS0_IiNS_9allocatorIiEEEEiEENS2_IS5_EEEC2ERKS7_
FNDA:48,_ZNSt3__16vectorIiNS_9allocatorIiEEEC1ESt16initializer_listIiE
FNDA:20,_ZNSt3__16vectorINS_4pairINS0_IiNS_9allocatorIiEEEEiEENS2_IS5_EEEC1ESt16initializer_listIS5_E
FNDA:48,_ZNSt3__16vectorIiNS_9allocatorIiEEEC2ESt16initializer_listIiE
FNDA:20,_ZNSt3__16vectorINS_4pairINS0_IiNS_9allocatorIiEEEEiEENS2_IS5_EEEC2ESt16initializer_listIS5_E
FNF:59
FNH:25
DA:304,68
DA:348,0
DA:349,0
DA:351,0
DA:352,0
DA:354,0
DA:355,0
DA:357,176
DA:358,176
DA:361,68
DA:365,0
DA:370,0
DA:372,176
DA:373,176
DA:423,0
DA:425,0
DA:426,0
DA:427,0
DA:428,0
DA:429,0
DA:433,68
DA:435,68
DA:436,68
DA:437,68
DA:438,68
DA:439,68
DA:453,0
DA:454,0
DA:455,0
DA:456,0
DA:460,0
DA:462,0
DA:464,0
DA:465,0
DA:466,0
DA:467,0
DA:550,176
DA:551,88
DA:552,88
DA:556,176
DA:565,68
DA:656,88
DA:657,88
DA:659,176
DA:660,176
DA:698,352
DA:699,352
DA:862,88
DA:863,88
DA:866,0
DA:867,0
DA:868,0
DA:869,0
DA:872,88
DA:873,176
DA:874,88
DA:875,88
DA:910,0
DA:911,0
DA:973,0
DA:975,0
DA:976,0
DA:977,0
DA:978,0
DA:979,0
DA:980,0
DA:996,0
DA:998,0
DA:999,0
DA:1066,0
DA:1068,0
DA:1069,0
DA:1070,0
DA:1071,0
DA:1072,0
DA:1243,0
DA:1244,0
DA:1245,0
DA:1249,0
DA:1250,0
DA:1252,0
DA:1253,0
DA:1254,0
DA:1255,0
DA:1321,136
DA:1322,136
DA:1326,68
DA:1328,68
DA:1329,68
DA:1330,68
DA:1331,136
LF:91
LH:36
end_of_record
SF:/Users/usuario/Desktop/LabAlgo1/tp2/reunionesRemotas/lib/gtest.h
FN:2394,_ZN7testing8internal10scoped_ptrINSt3__112basic_stringIcNS2_11char_traitsIcEENS2_9allocatorIcEEEEEC2EPS8_
FN:2394,_ZN7testing8internal10scoped_ptrINSt3__112basic_stringIcNS2_11char_traitsIcEENS2_9allocatorIcEEEEEC1EPS8_
FN:2395,_ZN7testing8internal10scoped_ptrINSt3__118basic_stringstreamIcNS2_11char_traitsIcEENS2_9allocatorIcEEEEED2Ev
FN:2395,_ZN7testing8internal10scoped_ptrINSt3__118basic_stringstreamIcNS2_11char_traitsIcEENS2_9allocatorIcEEEEED1Ev
FN:2395,_ZN7testing8internal10scoped_ptrINSt3__112basic_stringIcNS2_11char_traitsIcEENS2_9allocatorIcEEEEED2Ev
FN:2395,_ZN7testing8internal10scoped_ptrINSt3__112basic_stringIcNS2_11char_traitsIcEENS2_9allocatorIcEEEEED1Ev
FN:2407,_ZN7testing8internal10scoped_ptrINSt3__112basic_stringIcNS2_11char_traitsIcEENS2_9allocatorIcEEEEE5resetEPS8_
FN:2407,_ZN7testing8internal10scoped_ptrINSt3__118basic_stringstreamIcNS2_11char_traitsIcEENS2_9allocatorIcEEEEE5resetEPS8_
FN:3935,_ZN7testing7MessageD1Ev
FN:3935,_ZN7testing7MessageD2Ev
FN:8201,_ZN7testing8internal15TestFactoryBaseD1Ev
FN:8201,_ZN7testing8internal15TestFactoryBaseD0Ev
FN:8201,_ZN7testing8internal15TestFactoryBaseD2Ev
FN:8208,_ZN7testing8internal15TestFactoryBaseC2Ev
FN:8217,_ZN7testing8internal15TestFactoryImplI73hablantesSuperpuestosTEST_hablantesSuperpuestosAlFinalEigualAlUmbral_TestEC1Ev
FN:8217,_ZN7testing8internal15TestFactoryImplI80hablantesSuperpuestosTEST_noHablantesSuperpuestosAlFinalPeroSuperanElUmbral_TestEC2Ev
FN:8217,_ZN7testing8internal15TestFactoryImplI57hablantesSuperpuestosTEST_noHayHablantesSuperpuestos_TestED0Ev
FN:8217,_ZN7testing8internal15TestFactoryImplI59hablantesSuperpuestosTEST_hablantesSuperpuestosValidos_TestED1Ev
FN:8217,_ZN7testing8internal15TestFactoryImplI59hablantesSuperpuestosTEST_hablantesSuperpuestosValidos_TestED0Ev
FN:8217,_ZN7testing8internal15TestFactoryImplI80hablantesSuperpuestosTEST_noHablantesSuperpuestosAlFinalPeroSuperanElUmbral_TestED0Ev
FN:8217,_ZN7testing8internal15TestFactoryImplI57hablantesSuperpuestosTEST_noHayHablantesSuperpuestos_TestEC2Ev
FN:8217,_ZN7testing8internal15TestFactoryImplI59hablantesSuperpuestosTEST_hablantesSuperpuestosValidos_TestEC1Ev
FN:8217,_ZN7testing8internal15TestFactoryImplI73hablantesSuperpuestosTEST_hablantesSuperpuestosAlFinalEigualAlUmbral_TestED0Ev
FN:8217,_ZN7testing8internal15TestFactoryImplI80hablantesSuperpuestosTEST_noHablantesSuperpuestosAlFinalPeroSuperanElUmbral_TestED1Ev
FN:8217,_ZN7testing8internal15TestFactoryImplI73hablantesSuperpuestosTEST_hablantesSuperpuestosAlFinalEigualAlUmbral_TestED1Ev
FN:8217,_ZN7testing8internal15TestFactoryImplI59hablantesSuperpuestosTEST_hablantesSuperpuestosAlFinal_TestED1Ev
FN:8217,_ZN7testing8internal15TestFactoryImplI73hablantesSuperpuestosTEST_hablantesSuperpuestosAlFinalEigualAlUmbral_TestEC2Ev
FN:8217,_ZN7testing8internal15TestFactoryImplI59hablantesSuperpuestosTEST_hablantesSuperpuestosAlFinal_TestED2Ev
FN:8217,_ZN7testing8internal15TestFactoryImplI57hablantesSuperpuestosTEST_noHayHablantesSuperpuestos_TestEC1Ev
FN:8217,_ZN7testing8internal15TestFactoryImplI59hablantesSuperpuestosTEST_hablantesSuperpuestosAlFinal_TestEC2Ev
FN:8217,_ZN7testing8internal15TestFactoryImplI59hablantesSuperpuestosTEST_hablantesSuperpuestosValidos_TestEC2Ev
FN:8217,_ZN7testing8internal15TestFactoryImplI80hablantesSuperpuestosTEST_noHablantesSuperpuestosAlFinalPeroSuperanElUmbral_TestEC1Ev
FN:8217,_ZN7testing8internal15TestFactoryImplI57hablantesSuperpuestosTEST_noHayHablantesSuperpuestos_TestED1Ev
FN:8217,_ZN7testing8internal15TestFactoryImplI59hablantesSuperpuestosTEST_hablantesSuperpuestosAlFinal_TestEC1Ev
FN:8217,_ZN7testing8internal15TestFactoryImplI57hablantesSuperpuestosTEST_noHayHablantesSuperpuestos_TestED2Ev
FN:8217,_ZN7testing8internal15TestFactoryImplI59hablantesSuperpuestosTEST_hablantesSuperpuestosAlFinal_TestED0Ev
FN:8217,_ZN7testing8internal15TestFactoryImplI73hablantesSuperpuestosTEST_hablantesSuperpuestosAlFinalEigualAlUmbral_TestED2Ev
FN:8217,_ZN7testing8internal15TestFactoryImplI59hablantesSuperpuestosTEST_hablantesSuperpuestosValidos_TestED2Ev
FN:8217,_ZN7testing8internal15TestFactoryImplI80hablantesSuperpuestosTEST_noHablantesSuperpuestosAlFinalPeroSuperanElUmbral_TestED2Ev
FN:8219,_ZN7testing8internal15TestFactoryImplI59hablantesSuperpuestosTEST_hablantesSuperpuestosValidos_TestE10CreateTestEv
FN:8219,_ZN7testing8internal15TestFactoryImplI57hablantesSuperpuestosTEST_noHayHablantesSuperpuestos_TestE10CreateTestEv
FN:8219,_ZN7testing8internal15TestFactoryImplI80hablantesSuperpuestosTEST_noHablantesSuperpuestosAlFinalPeroSuperanElUmbral_TestE10CreateTestEv
FN:8219,_ZN7testing8internal15TestFactoryImplI73hablantesSuperpuestosTEST_hablantesSuperpuestosAlFinalEigualAlUmbral_TestE10CreateTestEv
FN:8219,_ZN7testing8internal15TestFactoryImplI59hablantesSuperpuestosTEST_hablantesSuperpuestosAlFinal_TestE10CreateTestEv
FN:8239,_ZN7testing8internal12CodeLocationD1Ev
FN:8239,_ZN7testing8internal12CodeLocationD2Ev
FN:8240,_ZN7testing8internal12CodeLocationC2ERKNSt3__112basic_stringIcNS2_11char_traitsIcEENS2_9allocatorIcEEEEi
FN:8240,_ZN7testing8internal12CodeLocationC1ERKNSt3__112basic_stringIcNS2_11char_traitsIcEENS2_9allocatorIcEEEEi
FN:18855,_ZN7testing15AssertionResultD1Ev
FN:18855,_ZN7testing15AssertionResultD2Ev
FN:18871,_ZN7testing15AssertionResultC2IbEERKT_PNS_8internal8EnableIfIXntsr8internal21ImplicitlyConvertibleIS2_S0_EE5valueEE4typeE
FN:18871,_ZN7testing15AssertionResultC1IbEERKT_PNS_8internal8EnableIfIXntsr8internal21ImplicitlyConvertibleIS2_S0_EE5valueEE4typeE
FN:18887,_ZNK7testing15AssertionResultcvbEv
FN:18988,_ZN7testing4Test13SetUpTestCaseEv
FN:18996,_ZN7testing4Test16TearDownTestCaseEv
FN:19073,_ZN7testing4Test5SetupEv
FNDA:0,_ZN7testing8internal10scoped_ptrINSt3__112basic_stringIcNS2_11char_traitsIcEENS2_9allocatorIcEEEEEC1EPS8_
FNDA:0,_ZN7testing8internal10scoped_ptrINSt3__112basic_stringIcNS2_11char_traitsIcEENS2_9allocatorIcEEEEEC2EPS8_
FNDA:0,_ZN7testing8internal10scoped_ptrINSt3__118basic_stringstreamIcNS2_11char_traitsIcEENS2_9allocatorIcEEEEED1Ev
FNDA:0,_ZN7testing8internal10scoped_ptrINSt3__118basic_stringstreamIcNS2_11char_traitsIcEENS2_9allocatorIcEEEEED2Ev
FNDA:0,_ZN7testing8internal10scoped_ptrINSt3__112basic_stringIcNS2_11char_traitsIcEENS2_9allocatorIcEEEEED1Ev
FNDA:0,_ZN7testing8internal10scoped_ptrINSt3__112basic_stringIcNS2_11char_traitsIcEENS2_9allocatorIcEEEEED2Ev
FNDA:0,_ZN7testing8internal10scoped_ptrINSt3__118basic_stringstreamIcNS2_11char_traitsIcEENS2_9allocatorIcEEEEE5resetEPS8_
FNDA:0,_ZN7testing8internal10scoped_ptrINSt3__112basic_stringIcNS2_11char_traitsIcEENS2_9allocatorIcEEEEE5resetEPS8_
FNDA:0,_ZN7testing7MessageD1Ev
FNDA:0,_ZN7testing7MessageD2Ev
FNDA:0,_ZN7testing8internal15TestFactoryBaseD1Ev
FNDA:0,_ZN7testing8internal15TestFactoryBaseD0Ev
FNDA:0,_ZN7testing8internal15TestFactoryBaseD2Ev
FNDA:0,_ZN7testing8internal15TestFactoryBaseC2Ev
FNDA:4,_ZN7testing8internal15TestFactoryImplI59hablantesSuperpuestosTEST_hablantesSuperpuestosValidos_TestEC1Ev
FNDA:4,_ZN7testing8internal15TestFactoryImplI57hablantesSuperpuestosTEST_noHayHablantesSuperpuestos_TestEC1Ev
FNDA:4,_ZN7testing8internal15TestFactoryImplI73hablantesSuperpuestosTEST_hablantesSuperpuestosAlFinalEigualAlUmbral_TestEC1Ev
FNDA:4,_ZN7testing8internal15TestFactoryImplI59hablantesSuperpuestosTEST_hablantesSuperpuestosAlFinal_TestEC1Ev
FNDA:4,_ZN7testing8internal15TestFactoryImplI80hablantesSuperpuestosTEST_noHablantesSuperpuestosAlFinalPeroSuperanElUmbral_TestEC1Ev
FNDA:4,_ZN7testing8internal15TestFactoryImplI59hablantesSuperpuestosTEST_hablantesSuperpuestosValidos_TestEC2Ev
FNDA:4,_ZN7testing8internal15TestFactoryImplI59hablantesSuperpuestosTEST_hablantesSuperpuestosValidos_TestED1Ev
FNDA:4,_ZN7testing8internal15TestFactoryImplI59hablantesSuperpuestosTEST_hablantesSuperpuestosValidos_TestED0Ev
FNDA:4,_ZN7testing8internal15TestFactoryImplI59hablantesSuperpuestosTEST_hablantesSuperpuestosValidos_TestED2Ev
FNDA:4,_ZN7testing8internal15TestFactoryImplI57hablantesSuperpuestosTEST_noHayHablantesSuperpuestos_TestEC2Ev
FNDA:4,_ZN7testing8internal15TestFactoryImplI57hablantesSuperpuestosTEST_noHayHablantesSuperpuestos_TestED1Ev
FNDA:4,_ZN7testing8internal15TestFactoryImplI57hablantesSuperpuestosTEST_noHayHablantesSuperpuestos_TestED0Ev
FNDA:4,_ZN7testing8internal15TestFactoryImplI57hablantesSuperpuestosTEST_noHayHablantesSuperpuestos_TestED2Ev
FNDA:4,_ZN7testing8internal15TestFactoryImplI73hablantesSuperpuestosTEST_hablantesSuperpuestosAlFinalEigualAlUmbral_TestEC2Ev
FNDA:4,_ZN7testing8internal15TestFactoryImplI73hablantesSuperpuestosTEST_hablantesSuperpuestosAlFinalEigualAlUmbral_TestED1Ev
FNDA:4,_ZN7testing8internal15TestFactoryImplI73hablantesSuperpuestosTEST_hablantesSuperpuestosAlFinalEigualAlUmbral_TestED0Ev
FNDA:4,_ZN7testing8internal15TestFactoryImplI73hablantesSuperpuestosTEST_hablantesSuperpuestosAlFinalEigualAlUmbral_TestED2Ev
FNDA:4,_ZN7testing8internal15TestFactoryImplI59hablantesSuperpuestosTEST_hablantesSuperpuestosAlFinal_TestEC2Ev
FNDA:4,_ZN7testing8internal15TestFactoryImplI59hablantesSuperpuestosTEST_hablantesSuperpuestosAlFinal_TestED1Ev
FNDA:4,_ZN7testing8internal15TestFactoryImplI59hablantesSuperpuestosTEST_hablantesSuperpuestosAlFinal_TestED0Ev
FNDA:4,_ZN7testing8internal15TestFactoryImplI59hablantesSuperpuestosTEST_hablantesSuperpuestosAlFinal_TestED2Ev
FNDA:4,_ZN7testing8internal15TestFactoryImplI80hablantesSuperpuestosTEST_noHablantesSuperpuestosAlFinalPeroSuperanElUmbral_TestEC2Ev
FNDA:4,_ZN7testing8internal15TestFactoryImplI80hablantesSuperpuestosTEST_noHablantesSuperpuestosAlFinalPeroSuperanElUmbral_TestED1Ev
FNDA:4,_ZN7testing8internal15TestFactoryImplI80hablantesSuperpuestosTEST_noHablantesSuperpuestosAlFinalPeroSuperanElUmbral_TestED0Ev
FNDA:4,_ZN7testing8internal15TestFactoryImplI80hablantesSuperpuestosTEST_noHablantesSuperpuestosAlFinalPeroSuperanElUmbral_TestED2Ev
FNDA:4,_ZN7testing8internal15TestFactoryImplI59hablantesSuperpuestosTEST_hablantesSuperpuestosValidos_TestE10CreateTestEv
FNDA:4,_ZN7testing8internal15TestFactoryImplI57hablantesSuperpuestosTEST_noHayHablantesSuperpuestos_TestE10CreateTestEv
FNDA:4,_ZN7testing8internal15TestFactoryImplI73hablantesSuperpuestosTEST_hablantesSuperpuestosAlFinalEigualAlUmbral_TestE10CreateTestEv
FNDA:4,_ZN7testing8internal15TestFactoryImplI59hablantesSuperpuestosTEST_hablantesSuperpuestosAlFinal_TestE10CreateTestEv
FNDA:4,_ZN7testing8internal15TestFactoryImplI80hablantesSuperpuestosTEST_noHablantesSuperpuestosAlFinalPeroSuperanElUmbral_TestE10CreateTestEv
FNDA:0,_ZN7testing8internal12CodeLocationD1Ev
FNDA:0,_ZN7testing8internal12CodeLocationD2Ev
FNDA:0,_ZN7testing8internal12CodeLocationC1ERKNSt3__112basic_stringIcNS2_11char_traitsIcEENS2_9allocatorIcEEEEi
FNDA:0,_ZN7testing8internal12CodeLocationC2ERKNSt3__112basic_stringIcNS2_11char_traitsIcEENS2_9allocatorIcEEEEi
FNDA:0,_ZN7testing15AssertionResultD1Ev
FNDA:0,_ZN7testing15AssertionResultD2Ev
FNDA:0,_ZN7testing15AssertionResultC1IbEERKT_PNS_8internal8EnableIfIXntsr8internal21ImplicitlyConvertibleIS2_S0_EE5valueEE4typeE
FNDA:0,_ZN7testing15AssertionResultC2IbEERKT_PNS_8internal8EnableIfIXntsr8internal21ImplicitlyConvertibleIS2_S0_EE5valueEE4typeE
FNDA:0,_ZNK7testing15AssertionResultcvbEv
FNDA:0,_ZN7testing4Test13SetUpTestCaseEv
FNDA:0,_ZN7testing4Test16TearDownTestCaseEv
FNDA:0,_ZN7testing4Test5SetupEv
FNF:56
FNH:30
DA:2394,0
DA:2395,0
DA:2407,0
DA:2408,0
DA:2409,0
DA:2410,0
DA:2411,0
DA:2412,0
DA:2413,0
DA:2414,0
DA:3935,0
DA:8201,0
DA:8208,0
DA:8217,100
DA:8219,20
DA:8239,0
DA:8240,0
DA:18855,0
DA:18871,0
DA:18876,0
DA:18887,0
DA:18988,0
DA:18996,0
DA:19073,0
LF:24
LH:2
end_of_record
SF:/Users/usuario/Desktop/LabAlgo1/tp2/reunionesRemotas/tests/hablantesSuperpuestos.cpp
FN:8,_ZN59hablantesSuperpuestosTEST_hablantesSuperpuestosValidos_TestC1Ev
FN:8,_ZN59hablantesSuperpuestosTEST_hablantesSuperpuestosValidos_Test8TestBodyEv
FN:8,__cxx_global_var_init
FN:8,_ZN59hablantesSuperpuestosTEST_hablantesSuperpuestosValidos_TestD2Ev
FN:8,_ZN59hablantesSuperpuestosTEST_hablantesSuperpuestosValidos_TestD1Ev
FN:8,_ZN59hablantesSuperpuestosTEST_hablantesSuperpuestosValidos_TestC2Ev
FN:8,_ZN59hablantesSuperpuestosTEST_hablantesSuperpuestosValidos_TestD0Ev
FN:19,_ZN57hablantesSuperpuestosTEST_noHayHablantesSuperpuestos_TestC1Ev
FN:19,__cxx_global_var_init.7
FN:19,_ZN57hablantesSuperpuestosTEST_noHayHablantesSuperpuestos_TestD0Ev
FN:19,_ZN57hablantesSuperpuestosTEST_noHayHablantesSuperpuestos_Test8TestBodyEv
FN:19,_ZN57hablantesSuperpuestosTEST_noHayHablantesSuperpuestos_TestC2Ev
FN:19,_ZN57hablantesSuperpuestosTEST_noHayHablantesSuperpuestos_TestD1Ev
FN:19,_ZN57hablantesSuperpuestosTEST_noHayHablantesSuperpuestos_TestD2Ev
FN:31,_ZN73hablantesSuperpuestosTEST_hablantesSuperpuestosAlFinalEigualAlUmbral_TestD1Ev
FN:31,_ZN73hablantesSuperpuestosTEST_hablantesSuperpuestosAlFinalEigualAlUmbral_TestC2Ev
FN:31,_ZN73hablantesSuperpuestosTEST_hablantesSuperpuestosAlFinalEigualAlUmbral_TestD0Ev
FN:31,_ZN73hablantesSuperpuestosTEST_hablantesSuperpuestosAlFinalEigualAlUmbral_TestC1Ev
FN:31,_ZN73hablantesSuperpuestosTEST_hablantesSuperpuestosAlFinalEigualAlUmbral_TestD2Ev
FN:31,_ZN73hablantesSuperpuestosTEST_hablantesSuperpuestosAlFinalEigualAlUmbral_Test8TestBodyEv
FN:31,__cxx_global_var_init.11
FN:43,_ZN59hablantesSuperpuestosTEST_hablantesSuperpuestosAlFinal_TestC1Ev
FN:43,_ZN59hablantesSuperpuestosTEST_hablantesSuperpuestosAlFinal_Test8TestBodyEv
FN:43,_ZN59hablantesSuperpuestosTEST_hablantesSuperpuestosAlFinal_TestD0Ev
FN:43,_ZN59hablantesSuperpuestosTEST_hablantesSuperpuestosAlFinal_TestD1Ev
FN:43,__cxx_global_var_init.15
FN:43,_ZN59hablantesSuperpuestosTEST_hablantesSuperpuestosAlFinal_TestC2Ev
FN:43,_ZN59hablantesSuperpuestosTEST_hablantesSuperpuestosAlFinal_TestD2Ev
FN:56,_ZN80hablantesSuperpuestosTEST_noHablantesSuperpuestosAlFinalPeroSuperanElUmbral_TestD0Ev
FN:56,_ZN80hablantesSuperpuestosTEST_noHablantesSuperpuestosAlFinalPeroSuperanElUmbral_TestC2Ev
FN:56,_ZN80hablantesSuperpuestosTEST_noHablantesSuperpuestosAlFinalPeroSuperanElUmbral_Test8TestBodyEv
FN:56,_ZN80hablantesSuperpuestosTEST_noHablantesSuperpuestosAlFinalPeroSuperanElUmbral_TestD1Ev
FN:56,_ZN80hablantesSuperpuestosTEST_noHablantesSuperpuestosAlFinalPeroSuperanElUmbral_TestC1Ev
FN:56,__cxx_global_var_init.20
FN:56,_ZN80hablantesSuperpuestosTEST_noHablantesSuperpuestosAlFinalPeroSuperanElUmbral_TestD2Ev
FNDA:4,__cxx_global_var_init
FNDA:4,_ZN59hablantesSuperpuestosTEST_hablantesSuperpuestosValidos_Test8TestBodyEv
FNDA:4,_ZN59hablantesSuperpuestosTEST_hablantesSuperpuestosValidos_TestD1Ev
FNDA:4,_ZN59hablantesSuperpuestosTEST_hablantesSuperpuestosValidos_TestD0Ev
FNDA:4,_ZN59hablantesSuperpuestosTEST_hablantesSuperpuestosValidos_TestC1Ev
FNDA:4,_ZN59hablantesSuperpuestosTEST_hablantesSuperpuestosValidos_TestC2Ev
FNDA:4,_ZN59hablantesSuperpuestosTEST_hablantesSuperpuestosValidos_TestD2Ev
FNDA:4,__cxx_global_var_init.7
FNDA:4,_ZN57hablantesSuperpuestosTEST_noHayHablantesSuperpuestos_Test8TestBodyEv
FNDA:4,_ZN57hablantesSuperpuestosTEST_noHayHablantesSuperpuestos_TestD1Ev
FNDA:4,_ZN57hablantesSuperpuestosTEST_noHayHablantesSuperpuestos_TestD0Ev
FNDA:4,_ZN57hablantesSuperpuestosTEST_noHayHablantesSuperpuestos_TestC1Ev
FNDA:4,_ZN57hablantesSuperpuestosTEST_noHayHablantesSuperpuestos_TestC2Ev
FNDA:4,_ZN57hablantesSuperpuestosTEST_noHayHablantesSuperpuestos_TestD2Ev
FNDA:4,__cxx_global_var_init.11
FNDA:4,_ZN73hablantesSuperpuestosTEST_hablantesSuperpuestosAlFinalEigualAlUmbral_Test8TestBodyEv
FNDA:4,_ZN73hablantesSuperpuestosTEST_hablantesSuperpuestosAlFinalEigualAlUmbral_TestD1Ev
FNDA:4,_ZN73hablantesSuperpuestosTEST_hablantesSuperpuestosAlFinalEigualAlUmbral_TestD0Ev
FNDA:4,_ZN73hablantesSuperpuestosTEST_hablantesSuperpuestosAlFinalEigualAlUmbral_TestC1Ev
FNDA:4,_ZN73hablantesSuperpuestosTEST_hablantesSuperpuestosAlFinalEigualAlUmbral_TestC2Ev
FNDA:4,_ZN73hablantesSuperpuestosTEST_hablantesSuperpuestosAlFinalEigualAlUmbral_TestD2Ev
FNDA:4,__cxx_global_var_init.15
FNDA:4,_ZN59hablantesSuperpuestosTEST_hablantesSuperpuestosAlFinal_Test8TestBodyEv
FNDA:4,_ZN59hablantesSuperpuestosTEST_hablantesSuperpuestosAlFinal_TestD1Ev
FNDA:4,_ZN59hablantesSuperpuestosTEST_hablantesSuperpuestosAlFinal_TestD0Ev
FNDA:4,_ZN59hablantesSuperpuestosTEST_hablantesSuperpuestosAlFinal_TestC1Ev
FNDA:4,_ZN59hablantesSuperpuestosTEST_hablantesSuperpuestosAlFinal_TestC2Ev
FNDA:4,_ZN59hablantesSuperpuestosTEST_hablantesSuperpuestosAlFinal_TestD2Ev
FNDA:4,__cxx_global_var_init.20
FNDA:4,_ZN80hablantesSuperpuestosTEST_noHablantesSuperpuestosAlFinalPeroSuperanElUmbral_Test8TestBodyEv
FNDA:4,_ZN80hablantesSuperpuestosTEST_noHablantesSuperpuestosAlFinalPeroSuperanElUmbral_TestD1Ev
FNDA:4,_ZN80hablantesSuperpuestosTEST_noHablantesSuperpuestosAlFinalPeroSuperanElUmbral_TestD0Ev
FNDA:4,_ZN80hablantesSuperpuestosTEST_noHablantesSuperpuestosAlFinalPeroSuperanElUmbral_TestC1Ev
FNDA:4,_ZN80hablantesSuperpuestosTEST_noHablantesSuperpuestosAlFinalPeroSuperanElUmbral_TestC2Ev
FNDA:4,_ZN80hablantesSuperpuestosTEST_noHablantesSuperpuestosAlFinalPeroSuperanElUmbral_TestD2Ev
FNF:35
FNH:35
DA:8,28
DA:9,4
DA:10,4
DA:11,8
DA:12,4
DA:13,4
DA:14,4
DA:16,4
DA:17,4
DA:19,28
DA:21,4
DA:22,4
DA:23,8
DA:24,4
DA:25,4
DA:26,4
DA:28,4
DA:29,4
DA:31,28
DA:33,4
DA:34,4
DA:35,8
DA:36,4
DA:37,4
DA:38,4
DA:40,4
DA:41,4
DA:43,28
DA:45,4
DA:46,4
DA:47,4
DA:48,12
DA:49,4
DA:50,4
DA:51,4
DA:53,4
DA:54,4
DA:56,28
DA:58,4
DA:59,4
DA:60,4
DA:61,12
DA:62,4
DA:63,4
DA:64,4
DA:66,4
DA:67,4
LF:47
LH:47
end_of_record
TN:
SF:/Library/Developer/CommandLineTools/usr/include/c++/v1/__string
FN:218,_ZNSt3__111char_traitsIcE6lengthEPKc
FNDA:0,_ZNSt3__111char_traitsIcE6lengthEPKc
FNF:1
FNH:0
DA:218,0
LF:1
LH:0
end_of_record
SF:/Library/Developer/CommandLineTools/usr/include/c++/v1/algorithm
FN:716,_ZNKSt3__16__lessImmEclERKmS3_
FN:2454,_ZNSt3__1L3minImNS_6__lessImmEEEERKT_S5_S5_T0_
FN:2462,_ZNSt3__1L3minImEERKT_S3_S3_
FNDA:0,_ZNKSt3__16__lessImmEclERKmS3_
FNDA:0,_ZNSt3__1L3minImNS_6__lessImmEEEERKT_S5_S5_T0_
FNDA:0,_ZNSt3__1L3minImEERKT_S3_S3_
FNF:3
FNH:0
DA:716,0
DA:2454,0
DA:2456,0
DA:2462,0
DA:2464,0
LF:5
LH:0
end_of_record
SF:/Library/Developer/CommandLineTools/usr/include/c++/v1/initializer_list
FN:85,_ZNKSt16initializer_listIiE4sizeEv
FN:89,_ZNKSt16initializer_listIiE5beginEv
FN:93,_ZNKSt16initializer_listIiE3endEv
FNDA:96,_ZNKSt16initializer_listIiE4sizeEv
FNDA:32,_ZNKSt16initializer_listIiE5beginEv
FNDA:32,_ZNKSt16initializer_listIiE3endEv
FNF:3
FNH:3
DA:85,96
DA:89,32
DA:93,32
LF:3
LH:3
end_of_record
SF:/Library/Developer/CommandLineTools/usr/include/c++/v1/limits
FN:215,_ZNSt3__123__libcpp_numeric_limitsIlLb1EE3maxEv
FN:452,_ZNSt3__114numeric_limitsIlE3maxEv
FNDA:0,_ZNSt3__123__libcpp_numeric_limitsIlLb1EE3maxEv
FNDA:0,_ZNSt3__114numeric_limitsIlE3maxEv
FNF:2
FNH:0
DA:215,0
DA:452,0
LF:2
LH:0
end_of_record
SF:/Library/Developer/CommandLineTools/usr/include/c++/v1/memory
FN:1106,_ZNSt3__1L16__to_raw_pointerIiEEPT_S2_
FN:1546,_ZNSt3__116allocator_traitsINS_9allocatorIiEEE8allocateERS2_m
FN:1554,_ZNSt3__116allocator_traitsINS_9allocatorIiEEE10deallocateERS2_Pim
FN:1595,_ZNSt3__116allocator_traitsINS_9allocatorIiEEE7destroyIiEEvRS2_PT_
FN:1599,_ZNSt3__116allocator_traitsINS_9allocatorIiEEE8max_sizeERKS2_
FN:1604,_ZNSt3__116allocator_traitsINS_9allocatorIiEEE37select_on_container_copy_constructionERKS2_
FN:1662,_ZNSt3__116allocator_traitsINS_9allocatorIiEEE25__construct_range_forwardIiiiiEENS_9enable_ifIXaaaasr31is_trivially_move_constructibleIT0_EE5valuesr7is_sameIT1_T2_EE5valueooL_ZNS_17integral_constantIbLb1EE5valueEEntsr15__has_constructIS2_PS6_RT_EE5valueEvE4typeERS2_PSC_SH_RSB_
FN:1662,_ZNSt3__116allocator_traitsINS_9allocatorIiEEE25__construct_range_forwardIKiiiiEENS_9enable_ifIXaaaasr31is_trivially_move_constructibleIT0_EE5valuesr7is_sameIT1_T2_EE5valueooL_ZNS_17integral_constantIbLb1EE5valueEEntsr15__has_constructIS2_PS7_RT_EE5valueEvE4typeERS2_PSD_SI_RSC_
FN:1742,_ZNSt3__116allocator_traitsINS_9allocatorIiEEE9__destroyIiEEvNS_17integral_constantIbLb1EEERS2_PT_
FN:1752,_ZNSt3__116allocator_traitsINS_9allocatorIiEEE10__max_sizeENS_17integral_constantIbLb1EEERKS2_
FN:1764,_ZNSt3__116allocator_traitsINS_9allocatorIiEEE39__select_on_container_copy_constructionENS_17integral_constantIbLb0EEERKS2_
FN:1798,_ZNSt3__19allocatorIcEC2Ev
FN:1798,_ZNSt3__19allocatorIiEC2Ev
FN:1809,_ZNSt3__19allocatorIiE8allocateEmPKv
FN:1816,_ZNSt3__19allocatorIiE10deallocateEPim
FN:1818,_ZNKSt3__19allocatorIiE8max_sizeEv
FN:1881,_ZNSt3__19allocatorIiE7destroyEPi
FN:2140,_ZNSt3__122__compressed_pair_elemINS_12basic_stringIcNS_11char_traitsIcEENS_9allocatorIcEEE5__repELi0ELb0EEC2Ev
FN:2147,_ZNSt3__122__compressed_pair_elemIPiLi0ELb0EEC2IDnvEEOT_
FN:2163,_ZNSt3__122__compressed_pair_elemIPiLi0ELb0EE5__getEv
FN:2165,_ZNKSt3__122__compressed_pair_elemIPiLi0ELb0EE5__getEv
FN:2179,_ZNSt3__122__compressed_pair_elemINS_9allocatorIiEELi1ELb1EEC2Ev
FN:2179,_ZNSt3__122__compressed_pair_elemINS_9allocatorIcEELi1ELb1EEC2Ev
FN:2186,_ZNSt3__122__compressed_pair_elemINS_9allocatorIiEELi1ELb1EEC2IS2_vEEOT_
FN:2202,_ZNSt3__122__compressed_pair_elemINS_9allocatorIiEELi1ELb1EE5__getEv
FN:2204,_ZNKSt3__122__compressed_pair_elemINS_9allocatorIiEELi1ELb1EE5__getEv
FN:2234,_ZNSt3__117__compressed_pairINS_12basic_stringIcNS_11char_traitsIcEENS_9allocatorIcEEE5__repES5_EC2ILb1EvEEv
FN:2234,_ZNSt3__117__compressed_pairINS_12basic_stringIcNS_11char_traitsIcEENS_9allocatorIcEEE5__repES5_EC1ILb1EvEEv
FN:2240,_ZNSt3__117__compressed_pairIPiNS_9allocatorIiEEEC1IDnLb1EEEOT_
FN:2240,_ZNSt3__117__compressed_pairIPiNS_9allocatorIiEEEC2IDnLb1EEEOT_
FN:2250,_ZNSt3__117__compressed_pairIPiNS_9allocatorIiEEEC1IDnS3_EEOT_OT0_
FN:2250,_ZNSt3__117__compressed_pairIPiNS_9allocatorIiEEEC2IDnS3_EEOT_OT0_
FN:2279,_ZNSt3__117__compressed_pairIPiNS_9allocatorIiEEE5firstEv
FN:2284,_ZNKSt3__117__compressed_pairIPiNS_9allocatorIiEEE5firstEv
FN:2289,_ZNSt3__117__compressed_pairIPiNS_9allocatorIiEEE6secondEv
FN:2294,_ZNKSt3__117__compressed_pairIPiNS_9allocatorIiEEE6secondEv
FNDA:384,_ZNSt3__1L16__to_raw_pointerIiEEPT_S2_
FNDA:0,_ZNSt3__116allocator_traitsINS_9allocatorIiEEE8allocateERS2_m
FNDA:0,_ZNSt3__116allocator_traitsINS_9allocatorIiEEE10deallocateERS2_Pim
FNDA:0,_ZNSt3__116allocator_traitsINS_9allocatorIiEEE7destroyIiEEvRS2_PT_
FNDA:0,_ZNSt3__116allocator_traitsINS_9allocatorIiEEE8max_sizeERKS2_
FNDA:0,_ZNSt3__116allocator_traitsINS_9allocatorIiEEE37select_on_container_copy_constructionERKS2_
FNDA:0,_ZNSt3__116allocator_traitsINS_9allocatorIiEEE25__construct_range_forwardIKiiiiEENS_9enable_ifIXaaaasr31is_trivially_move_constructibleIT0_EE5valuesr7is_sameIT1_T2_EE5valueooL_ZNS_17integral_constantIbLb1EE5valueEEntsr15__has_constructIS2_PS7_RT_EE5valueEvE4typeERS2_PSD_SI_RSC_
FNDA:0,_ZNSt3__116allocator_traitsINS_9allocatorIiEEE25__construct_range_forwardIiiiiEENS_9enable_ifIXaaaasr31is_trivially_move_constructibleIT0_EE5valuesr7is_sameIT1_T2_EE5valueooL_ZNS_17integral_constantIbLb1EE5valueEEntsr15__has_constructIS2_PS6_RT_EE5valueEvE4typeERS2_PSC_SH_RSB_
FNDA:0,_ZNSt3__116allocator_traitsINS_9allocatorIiEEE9__destroyIiEEvNS_17integral_constantIbLb1EEERS2_PT_
FNDA:0,_ZNSt3__116allocator_traitsINS_9allocatorIiEEE10__max_sizeENS_17integral_constantIbLb1EEERKS2_
FNDA:0,_ZNSt3__116allocator_traitsINS_9allocatorIiEEE39__select_on_container_copy_constructionENS_17integral_constantIbLb0EEERKS2_
FNDA:16,_ZNSt3__19allocatorIcEC2Ev
FNDA:32,_ZNSt3__19allocatorIiEC2Ev
FNDA:0,_ZNSt3__19allocatorIiE8allocateEmPKv
FNDA:0,_ZNSt3__19allocatorIiE10deallocateEPim
FNDA:0,_ZNKSt3__19allocatorIiE8max_sizeEv
FNDA:0,_ZNSt3__19allocatorIiE7destroyEPi
FNDA:16,_ZNSt3__122__compressed_pair_elemINS_12basic_stringIcNS_11char_traitsIcEENS_9allocatorIcEEE5__repELi0ELb0EEC2Ev
FNDA:32,_ZNSt3__122__compressed_pair_elemIPiLi0ELb0EEC2IDnvEEOT_
FNDA:0,_ZNSt3__122__compressed_pair_elemIPiLi0ELb0EE5__getEv
FNDA:192,_ZNKSt3__122__compressed_pair_elemIPiLi0ELb0EE5__getEv
FNDA:16,_ZNSt3__122__compressed_pair_elemINS_9allocatorIcEELi1ELb1EEC2Ev
FNDA:32,_ZNSt3__122__compressed_pair_elemINS_9allocatorIiEELi1ELb1EEC2Ev
FNDA:0,_ZNSt3__122__compressed_pair_elemINS_9allocatorIiEELi1ELb1EEC2IS2_vEEOT_
FNDA:0,_ZNSt3__122__compressed_pair_elemINS_9allocatorIiEELi1ELb1EE5__getEv
FNDA:0,_ZNKSt3__122__compressed_pair_elemINS_9allocatorIiEELi1ELb1EE5__getEv
FNDA:16,_ZNSt3__117__compressed_pairINS_12basic_stringIcNS_11char_traitsIcEENS_9allocatorIcEEE5__repES5_EC1ILb1EvEEv
FNDA:16,_ZNSt3__117__compressed_pairINS_12basic_stringIcNS_11char_traitsIcEENS_9allocatorIcEEE5__repES5_EC2ILb1EvEEv
FNDA:32,_ZNSt3__117__compressed_pairIPiNS_9allocatorIiEEEC1IDnLb1EEEOT_
FNDA:32,_ZNSt3__117__compressed_pairIPiNS_9allocatorIiEEEC2IDnLb1EEEOT_
FNDA:0,_ZNSt3__117__compressed_pairIPiNS_9allocatorIiEEEC1IDnS3_EEOT_OT0_
FNDA:0,_ZNSt3__117__compressed_pairIPiNS_9allocatorIiEEEC2IDnS3_EEOT_OT0_
FNDA:0,_ZNSt3__117__compressed_pairIPiNS_9allocatorIiEEE5firstEv
FNDA:192,_ZNKSt3__117__compressed_pairIPiNS_9allocatorIiEEE5firstEv
FNDA:0,_ZNSt3__117__compressed_pairIPiNS_9allocatorIiEEE6secondEv
FNDA:0,_ZNKSt3__117__compressed_pairIPiNS_9allocatorIiEEE6secondEv
FNF:36
FNH:13
DA:1106,384
DA:1108,384
DA:1546,0
DA:1547,0
DA:1554,0
DA:1555,0
DA:1595,0
DA:1596,0
DA:1599,0
DA:1600,0
DA:1604,0
DA:1605,0
DA:1606,0
DA:1607,0
DA:1662,0
DA:1664,0
DA:1665,0
DA:1667,0
DA:1668,0
DA:1669,0
DA:1670,0
DA:1742,0
DA:1743,0
DA:1752,0
DA:1753,0
DA:1764,0
DA:1765,0
DA:1798,48
DA:1809,0
DA:1811,0
DA:1812,0
DA:1814,0
DA:1816,0
DA:1817,0
DA:1818,0
DA:1819,0
DA:1881,0
DA:2140,16
DA:2147,32
DA:2148,32
DA:2150,32
DA:2163,0
DA:2165,192
DA:2179,48
DA:2186,0
DA:2187,0
DA:2188,0
DA:2202,0
DA:2204,0
DA:2234,32
DA:2240,64
DA:2241,64
DA:2250,0
DA:2251,0
DA:2279,0
DA:2280,0
DA:2284,192
DA:2285,192
DA:2289,0
DA:2290,0
DA:2294,0
DA:2295,0
LF:62
LH:14
end_of_record
SF:/Library/Developer/CommandLineTools/usr/include/c++/v1/new
FN:223,_ZNSt3__1L17__libcpp_allocateEmm
FN:245,_ZNSt3__117_DeallocateCaller33__do_deallocate_handle_size_alignEPvmm
FN:275,_ZNSt3__117_DeallocateCaller27__do_deallocate_handle_sizeEPvm
FN:316,_ZNSt3__117_DeallocateCaller9__do_callEPv
FN:325,_ZNSt3__1L19__libcpp_deallocateEPvmm
FNDA:0,_ZNSt3__1L17__libcpp_allocateEmm
FNDA:0,_ZNSt3__117_DeallocateCaller33__do_deallocate_handle_size_alignEPvmm
FNDA:0,_ZNSt3__117_DeallocateCaller27__do_deallocate_handle_sizeEPvm
FNDA:0,_ZNSt3__117_DeallocateCaller9__do_callEPv
FNDA:0,_ZNSt3__1L19__libcpp_deallocateEPvmm
FNF:5
FNH:0
DA:223,0
DA:239,0
DA:245,0
DA:248,0
DA:275,0
DA:278,0
DA:316,0
DA:320,0
DA:325,0
DA:326,0
DA:327,0
LF:11
LH:0
end_of_record
SF:/Library/Developer/CommandLineTools/usr/include/c++/v1/stdexcept
FN:136,_ZNSt12length_errorC2EPKc
FN:136,_ZNSt12length_errorC1EPKc
FN:222,_ZNSt3__1L20__throw_length_errorEPKc
FNDA:0,_ZNSt12length_errorC1EPKc
FNDA:0,_ZNSt12length_errorC2EPKc
FNDA:0,_ZNSt3__1L20__throw_length_errorEPKc
FNF:3
FNH:0
DA:136,0
DA:222,0
DA:225,0
DA:230,0
LF:4
LH:0
end_of_record
SF:/Library/Developer/CommandLineTools/usr/include/c++/v1/string
FN:818,_ZNSt3__112basic_stringIcNS_11char_traitsIcEENS_9allocatorIcEEEC2IDnEEPKc
FN:818,_ZNSt3__112basic_stringIcNS_11char_traitsIcEENS_9allocatorIcEEEC1IDnEEPKc
FNDA:16,_ZNSt3__112basic_stringIcNS_11char_traitsIcEENS_9allocatorIcEEEC1IDnEEPKc
FNDA:16,_ZNSt3__112basic_stringIcNS_11char_traitsIcEENS_9allocatorIcEEEC2IDnEEPKc
FNF:2
FNH:2
DA:818,32
DA:820,16
DA:824,32
LF:3
LH:3
end_of_record
SF:/Library/Developer/CommandLineTools/usr/include/c++/v1/type_traits
FN:2310,_ZNSt3__1L4moveIRNS_9allocatorIiEEEEONS_16remove_referenceIT_E4typeEOS5_
FN:2319,_ZNSt3__1L7forwardINS_9allocatorIiEEEEOT_RNS_16remove_referenceIS3_E4typeE
FN:2319,_ZNSt3__1L7forwardIDnEEOT_RNS_16remove_referenceIS1_E4typeE
FNDA:0,_ZNSt3__1L4moveIRNS_9allocatorIiEEEEONS_16remove_referenceIT_E4typeEOS5_
FNDA:64,_ZNSt3__1L7forwardIDnEEOT_RNS_16remove_referenceIS1_E4typeE
FNDA:0,_ZNSt3__1L7forwardINS_9allocatorIiEEEEOT_RNS_16remove_referenceIS3_E4typeE
FNF:3
FNH:1
DA:2310,0
DA:2313,0
DA:2319,64
DA:2321,64
LF:4
LH:2
end_of_record
SF:/Library/Developer/CommandLineTools/usr/include/c++/v1/vector
FN:304,_ZNSt3__120__vector_base_commonILb1EEC2Ev
FN:348,_ZNSt3__113__vector_baseIiNS_9allocatorIiEEE7__allocEv
FN:351,_ZNKSt3__113__vector_baseIiNS_9allocatorIiEEE7__allocEv
FN:354,_ZNSt3__113__vector_baseIiNS_9allocatorIiEEE9__end_capEv
FN:357,_ZNKSt3__113__vector_baseIiNS_9allocatorIiEEE9__end_capEv
FN:370,_ZNSt3__113__vector_baseIiNS_9allocatorIiEEE5clearEv
FN:372,_ZNKSt3__113__vector_baseIiNS_9allocatorIiEEE8capacityEv
FN:423,_ZNSt3__113__vector_baseIiNS_9allocatorIiEEE17__destruct_at_endEPi
FN:433,_ZNSt3__113__vector_baseIiNS_9allocatorIiEEEC2Ev
FN:453,_ZNSt3__113__vector_baseIiNS_9allocatorIiEEEC2EOS2_
FN:460,_ZNSt3__113__vector_baseIiNS_9allocatorIiEEED2Ev
FN:550,_ZNSt3__16vectorIiNS_9allocatorIiEEED2Ev
FN:550,_ZNSt3__16vectorIiNS_9allocatorIiEEED1Ev
FN:656,_ZNKSt3__16vectorIiNS_9allocatorIiEEE4sizeEv
FN:659,_ZNKSt3__16vectorIiNS_9allocatorIiEEE8capacityEv
FN:698,_ZNKSt3__16vectorIiNS_9allocatorIiEEE4dataEv
FN:862,_ZNKSt3__16vectorIiNS_9allocatorIiEEE31__annotate_contiguous_containerEPKvS5_S5_S5_
FN:866,_ZNKSt3__16vectorIiNS_9allocatorIiEEE14__annotate_newEm
FN:872,_ZNKSt3__16vectorIiNS_9allocatorIiEEE17__annotate_deleteEv
FN:910,_ZNSt3__16vectorIiNS_9allocatorIiEEE24__RAII_IncreaseAnnotatorC1ERKS3_m
FN:910,_ZNSt3__16vectorIiNS_9allocatorIiEEE24__RAII_IncreaseAnnotatorC2ERKS3_m
FN:911,_ZNSt3__16vectorIiNS_9allocatorIiEEE24__RAII_IncreaseAnnotator6__doneEv
FN:973,_ZNSt3__16vectorIiNS_9allocatorIiEEE11__vallocateEm
FN:996,_ZNKSt3__16vectorIiNS_9allocatorIiEEE8max_sizeEv
FN:1066,_ZNSt3__16vectorIiNS_9allocatorIiEEE18__construct_at_endIPiEENS_9enable_ifIXsr21__is_forward_iteratorIT_EE5valueEvE4typeES7_S7_m
FN:1066,_ZNSt3__16vectorIiNS_9allocatorIiEEE18__construct_at_endIPKiEENS_9enable_ifIXsr21__is_forward_iteratorIT_EE5valueEvE4typeES8_S8_m
FN:1243,_ZNSt3__16vectorIiNS_9allocatorIiEEEC2ERKS3_
FN:1243,_ZNSt3__16vectorIiNS_9allocatorIiEEEC1ERKS3_
FN:1321,_ZNSt3__16vectorIiNS_9allocatorIiEEEC1ESt16initializer_listIiE
FN:1321,_ZNSt3__16vectorIiNS_9allocatorIiEEEC2ESt16initializer_listIiE
FNDA:32,_ZNSt3__120__vector_base_commonILb1EEC2Ev
FNDA:0,_ZNSt3__113__vector_baseIiNS_9allocatorIiEEE7__allocEv
FNDA:0,_ZNKSt3__113__vector_baseIiNS_9allocatorIiEEE7__allocEv
FNDA:0,_ZNSt3__113__vector_baseIiNS_9allocatorIiEEE9__end_capEv
FNDA:192,_ZNKSt3__113__vector_baseIiNS_9allocatorIiEEE9__end_capEv
FNDA:0,_ZNSt3__113__vector_baseIiNS_9allocatorIiEEE5clearEv
FNDA:192,_ZNKSt3__113__vector_baseIiNS_9allocatorIiEEE8capacityEv
FNDA:0,_ZNSt3__113__vector_baseIiNS_9allocatorIiEEE17__destruct_at_endEPi
FNDA:32,_ZNSt3__113__vector_baseIiNS_9allocatorIiEEEC2Ev
FNDA:0,_ZNSt3__113__vector_baseIiNS_9allocatorIiEEEC2EOS2_
FNDA:0,_ZNSt3__113__vector_baseIiNS_9allocatorIiEEED2Ev
FNDA:96,_ZNSt3__16vectorIiNS_9allocatorIiEEED1Ev
FNDA:96,_ZNSt3__16vectorIiNS_9allocatorIiEEED2Ev
FNDA:96,_ZNKSt3__16vectorIiNS_9allocatorIiEEE4sizeEv
FNDA:192,_ZNKSt3__16vectorIiNS_9allocatorIiEEE8capacityEv
FNDA:384,_ZNKSt3__16vectorIiNS_9allocatorIiEEE4dataEv
FNDA:96,_ZNKSt3__16vectorIiNS_9allocatorIiEEE31__annotate_contiguous_containerEPKvS5_S5_S5_
FNDA:0,_ZNKSt3__16vectorIiNS_9allocatorIiEEE14__annotate_newEm
FNDA:96,_ZNKSt3__16vectorIiNS_9allocatorIiEEE17__annotate_deleteEv
FNDA:0,_ZNSt3__16vectorIiNS_9allocatorIiEEE24__RAII_IncreaseAnnotatorC1ERKS3_m
FNDA:0,_ZNSt3__16vectorIiNS_9allocatorIiEEE24__RAII_IncreaseAnnotatorC2ERKS3_m
FNDA:0,_ZNSt3__16vectorIiNS_9allocatorIiEEE24__RAII_IncreaseAnnotator6__doneEv
FNDA:0,_ZNSt3__16vectorIiNS_9allocatorIiEEE11__vallocateEm
FNDA:0,_ZNKSt3__16vectorIiNS_9allocatorIiEEE8max_sizeEv
FNDA:0,_ZNSt3__16vectorIiNS_9allocatorIiEEE18__construct_at_endIPKiEENS_9enable_ifIXsr21__is_forward_iteratorIT_EE5valueEvE4typeES8_S8_m
FNDA:0,_ZNSt3__16vectorIiNS_9allocatorIiEEE18__construct_at_endIPiEENS_9enable_ifIXsr21__is_forward_iteratorIT_EE5valueEvE4typeES7_S7_m
FNDA:0,_ZNSt3__16vectorIiNS_9allocatorIiEEEC1ERKS3_
FNDA:0,_ZNSt3__16vectorIiNS_9allocatorIiEEEC2ERKS3_
FNDA:32,_ZNSt3__16vectorIiNS_9allocatorIiEEEC1ESt16initializer_listIiE
FNDA:32,_ZNSt3__16vectorIiNS_9allocatorIiEEEC2ESt16initializer_listIiE
FNF:30
FNH:13
DA:304,32
DA:348,0
DA:349,0
DA:351,0
DA:352,0
DA:354,0
DA:355,0
DA:357,192
DA:358,192
DA:361,32
DA:365,0
DA:370,0
DA:372,192
DA:373,192
DA:423,0
DA:425,0
DA:426,0
DA:427,0
DA:428,0
DA:429,0
DA:433,32
DA:435,32
DA:436,32
DA:437,32
DA:438,32
DA:439,32
DA:453,0
DA:454,0
DA:455,0
DA:456,0
DA:460,0
DA:462,0
DA:464,0
DA:465,0
DA:466,0
DA:467,0
DA:550,192
DA:551,96
DA:552,96
DA:556,192
DA:565,32
DA:656,96
DA:657,96
DA:659,192
DA:660,192
DA:698,384
DA:699,384
DA:862,96
DA:863,96
DA:866,0
DA:867,0
DA:868,0
DA:869,0
DA:872,96
DA:873,192
DA:874,96
DA:875,96
DA:910,0
DA:911,0
DA:973,0
DA:975,0
DA:976,0
DA:977,0
DA:978,0
DA:979,0
DA:980,0
DA:996,0
DA:998,0
DA:999,0
DA:1066,0
DA:1068,0
DA:1069,0
DA:1070,0
DA:1071,0
DA:1072,0
DA:1243,0
DA:1244,0
DA:1245,0
DA:1249,0
DA:1250,0
DA:1252,0
DA:1253,0
DA:1254,0
DA:1255,0
DA:1321,64
DA:1322,64
DA:1326,32
DA:1328,32
DA:1329,32
DA:1330,32
DA:1331,64
LF:91
LH:36
end_of_record
SF:/Users/usuario/Desktop/LabAlgo1/tp2/reunionesRemotas/lib/gtest.h
FN:8201,_ZN7testing8internal15TestFactoryBaseD1Ev
FN:8201,_ZN7testing8internal15TestFactoryBaseD2Ev
FN:8201,_ZN7testing8internal15TestFactoryBaseD0Ev
FN:8208,_ZN7testing8internal15TestFactoryBaseC2Ev
FN:8217,_ZN7testing8internal15TestFactoryImplI39reconstruirTEST_reconstruirValidos_TestEC2Ev
FN:8217,_ZN7testing8internal15TestFactoryImplI55reconstruirTEST_reconstruirValidosConPasajePorCero_TestED1Ev
FN:8217,_ZN7testing8internal15TestFactoryImplI39reconstruirTEST_reconstruirValidos_TestED2Ev
FN:8217,_ZN7testing8internal15TestFactoryImplI46reconstruirTEST_reconstruirSenialSinCeros_TestEC1Ev
FN:8217,_ZN7testing8internal15TestFactoryImplI55reconstruirTEST_reconstruirSenialConDistanciaCinco_TestED1Ev
FN:8217,_ZN7testing8internal15TestFactoryImplI46reconstruirTEST_reconstruirSenialSinCeros_TestED0Ev
FN:8217,_ZN7testing8internal15TestFactoryImplI39reconstruirTEST_reconstruirValidos_TestEC1Ev
FN:8217,_ZN7testing8internal15TestFactoryImplI39reconstruirTEST_reconstruirValidos_TestED0Ev
FN:8217,_ZN7testing8internal15TestFactoryImplI55reconstruirTEST_reconstruirValidosConPasajePorCero_TestEC2Ev
FN:8217,_ZN7testing8internal15TestFactoryImplI55reconstruirTEST_reconstruirSenialConDistanciaCinco_TestED0Ev
FN:8217,_ZN7testing8internal15TestFactoryImplI55reconstruirTEST_reconstruirValidosConPasajePorCero_TestEC1Ev
FN:8217,_ZN7testing8internal15TestFactoryImplI55reconstruirTEST_reconstruirValidosConPasajePorCero_TestED2Ev
FN:8217,_ZN7testing8internal15TestFactoryImplI46reconstruirTEST_reconstruirSenialSinCeros_TestEC2Ev
FN:8217,_ZN7testing8internal15TestFactoryImplI39reconstruirTEST_reconstruirValidos_TestED1Ev
FN:8217,_ZN7testing8internal15TestFactoryImplI55reconstruirTEST_reconstruirSenialConDistanciaCinco_TestEC1Ev
FN:8217,_ZN7testing8internal15TestFactoryImplI55reconstruirTEST_reconstruirValidosConPasajePorCero_TestED0Ev
FN:8217,_ZN7testing8internal15TestFactoryImplI46reconstruirTEST_reconstruirSenialSinCeros_TestED2Ev
FN:8217,_ZN7testing8internal15TestFactoryImplI55reconstruirTEST_reconstruirSenialConDistanciaCinco_TestED2Ev
FN:8217,_ZN7testing8internal15TestFactoryImplI46reconstruirTEST_reconstruirSenialSinCeros_TestED1Ev
FN:8217,_ZN7testing8internal15TestFactoryImplI55reconstruirTEST_reconstruirSenialConDistanciaCinco_TestEC2Ev
FN:8219,_ZN7testing8internal15TestFactoryImplI39reconstruirTEST_reconstruirValidos_TestE10CreateTestEv
FN:8219,_ZN7testing8internal15TestFactoryImplI55reconstruirTEST_reconstruirSenialConDistanciaCinco_TestE10CreateTestEv
FN:8219,_ZN7testing8internal15TestFactoryImplI55reconstruirTEST_reconstruirValidosConPasajePorCero_TestE10CreateTestEv
FN:8219,_ZN7testing8internal15TestFactoryImplI46reconstruirTEST_reconstruirSenialSinCeros_TestE10CreateTestEv
FN:8239,_ZN7testing8internal12CodeLocationD1Ev
FN:8239,_ZN7testing8internal12CodeLocationD2Ev
FN:8240,_ZN7testing8internal12CodeLocationC2ERKNSt3__112basic_stringIcNS2_11char_traitsIcEENS2_9allocatorIcEEEEi
FN:8240,_ZN7testing8internal12CodeLocationC1ERKNSt3__112basic_stringIcNS2_11char_traitsIcEENS2_9allocatorIcEEEEi
FN:18988,_ZN7testing4Test13SetUpTestCaseEv
FN:18996,_ZN7testing4Test16TearDownTestCaseEv
FN:19073,_ZN7testing4Test5SetupEv
FNDA:0,_ZN7testing8internal15TestFactoryBaseD1Ev
FNDA:0,_ZN7testing8internal15TestFactoryBaseD0Ev
FNDA:0,_ZN7testing8internal15TestFactoryBaseD2Ev
FNDA:0,_ZN7testing8internal15TestFactoryBaseC2Ev
FNDA:4,_ZN7testing8internal15TestFactoryImplI39reconstruirTEST_reconstruirValidos_TestEC1Ev
FNDA:4,_ZN7testing8internal15TestFactoryImplI46reconstruirTEST_reconstruirSenialSinCeros_TestEC1Ev
FNDA:4,_ZN7testing8internal15TestFactoryImplI55reconstruirTEST_reconstruirSenialConDistanciaCinco_TestEC1Ev
FNDA:4,_ZN7testing8internal15TestFactoryImplI55reconstruirTEST_reconstruirValidosConPasajePorCero_TestEC1Ev
FNDA:4,_ZN7testing8internal15TestFactoryImplI39reconstruirTEST_reconstruirValidos_TestEC2Ev
FNDA:4,_ZN7testing8internal15TestFactoryImplI39reconstruirTEST_reconstruirValidos_TestED1Ev
FNDA:4,_ZN7testing8internal15TestFactoryImplI39reconstruirTEST_reconstruirValidos_TestED0Ev
FNDA:4,_ZN7testing8internal15TestFactoryImplI39reconstruirTEST_reconstruirValidos_TestED2Ev
FNDA:4,_ZN7testing8internal15TestFactoryImplI46reconstruirTEST_reconstruirSenialSinCeros_TestEC2Ev
FNDA:4,_ZN7testing8internal15TestFactoryImplI46reconstruirTEST_reconstruirSenialSinCeros_TestED1Ev
FNDA:4,_ZN7testing8internal15TestFactoryImplI46reconstruirTEST_reconstruirSenialSinCeros_TestED0Ev
FNDA:4,_ZN7testing8internal15TestFactoryImplI46reconstruirTEST_reconstruirSenialSinCeros_TestED2Ev
FNDA:4,_ZN7testing8internal15TestFactoryImplI55reconstruirTEST_reconstruirSenialConDistanciaCinco_TestEC2Ev
FNDA:4,_ZN7testing8internal15TestFactoryImplI55reconstruirTEST_reconstruirSenialConDistanciaCinco_TestED1Ev
FNDA:4,_ZN7testing8internal15TestFactoryImplI55reconstruirTEST_reconstruirSenialConDistanciaCinco_TestED0Ev
FNDA:4,_ZN7testing8internal15TestFactoryImplI55reconstruirTEST_reconstruirSenialConDistanciaCinco_TestED2Ev
FNDA:4,_ZN7testing8internal15TestFactoryImplI55reconstruirTEST_reconstruirValidosConPasajePorCero_TestEC2Ev
FNDA:4,_ZN7testing8internal15TestFactoryImplI55reconstruirTEST_reconstruirValidosConPasajePorCero_TestED1Ev
FNDA:4,_ZN7testing8internal15TestFactoryImplI55reconstruirTEST_reconstruirValidosConPasajePorCero_TestED0Ev
FNDA:4,_ZN7testing8internal15TestFactoryImplI55reconstruirTEST_reconstruirValidosConPasajePorCero_TestED2Ev
FNDA:4,_ZN7testing8internal15TestFactoryImplI39reconstruirTEST_reconstruirValidos_TestE10CreateTestEv
FNDA:4,_ZN7testing8internal15TestFactoryImplI46reconstruirTEST_reconstruirSenialSinCeros_TestE10CreateTestEv
FNDA:4,_ZN7testing8internal15TestFactoryImplI55reconstruirTEST_reconstruirSenialConDistanciaCinco_TestE10CreateTestEv
FNDA:4,_ZN7testing8internal15TestFactoryImplI55reconstruirTEST_reconstruirValidosConPasajePorCero_TestE10CreateTestEv
FNDA:0,_ZN7testing8internal12CodeLocationD1Ev
FNDA:0,_ZN7testing8internal12CodeLocationD2Ev
FNDA:0,_ZN7testing8internal12CodeLocationC1ERKNSt3__112basic_stringIcNS2_11char_traitsIcEENS2_9allocatorIcEEEEi
FNDA:0,_ZN7testing8internal12CodeLocationC2ERKNSt3__112basic_stringIcNS2_11char_traitsIcEENS2_9allocatorIcEEEEi
FNDA:0,_ZN7testing4Test13SetUpTestCaseEv
FNDA:0,_ZN7testing4Test16TearDownTestCaseEv
FNDA:0,_ZN7testing4Test5SetupEv
FNF:35
FNH:24
DA:8201,0
DA:8208,0
DA:8217,80
DA:8219,16
DA:8239,0
DA:8240,0
DA:18988,0
DA:18996,0
DA:19073,0
LF:9
LH:2
end_of_record
SF:/Users/usuario/Desktop/LabAlgo1/tp2/reunionesRemotas/tests/reconstruir.cpp
FN:8,_ZN39reconstruirTEST_reconstruirValidos_TestC1Ev
FN:8,_ZN39reconstruirTEST_reconstruirValidos_Test8TestBodyEv
FN:8,_ZN39reconstruirTEST_reconstruirValidos_TestD1Ev
FN:8,__cxx_global_var_init
FN:8,_ZN39reconstruirTEST_reconstruirValidos_TestD2Ev
FN:8,_ZN39reconstruirTEST_reconstruirValidos_TestC2Ev
FN:8,_ZN39reconstruirTEST_reconstruirValidos_TestD0Ev
FN:20,_ZN46reconstruirTEST_reconstruirSenialSinCeros_TestD0Ev
FN:20,_ZN46reconstruirTEST_reconstruirSenialSinCeros_TestC1Ev
FN:20,_ZN46reconstruirTEST_reconstruirSenialSinCeros_TestC2Ev
FN:20,__cxx_global_var_init.4
FN:20,_ZN46reconstruirTEST_reconstruirSenialSinCeros_TestD1Ev
FN:20,_ZN46reconstruirTEST_reconstruirSenialSinCeros_Test8TestBodyEv
FN:20,_ZN46reconstruirTEST_reconstruirSenialSinCeros_TestD2Ev
FN:33,__cxx_global_var_init.8
FN:33,_ZN55reconstruirTEST_reconstruirSenialConDistanciaCinco_TestC1Ev
FN:33,_ZN55reconstruirTEST_reconstruirSenialConDistanciaCinco_TestD0Ev
FN:33,_ZN55reconstruirTEST_reconstruirSenialConDistanciaCinco_TestD1Ev
FN:33,_ZN55reconstruirTEST_reconstruirSenialConDistanciaCinco_TestC2Ev
FN:33,_ZN55reconstruirTEST_reconstruirSenialConDistanciaCinco_TestD2Ev
FN:33,_ZN55reconstruirTEST_reconstruirSenialConDistanciaCinco_Test8TestBodyEv
FN:46,_ZN55reconstruirTEST_reconstruirValidosConPasajePorCero_TestC2Ev
FN:46,_ZN55reconstruirTEST_reconstruirValidosConPasajePorCero_TestC1Ev
FN:46,__cxx_global_var_init.12
FN:46,_ZN55reconstruirTEST_reconstruirValidosConPasajePorCero_TestD1Ev
FN:46,_ZN55reconstruirTEST_reconstruirValidosConPasajePorCero_TestD2Ev
FN:46,_ZN55reconstruirTEST_reconstruirValidosConPasajePorCero_TestD0Ev
FN:46,_ZN55reconstruirTEST_reconstruirValidosConPasajePorCero_Test8TestBodyEv
FNDA:4,__cxx_global_var_init
FNDA:4,_ZN39reconstruirTEST_reconstruirValidos_Test8TestBodyEv
FNDA:4,_ZN39reconstruirTEST_reconstruirValidos_TestD1Ev
FNDA:4,_ZN39reconstruirTEST_reconstruirValidos_TestD0Ev
FNDA:4,_ZN39reconstruirTEST_reconstruirValidos_TestC1Ev
FNDA:4,_ZN39reconstruirTEST_reconstruirValidos_TestC2Ev
FNDA:4,_ZN39reconstruirTEST_reconstruirValidos_TestD2Ev
FNDA:4,__cxx_global_var_init.4
FNDA:4,_ZN46reconstruirTEST_reconstruirSenialSinCeros_Test8TestBodyEv
FNDA:4,_ZN46reconstruirTEST_reconstruirSenialSinCeros_TestD1Ev
FNDA:4,_ZN46reconstruirTEST_reconstruirSenialSinCeros_TestD0Ev
FNDA:4,_ZN46reconstruirTEST_reconstruirSenialSinCeros_TestC1Ev
FNDA:4,_ZN46reconstruirTEST_reconstruirSenialSinCeros_TestC2Ev
FNDA:4,_ZN46reconstruirTEST_reconstruirSenialSinCeros_TestD2Ev
FNDA:4,__cxx_global_var_init.8
FNDA:4,_ZN55reconstruirTEST_reconstruirSenialConDistanciaCinco_Test8TestBodyEv
FNDA:4,_ZN55reconstruirTEST_reconstruirSenialConDistanciaCinco_TestD1Ev
FNDA:4,_ZN55reconstruirTEST_reconstruirSenialConDistanciaCinco_TestD0Ev
FNDA:4,_ZN55reconstruirTEST_reconstruirSenialConDistanciaCinco_TestC1Ev
FNDA:4,_ZN55reconstruirTEST_reconstruirSenialConDistanciaCinco_TestC2Ev
FNDA:4,_ZN55reconstruirTEST_reconstruirSenialConDistanciaCinco_TestD2Ev
FNDA:4,__cxx_global_var_init.12
FNDA:4,_ZN55reconstruirTEST_reconstruirValidosConPasajePorCero_Test8TestBodyEv
FNDA:4,_ZN55reconstruirTEST_reconstruirValidosConPasajePorCero_TestD1Ev
FNDA:4,_ZN55reconstruirTEST_reconstruirValidosConPasajePorCero_TestD0Ev
FNDA:4,_ZN55reconstruirTEST_reconstruirValidosConPasajePorCero_TestC1Ev
FNDA:4,_ZN55reconstruirTEST_reconstruirValidosConPasajePorCero_TestC2Ev
FNDA:4,_ZN55reconstruirTEST_reconstruirValidosConPasajePorCero_TestD2Ev
FNF:28
FNH:28
DA:8,28
DA:9,4
DA:10,4
DA:11,4
DA:13,4
DA:15,4
DA:17,4
DA:18,4
DA:20,28
DA:22,4
DA:23,4
DA:24,4
DA:26,4
DA:28,4
DA:30,4
DA:31,4
DA:33,28
DA:35,4
DA:36,4
DA:37,4
DA:39,4
DA:41,4
DA:43,4
DA:44,4
DA:46,28
DA:48,4
DA:49,4
DA:50,4
DA:52,4
DA:54,4
DA:56,4
DA:57,4
LF:32
LH:32
end_of_record
TN:
SF:/Library/Developer/CommandLineTools/usr/include/c++/v1/__string
FN:218,_ZNSt3__111char_traitsIcE6lengthEPKc
FNDA:0,_ZNSt3__111char_traitsIcE6lengthEPKc
FNF:1
FNH:0
DA:218,0
LF:1
LH:0
end_of_record
SF:/Library/Developer/CommandLineTools/usr/include/c++/v1/algorithm
FN:716,_ZNKSt3__16__lessImmEclERKmS3_
FN:2454,_ZNSt3__1L3minImNS_6__lessImmEEEERKT_S5_S5_T0_
FN:2462,_ZNSt3__1L3minImEERKT_S3_S3_
FNDA:0,_ZNKSt3__16__lessImmEclERKmS3_
FNDA:0,_ZNSt3__1L3minImNS_6__lessImmEEEERKT_S5_S5_T0_
FNDA:0,_ZNSt3__1L3minImEERKT_S3_S3_
FNF:3
FNH:0
DA:716,0
DA:2454,0
DA:2456,0
DA:2462,0
DA:2464,0
LF:5
LH:0
end_of_record
SF:/Library/Developer/CommandLineTools/usr/include/c++/v1/initializer_list
FN:85,_ZNKSt16initializer_listIiE4sizeEv
FN:85,_ZNKSt16initializer_listINSt3__14pairINS0_6vectorIiNS0_9allocatorIiEEEEiEEE4sizeEv
FN:89,_ZNKSt16initializer_listINSt3__14pairINS0_6vectorIiNS0_9allocatorIiEEEEiEEE5beginEv
FN:89,_ZNKSt16initializer_listIiE5beginEv
FN:93,_ZNKSt16initializer_listINSt3__14pairINS0_6vectorIiNS0_9allocatorIiEEEEiEEE3endEv
FN:93,_ZNKSt16initializer_listIiE3endEv
FNDA:408,_ZNKSt16initializer_listIiE4sizeEv
FNDA:192,_ZNKSt16initializer_listINSt3__14pairINS0_6vectorIiNS0_9allocatorIiEEEEiEEE4sizeEv
FNDA:136,_ZNKSt16initializer_listIiE5beginEv
FNDA:64,_ZNKSt16initializer_listINSt3__14pairINS0_6vectorIiNS0_9allocatorIiEEEEiEEE5beginEv
FNDA:136,_ZNKSt16initializer_listIiE3endEv
FNDA:64,_ZNKSt16initializer_listINSt3__14pairINS0_6vectorIiNS0_9allocatorIiEEEEiEEE3endEv
FNF:6
FNH:6
DA:85,600
DA:89,200
DA:93,200
LF:3
LH:3
end_of_record
SF:/Library/Developer/CommandLineTools/usr/include/c++/v1/limits
FN:215,_ZNSt3__123__libcpp_numeric_limitsIlLb1EE3maxEv
FN:452,_ZNSt3__114numeric_limitsIlE3maxEv
FNDA:0,_ZNSt3__123__libcpp_numeric_limitsIlLb1EE3maxEv
FNDA:0,_ZNSt3__114numeric_limitsIlE3maxEv
FNF:2
FNH:0
DA:215,0
DA:452,0
LF:2
LH:0
end_of_record
SF:/Library/Developer/CommandLineTools/usr/include/c++/v1/memory
FN:1106,_ZNSt3__1L16__to_raw_pointerIiEEPT_S2_
FN:1106,_ZNSt3__1L16__to_raw_pointerINS_4pairINS_6vectorIiNS_9allocatorIiEEEEiEEEEPT_S8_
FN:1546,_ZNSt3__116allocator_traitsINS_9allocatorIiEEE8allocateERS2_m
FN:1546,_ZNSt3__116allocator_traitsINS_9allocatorINS_4pairINS_6vectorIiNS1_IiEEEEiEEEEE8allocateERS7_m
FN:1554,_ZNSt3__116allocator_traitsINS_9allocatorIiEEE10deallocateERS2_Pim
FN:1554,_ZNSt3__116allocator_traitsINS_9allocatorINS_4pairINS_6vectorIiNS1_IiEEEEiEEEEE10deallocateERS7_PS6_m
FN:1560,_ZNSt3__116allocator_traitsINS_9allocatorINS_4pairINS_6vectorIiNS1_IiEEEEiEEEEE9constructIS6_JRKS6_EEEvRS7_PT_DpOT0_
FN:1560,_ZNSt3__116allocator_traitsINS_9allocatorINS_4pairINS_6vectorIiNS1_IiEEEEiEEEEE9constructIS6_JRS6_EEEvRS7_PT_DpOT0_
FN:1595,_ZNSt3__116allocator_traitsINS_9allocatorIiEEE7destroyIiEEvRS2_PT_
FN:1595,_ZNSt3__116allocator_traitsINS_9allocatorINS_4pairINS_6vectorIiNS1_IiEEEEiEEEEE7destroyIS6_EEvRS7_PT_
FN:1599,_ZNSt3__116allocator_traitsINS_9allocatorINS_4pairINS_6vectorIiNS1_IiEEEEiEEEEE8max_sizeERKS7_
FN:1599,_ZNSt3__116allocator_traitsINS_9allocatorIiEEE8max_sizeERKS2_
FN:1604,_ZNSt3__116allocator_traitsINS_9allocatorIiEEE37select_on_container_copy_constructionERKS2_
FN:1604,_ZNSt3__116allocator_traitsINS_9allocatorINS_4pairINS_6vectorIiNS1_IiEEEEiEEEEE37select_on_container_copy_constructionERKS7_
FN:1643,_ZNSt3__116allocator_traitsINS_9allocatorINS_4pairINS_6vectorIiNS1_IiEEEEiEEEEE25__construct_range_forwardIPKS6_PS6_EEvRS7_T_SE_RT0_
FN:1643,_ZNSt3__116allocator_traitsINS_9allocatorINS_4pairINS_6vectorIiNS1_IiEEEEiEEEEE25__construct_range_forwardIPS6_SA_EEvRS7_T_SC_RT0_
FN:1662,_ZNSt3__116allocator_traitsINS_9allocatorIiEEE25__construct_range_forwardIiiiiEENS_9enable_ifIXaaaasr31is_trivially_move_constructibleIT0_EE5valuesr7is_sameIT1_T2_EE5valueooL_ZNS_17integral_constantIbLb1EE5valueEEntsr15__has_constructIS2_PS6_RT_EE5valueEvE4typeERS2_PSC_SH_RSB_
FN:1662,_ZNSt3__116allocator_traitsINS_9allocatorIiEEE25__construct_range_forwardIKiiiiEENS_9enable_ifIXaaaasr31is_trivially_move_constructibleIT0_EE5valuesr7is_sameIT1_T2_EE5valueooL_ZNS_17integral_constantIbLb1EE5valueEEntsr15__has_constructIS2_PS7_RT_EE5valueEvE4typeERS2_PSD_SI_RSC_
FN:1717,_ZNSt3__116allocator_traitsINS_9allocatorINS_4pairINS_6vectorIiNS1_IiEEEEiEEEEE11__constructIS6_JRKS6_EEEvNS_17integral_constantIbLb1EEERS7_PT_DpOT0_
FN:1717,_ZNSt3__116allocator_traitsINS_9allocatorINS_4pairINS_6vectorIiNS1_IiEEEEiEEEEE11__constructIS6_JRS6_EEEvNS_17integral_constantIbLb1EEERS7_PT_DpOT0_
FN:1742,_ZNSt3__116allocator_traitsINS_9allocatorIiEEE9__destroyIiEEvNS_17integral_constantIbLb1EEERS2_PT_
FN:1742,_ZNSt3__116allocator_traitsINS_9allocatorINS_4pairINS_6vectorIiNS1_IiEEEEiEEEEE9__destroyIS6_EEvNS_17integral_constantIbLb1EEERS7_PT_
FN:1752,_ZNSt3__116allocator_traitsINS_9allocatorINS_4pairINS_6vectorIiNS1_IiEEEEiEEEEE10__max_sizeENS_17integral_constantIbLb1EEERKS7_
FN:1752,_ZNSt3__116allocator_traitsINS_9allocatorIiEEE10__max_sizeENS_17integral_constantIbLb1EEERKS2_
FN:1764,_ZNSt3__116allocator_traitsINS_9allocatorIiEEE39__select_on_container_copy_constructionENS_17integral_constantIbLb0EEERKS2_
FN:1764,_ZNSt3__116allocator_traitsINS_9allocatorINS_4pairINS_6vectorIiNS1_IiEEEEiEEEEE39__select_on_container_copy_constructionENS_17integral_constantIbLb0EEERKS7_
FN:1798,_ZNSt3__19allocatorIcEC2Ev
FN:1798,_ZNSt3__19allocatorINS_4pairINS_6vectorIiNS0_IiEEEEiEEEC2Ev
FN:1798,_ZNSt3__19allocatorIiEC2Ev
FN:1809,_ZNSt3__19allocatorIiE8allocateEmPKv
FN:1809,_ZNSt3__19allocatorINS_4pairINS_6vectorIiNS0_IiEEEEiEEE8allocateEmPKv
FN:1816,_ZNSt3__19allocatorINS_4pairINS_6vectorIiNS0_IiEEEEiEEE10deallocateEPS5_m
FN:1816,_ZNSt3__19allocatorIiE10deallocateEPim
FN:1818,_ZNKSt3__19allocatorINS_4pairINS_6vectorIiNS0_IiEEEEiEEE8max_sizeEv
FN:1818,_ZNKSt3__19allocatorIiE8max_sizeEv
FN:1824,_ZNSt3__19allocatorINS_4pairINS_6vectorIiNS0_IiEEEEiEEE9constructIS5_JRS5_EEEvPT_DpOT0_
FN:1824,_ZNSt3__19allocatorINS_4pairINS_6vectorIiNS0_IiEEEEiEEE9constructIS5_JRKS5_EEEvPT_DpOT0_
FN:1881,_ZNSt3__19allocatorIiE7destroyEPi
FN:1881,_ZNSt3__19allocatorINS_4pairINS_6vectorIiNS0_IiEEEEiEEE7destroyEPS5_
FN:2140,_ZNSt3__122__compressed_pair_elemINS_12basic_stringIcNS_11char_traitsIcEENS_9allocatorIcEEE5__repELi0ELb0EEC2Ev
FN:2147,_ZNSt3__122__compressed_pair_elemIPiLi0ELb0EEC2IDnvEEOT_
FN:2147,_ZNSt3__122__compressed_pair_elemIPNS_4pairINS_6vectorIiNS_9allocatorIiEEEEiEELi0ELb0EEC2IDnvEEOT_
FN:2163,_ZNSt3__122__compressed_pair_elemIPNS_4pairINS_6vectorIiNS_9allocatorIiEEEEiEELi0ELb0EE5__getEv
FN:2163,_ZNSt3__122__compressed_pair_elemIPiLi0ELb0EE5__getEv
FN:2165,_ZNKSt3__122__compressed_pair_elemIPiLi0ELb0EE5__getEv
FN:2165,_ZNKSt3__122__compressed_pair_elemIPNS_4pairINS_6vectorIiNS_9allocatorIiEEEEiEELi0ELb0EE5__getEv
FN:2179,_ZNSt3__122__compressed_pair_elemINS_9allocatorIiEELi1ELb1EEC2Ev
FN:2179,_ZNSt3__122__compressed_pair_elemINS_9allocatorIcEELi1ELb1EEC2Ev
FN:2179,_ZNSt3__122__compressed_pair_elemINS_9allocatorINS_4pairINS_6vectorIiNS1_IiEEEEiEEEELi1ELb1EEC2Ev
FN:2186,_ZNSt3__122__compressed_pair_elemINS_9allocatorIiEELi1ELb1EEC2IS2_vEEOT_
FN:2186,_ZNSt3__122__compressed_pair_elemINS_9allocatorINS_4pairINS_6vectorIiNS1_IiEEEEiEEEELi1ELb1EEC2IS7_vEEOT_
FN:2202,_ZNSt3__122__compressed_pair_elemINS_9allocatorINS_4pairINS_6vectorIiNS1_IiEEEEiEEEELi1ELb1EE5__getEv
FN:2202,_ZNSt3__122__compressed_pair_elemINS_9allocatorIiEELi1ELb1EE5__getEv
FN:2204,_ZNKSt3__122__compressed_pair_elemINS_9allocatorINS_4pairINS_6vectorIiNS1_IiEEEEiEEEELi1ELb1EE5__getEv
FN:2204,_ZNKSt3__122__compressed_pair_elemINS_9allocatorIiEELi1ELb1EE5__getEv
FN:2234,_ZNSt3__117__compressed_pairINS_12basic_stringIcNS_11char_traitsIcEENS_9allocatorIcEEE5__repES5_EC2ILb1EvEEv
FN:2234,_ZNSt3__117__compressed_pairINS_12basic_stringIcNS_11char_traitsIcEENS_9allocatorIcEEE5__repES5_EC1ILb1EvEEv
FN:2240,_ZNSt3__117__compressed_pairIPiNS_9allocatorIiEEEC1IDnLb1EEEOT_
FN:2240,_ZNSt3__117__compressed_pairIPNS_4pairINS_6vectorIiNS_9allocatorIiEEEEiEENS3_IS6_EEEC2IDnLb1EEEOT_
FN:2240,_ZNSt3__117__compressed_pairIPNS_4pairINS_6vectorIiNS_9allocatorIiEEEEiEENS3_IS6_EEEC1IDnLb1EEEOT_
FN:2240,_ZNSt3__117__compressed_pairIPiNS_9allocatorIiEEEC2IDnLb1EEEOT_
FN:2250,_ZNSt3__117__compressed_pairIPiNS_9allocatorIiEEEC1IDnS3_EEOT_OT0_
FN:2250,_ZNSt3__117__compressed_pairIPNS_4pairINS_6vectorIiNS_9allocatorIiEEEEiEENS3_IS6_EEEC1IDnS8_EEOT_OT0_
FN:2250,_ZNSt3__117__compressed_pairIPiNS_9allocatorIiEEEC2IDnS3_EEOT_OT0_
FN:2250,_ZNSt3__117__compressed_pairIPNS_4pairINS_6vectorIiNS_9allocatorIiEEEEiEENS3_IS6_EEEC2IDnS8_EEOT_OT0_
FN:2279,_ZNSt3__117__compressed_pairIPiNS_9allocatorIiEEE5firstEv
FN:2279,_ZNSt3__117__compressed_pairIPNS_4pairINS_6vectorIiNS_9allocatorIiEEEEiEENS3_IS6_EEE5firstEv
FN:2284,_ZNKSt3__117__compressed_pairIPNS_4pairINS_6vectorIiNS_9allocatorIiEEEEiEENS3_IS6_EEE5firstEv
FN:2284,_ZNKSt3__117__compressed_pairIPiNS_9allocatorIiEEE5firstEv
FN:2289,_ZNSt3__117__compressed_pairIPiNS_9allocatorIiEEE6secondEv
FN:2289,_ZNSt3__117__compressed_pairIPNS_4pairINS_6vectorIiNS_9allocatorIiEEEEiEENS3_IS6_EEE6secondEv
FN:2294,_ZNKSt3__117__compressed_pairIPNS_4pairINS_6vectorIiNS_9allocatorIiEEEEiEENS3_IS6_EEE6secondEv
FN:2294,_ZNKSt3__117__compressed_pairIPiNS_9allocatorIiEEE6secondEv
FNDA:544,_ZNSt3__1L16__to_raw_pointerIiEEPT_S2_
FNDA:1340,_ZNSt3__1L16__to_raw_pointerINS_4pairINS_6vectorIiNS_9allocatorIiEEEEiEEEEPT_S8_
FNDA:0,_ZNSt3__116allocator_traitsINS_9allocatorIiEEE8allocateERS2_m
FNDA:0,_ZNSt3__116allocator_traitsINS_9allocatorINS_4pairINS_6vectorIiNS1_IiEEEEiEEEEE8allocateERS7_m
FNDA:0,_ZNSt3__116allocator_traitsINS_9allocatorIiEEE10deallocateERS2_Pim
FNDA:0,_ZNSt3__116allocator_traitsINS_9allocatorINS_4pairINS_6vectorIiNS1_IiEEEEiEEEEE10deallocateERS7_PS6_m
FNDA:828,_ZNSt3__116allocator_traitsINS_9allocatorINS_4pairINS_6vectorIiNS1_IiEEEEiEEEEE9constructIS6_JRKS6_EEEvRS7_PT_DpOT0_
FNDA:0,_ZNSt3__116allocator_traitsINS_9allocatorINS_4pairINS_6vectorIiNS1_IiEEEEiEEEEE9constructIS6_JRS6_EEEvRS7_PT_DpOT0_
FNDA:0,_ZNSt3__116allocator_traitsINS_9allocatorIiEEE7destroyIiEEvRS2_PT_
FNDA:0,_ZNSt3__116allocator_traitsINS_9allocatorINS_4pairINS_6vectorIiNS1_IiEEEEiEEEEE7destroyIS6_EEvRS7_PT_
FNDA:0,_ZNSt3__116allocator_traitsINS_9allocatorIiEEE8max_sizeERKS2_
FNDA:0,_ZNSt3__116allocator_traitsINS_9allocatorINS_4pairINS_6vectorIiNS1_IiEEEEiEEEEE8max_sizeERKS7_
FNDA:0,_ZNSt3__116allocator_traitsINS_9allocatorIiEEE37select_on_container_copy_constructionERKS2_
FNDA:0,_ZNSt3__116allocator_traitsINS_9allocatorINS_4pairINS_6vectorIiNS1_IiEEEEiEEEEE37select_on_container_copy_constructionERKS7_
FNDA:300,_ZNSt3__116allocator_traitsINS_9allocatorINS_4pairINS_6vectorIiNS1_IiEEEEiEEEEE25__construct_range_forwardIPKS6_PS6_EEvRS7_T_SE_RT0_
FNDA:0,_ZNSt3__116allocator_traitsINS_9allocatorINS_4pairINS_6vectorIiNS1_IiEEEEiEEEEE25__construct_range_forwardIPS6_SA_EEvRS7_T_SC_RT0_
FNDA:0,_ZNSt3__116allocator_traitsINS_9allocatorIiEEE25__construct_range_forwardIKiiiiEENS_9enable_ifIXaaaasr31is_trivially_move_constructibleIT0_EE5valuesr7is_sameIT1_T2_EE5valueooL_ZNS_17integral_constantIbLb1EE5valueEEntsr15__has_constructIS2_PS7_RT_EE5valueEvE4typeERS2_PSD_SI_RSC_
FNDA:0,_ZNSt3__116allocator_traitsINS_9allocatorIiEEE25__construct_range_forwardIiiiiEENS_9enable_ifIXaaaasr31is_trivially_move_constructibleIT0_EE5valuesr7is_sameIT1_T2_EE5valueooL_ZNS_17integral_constantIbLb1EE5valueEEntsr15__has_constructIS2_PS6_RT_EE5valueEvE4typeERS2_PSC_SH_RSB_
FNDA:828,_ZNSt3__116allocator_traitsINS_9allocatorINS_4pairINS_6vectorIiNS1_IiEEEEiEEEEE11__constructIS6_JRKS6_EEEvNS_17integral_constantIbLb1EEERS7_PT_DpOT0_
FNDA:0,_ZNSt3__116allocator_traitsINS_9allocatorINS_4pairINS_6vectorIiNS1_IiEEEEiEEEEE11__constructIS6_JRS6_EEEvNS_17integral_constantIbLb1EEERS7_PT_DpOT0_
FNDA:0,_ZNSt3__116allocator_traitsINS_9allocatorIiEEE9__destroyIiEEvNS_17integral_constantIbLb1EEERS2_PT_
FNDA:0,_ZNSt3__116allocator_traitsINS_9allocatorINS_4pairINS_6vectorIiNS1_IiEEEEiEEEEE9__destroyIS6_EEvNS_17integral_constantIbLb1EEERS7_PT_
FNDA:0,_ZNSt3__116allocator_traitsINS_9allocatorIiEEE10__max_sizeENS_17integral_constantIbLb1EEERKS2_
FNDA:0,_ZNSt3__116allocator_traitsINS_9allocatorINS_4pairINS_6vectorIiNS1_IiEEEEiEEEEE10__max_sizeENS_17integral_constantIbLb1EEERKS7_
FNDA:0,_ZNSt3__116allocator_traitsINS_9allocatorIiEEE39__select_on_container_copy_constructionENS_17integral_constantIbLb0EEERKS2_
FNDA:0,_ZNSt3__116allocator_traitsINS_9allocatorINS_4pairINS_6vectorIiNS1_IiEEEEiEEEEE39__select_on_container_copy_constructionENS_17integral_constantIbLb0EEERKS7_
FNDA:32,_ZNSt3__19allocatorIcEC2Ev
FNDA:136,_ZNSt3__19allocatorIiEC2Ev
FNDA:64,_ZNSt3__19allocatorINS_4pairINS_6vectorIiNS0_IiEEEEiEEEC2Ev
FNDA:0,_ZNSt3__19allocatorIiE8allocateEmPKv
FNDA:0,_ZNSt3__19allocatorINS_4pairINS_6vectorIiNS0_IiEEEEiEEE8allocateEmPKv
FNDA:0,_ZNSt3__19allocatorIiE10deallocateEPim
FNDA:0,_ZNSt3__19allocatorINS_4pairINS_6vectorIiNS0_IiEEEEiEEE10deallocateEPS5_m
FNDA:0,_ZNKSt3__19allocatorIiE8max_sizeEv
FNDA:0,_ZNKSt3__19allocatorINS_4pairINS_6vectorIiNS0_IiEEEEiEEE8max_sizeEv
FNDA:828,_ZNSt3__19allocatorINS_4pairINS_6vectorIiNS0_IiEEEEiEEE9constructIS5_JRKS5_EEEvPT_DpOT0_
FNDA:0,_ZNSt3__19allocatorINS_4pairINS_6vectorIiNS0_IiEEEEiEEE9constructIS5_JRS5_EEEvPT_DpOT0_
FNDA:0,_ZNSt3__19allocatorIiE7destroyEPi
FNDA:0,_ZNSt3__19allocatorINS_4pairINS_6vectorIiNS0_IiEEEEiEEE7destroyEPS5_
FNDA:32,_ZNSt3__122__compressed_pair_elemINS_12basic_stringIcNS_11char_traitsIcEENS_9allocatorIcEEE5__repELi0ELb0EEC2Ev
FNDA:136,_ZNSt3__122__compressed_pair_elemIPiLi0ELb0EEC2IDnvEEOT_
FNDA:64,_ZNSt3__122__compressed_pair_elemIPNS_4pairINS_6vectorIiNS_9allocatorIiEEEEiEELi0ELb0EEC2IDnvEEOT_
FNDA:0,_ZNSt3__122__compressed_pair_elemIPiLi0ELb0EE5__getEv
FNDA:0,_ZNSt3__122__compressed_pair_elemIPNS_4pairINS_6vectorIiNS_9allocatorIiEEEEiEELi0ELb0EE5__getEv
FNDA:272,_ZNKSt3__122__compressed_pair_elemIPiLi0ELb0EE5__getEv
FNDA:256,_ZNKSt3__122__compressed_pair_elemIPNS_4pairINS_6vectorIiNS_9allocatorIiEEEEiEELi0ELb0EE5__getEv
FNDA:32,_ZNSt3__122__compressed_pair_elemINS_9allocatorIcEELi1ELb1EEC2Ev
FNDA:136,_ZNSt3__122__compressed_pair_elemINS_9allocatorIiEELi1ELb1EEC2Ev
FNDA:64,_ZNSt3__122__compressed_pair_elemINS_9allocatorINS_4pairINS_6vectorIiNS1_IiEEEEiEEEELi1ELb1EEC2Ev
FNDA:0,_ZNSt3__122__compressed_pair_elemINS_9allocatorIiEELi1ELb1EEC2IS2_vEEOT_
FNDA:0,_ZNSt3__122__compressed_pair_elemINS_9allocatorINS_4pairINS_6vectorIiNS1_IiEEEEiEEEELi1ELb1EEC2IS7_vEEOT_
FNDA:0,_ZNSt3__122__compressed_pair_elemINS_9allocatorIiEELi1ELb1EE5__getEv
FNDA:300,_ZNSt3__122__compressed_pair_elemINS_9allocatorINS_4pairINS_6vectorIiNS1_IiEEEEiEEEELi1ELb1EE5__getEv
FNDA:0,_ZNKSt3__122__compressed_pair_elemINS_9allocatorIiEELi1ELb1EE5__getEv
FNDA:0,_ZNKSt3__122__compressed_pair_elemINS_9allocatorINS_4pairINS_6vectorIiNS1_IiEEEEiEEEELi1ELb1EE5__getEv
FNDA:32,_ZNSt3__117__compressed_pairINS_12basic_stringIcNS_11char_traitsIcEENS_9allocatorIcEEE5__repES5_EC1ILb1EvEEv
FNDA:32,_ZNSt3__117__compressed_pairINS_12basic_stringIcNS_11char_traitsIcEENS_9allocatorIcEEE5__repES5_EC2ILb1EvEEv
FNDA:136,_ZNSt3__117__compressed_pairIPiNS_9allocatorIiEEEC1IDnLb1EEEOT_
FNDA:136,_ZNSt3__117__compressed_pairIPiNS_9allocatorIiEEEC2IDnLb1EEEOT_
FNDA:64,_ZNSt3__117__compressed_pairIPNS_4pairINS_6vectorIiNS_9allocatorIiEEEEiEENS3_IS6_EEEC1IDnLb1EEEOT_
FNDA:64,_ZNSt3__117__compressed_pairIPNS_4pairINS_6vectorIiNS_9allocatorIiEEEEiEENS3_IS6_EEEC2IDnLb1EEEOT_
FNDA:0,_ZNSt3__117__compressed_pairIPiNS_9allocatorIiEEEC1IDnS3_EEOT_OT0_
FNDA:0,_ZNSt3__117__compressed_pairIPiNS_9allocatorIiEEEC2IDnS3_EEOT_OT0_
FNDA:0,_ZNSt3__117__compressed_pairIPNS_4pairINS_6vectorIiNS_9allocatorIiEEEEiEENS3_IS6_EEEC1IDnS8_EEOT_OT0_
FNDA:0,_ZNSt3__117__compressed_pairIPNS_4pairINS_6vectorIiNS_9allocatorIiEEEEiEENS3_IS6_EEEC2IDnS8_EEOT_OT0_
FNDA:0,_ZNSt3__117__compressed_pairIPiNS_9allocatorIiEEE5firstEv
FNDA:0,_ZNSt3__117__compressed_pairIPNS_4pairINS_6vectorIiNS_9allocatorIiEEEEiEENS3_IS6_EEE5firstEv
FNDA:272,_ZNKSt3__117__compressed_pairIPiNS_9allocatorIiEEE5firstEv
FNDA:256,_ZNKSt3__117__compressed_pairIPNS_4pairINS_6vectorIiNS_9allocatorIiEEEEiEENS3_IS6_EEE5firstEv
FNDA:0,_ZNSt3__117__compressed_pairIPiNS_9allocatorIiEEE6secondEv
FNDA:300,_ZNSt3__117__compressed_pairIPNS_4pairINS_6vectorIiNS_9allocatorIiEEEEiEENS3_IS6_EEE6secondEv
FNDA:0,_ZNKSt3__117__compressed_pairIPiNS_9allocatorIiEEE6secondEv
FNDA:0,_ZNKSt3__117__compressed_pairIPNS_4pairINS_6vectorIiNS_9allocatorIiEEEEiEENS3_IS6_EEE6secondEv
FNF:73
FNH:27
DA:1106,1884
DA:1108,1884
DA:1546,0
DA:1547,0
DA:1554,0
DA:1555,0
DA:1560,828
DA:1561,1656
DA:1562,1656
DA:1595,0
DA:1596,0
DA:1599,0
DA:1600,0
DA:1604,0
DA:1605,0
DA:1606,0
DA:1607,0
DA:1643,300
DA:1645,1128
DA:1646,828
DA:1647,300
DA:1662,0
DA:1664,0
DA:1665,0
DA:1667,0
DA:1668,0
DA:1669,0
DA:1670,0
DA:1717,828
DA:1718,828
DA:1742,0
DA:1743,0
DA:1752,0
DA:1753,0
DA:1764,0
DA:1765,0
DA:1798,232
DA:1809,0
DA:1811,0
DA:1812,0
DA:1814,0
DA:1816,0
DA:1817,0
DA:1818,0
DA:1819,0
DA:1824,828
DA:1826,828
DA:1827,828
DA:1881,0
DA:2140,32
DA:2147,200
DA:2148,200
DA:2150,200
DA:2163,0
DA:2165,528
DA:2179,232
DA:2186,0
DA:2187,0
DA:2188,0
DA:2202,300
DA:2204,0
DA:2234,64
DA:2240,400
DA:2241,400
DA:2250,0
DA:2251,0
DA:2279,0
DA:2280,0
DA:2284,528
DA:2285,528
DA:2289,300
DA:2290,300
DA:2294,0
DA:2295,0
LF:74
LH:29
end_of_record
SF:/Library/Developer/CommandLineTools/usr/include/c++/v1/new
FN:223,_ZNSt3__1L17__libcpp_allocateEmm
FN:245,_ZNSt3__117_DeallocateCaller33__do_deallocate_handle_size_alignEPvmm
FN:275,_ZNSt3__117_DeallocateCaller27__do_deallocate_handle_sizeEPvm
FN:316,_ZNSt3__117_DeallocateCaller9__do_callEPv
FN:325,_ZNSt3__1L19__libcpp_deallocateEPvmm
FNDA:0,_ZNSt3__1L17__libcpp_allocateEmm
FNDA:0,_ZNSt3__117_DeallocateCaller33__do_deallocate_handle_size_alignEPvmm
FNDA:0,_ZNSt3__117_DeallocateCaller27__do_deallocate_handle_sizeEPvm
FNDA:0,_ZNSt3__117_DeallocateCaller9__do_callEPv
FNDA:0,_ZNSt3__1L19__libcpp_deallocateEPvmm
FNF:5
FNH:0
DA:223,0
DA:239,0
DA:245,0
DA:248,0
DA:275,0
DA:278,0
DA:316,0
DA:320,0
DA:325,0
DA:326,0
DA:327,0
LF:11
LH:0
end_of_record
SF:/Library/Developer/CommandLineTools/usr/include/c++/v1/stdexcept
FN:136,_ZNSt12length_errorC2EPKc
FN:136,_ZNSt12length_errorC1EPKc
FN:222,_ZNSt3__1L20__throw_length_errorEPKc
FNDA:0,_ZNSt12length_errorC1EPKc
FNDA:0,_ZNSt12length_errorC2EPKc
FNDA:0,_ZNSt3__1L20__throw_length_errorEPKc
FNF:3
FNH:0
DA:136,0
DA:222,0
DA:225,0
DA:230,0
LF:4
LH:0
end_of_record
SF:/Library/Developer/CommandLineTools/usr/include/c++/v1/string
FN:818,_ZNSt3__112basic_stringIcNS_11char_traitsIcEENS_9allocatorIcEEEC2IDnEEPKc
FN:818,_ZNSt3__112basic_stringIcNS_11char_traitsIcEENS_9allocatorIcEEEC1IDnEEPKc
FNDA:32,_ZNSt3__112basic_stringIcNS_11char_traitsIcEENS_9allocatorIcEEEC1IDnEEPKc
FNDA:32,_ZNSt3__112basic_stringIcNS_11char_traitsIcEENS_9allocatorIcEEEC2IDnEEPKc
FNF:2
FNH:2
DA:818,64
DA:820,32
DA:824,64
LF:3
LH:3
end_of_record
SF:/Library/Developer/CommandLineTools/usr/include/c++/v1/type_traits
FN:2310,_ZNSt3__1L4moveIRNS_9allocatorINS_4pairINS_6vectorIiNS1_IiEEEEiEEEEEEONS_16remove_referenceIT_E4typeEOSA_
FN:2310,_ZNSt3__1L4moveIRNS_9allocatorIiEEEEONS_16remove_referenceIT_E4typeEOS5_
FN:2319,_ZNSt3__1L7forwardINS_9allocatorIiEEEEOT_RNS_16remove_referenceIS3_E4typeE
FN:2319,_ZNSt3__1L7forwardINS_9allocatorINS_4pairINS_6vectorIiNS1_IiEEEEiEEEEEEOT_RNS_16remove_referenceIS8_E4typeE
FN:2319,_ZNSt3__1L7forwardIRKNS_4pairINS_6vectorIiNS_9allocatorIiEEEEiEEEEOT_RNS_16remove_referenceIS9_E4typeE
FN:2319,_ZNSt3__1L7forwardIDnEEOT_RNS_16remove_referenceIS1_E4typeE
FN:2319,_ZNSt3__1L7forwardIRNS_6vectorIiNS_9allocatorIiEEEEEEOT_RNS_16remove_referenceIS6_E4typeE
FN:2319,_ZNSt3__1L7forwardIRNS_4pairINS_6vectorIiNS_9allocatorIiEEEEiEEEEOT_RNS_16remove_referenceIS8_E4typeE
FN:2319,_ZNSt3__1L7forwardIiEEOT_RNS_16remove_referenceIS1_E4typeE
FNDA:0,_ZNSt3__1L4moveIRNS_9allocatorIiEEEEONS_16remove_referenceIT_E4typeEOS5_
FNDA:0,_ZNSt3__1L4moveIRNS_9allocatorINS_4pairINS_6vectorIiNS1_IiEEEEiEEEEEEONS_16remove_referenceIT_E4typeEOSA_
FNDA:400,_ZNSt3__1L7forwardIDnEEOT_RNS_16remove_referenceIS1_E4typeE
FNDA:272,_ZNSt3__1L7forwardIRNS_6vectorIiNS_9allocatorIiEEEEEEOT_RNS_16remove_referenceIS6_E4typeE
FNDA:272,_ZNSt3__1L7forwardIiEEOT_RNS_16remove_referenceIS1_E4typeE
FNDA:0,_ZNSt3__1L7forwardINS_9allocatorIiEEEEOT_RNS_16remove_referenceIS3_E4typeE
FNDA:2484,_ZNSt3__1L7forwardIRKNS_4pairINS_6vectorIiNS_9allocatorIiEEEEiEEEEOT_RNS_16remove_referenceIS9_E4typeE
FNDA:0,_ZNSt3__1L7forwardINS_9allocatorINS_4pairINS_6vectorIiNS1_IiEEEEiEEEEEEOT_RNS_16remove_referenceIS8_E4typeE
FNDA:0,_ZNSt3__1L7forwardIRNS_4pairINS_6vectorIiNS_9allocatorIiEEEEiEEEEOT_RNS_16remove_referenceIS8_E4typeE
FNF:9
FNH:4
DA:2310,0
DA:2313,0
DA:2319,3428
DA:2321,3428
LF:4
LH:2
end_of_record
SF:/Library/Developer/CommandLineTools/usr/include/c++/v1/utility
FN:316,_ZNSt3__14pairINS_6vectorIiNS_9allocatorIiEEEEiED1Ev
FN:316,_ZNSt3__14pairINS_6vectorIiNS_9allocatorIiEEEEiED2Ev
FN:328,_ZNSt3__14pairINS_6vectorIiNS_9allocatorIiEEEEiEC1ERKS5_
FN:328,_ZNSt3__14pairINS_6vectorIiNS_9allocatorIiEEEEiEC2ERKS5_
FN:448,_ZNSt3__14pairINS_6vectorIiNS_9allocatorIiEEEEiEC1IRS4_iLb0EEEOT_OT0_
FN:448,_ZNSt3__14pairINS_6vectorIiNS_9allocatorIiEEEEiEC2IRS4_iLb0EEEOT_OT0_
FN:668,_ZNSt3__1L9make_pairIRNS_6vectorIiNS_9allocatorIiEEEEiEENS_4pairINS_18__unwrap_ref_decayIT_E4typeENS7_IT0_E4typeEEEOS8_OSB_
FNDA:0,_ZNSt3__14pairINS_6vectorIiNS_9allocatorIiEEEEiED1Ev
FNDA:0,_ZNSt3__14pairINS_6vectorIiNS_9allocatorIiEEEEiED2Ev
FNDA:0,_ZNSt3__14pairINS_6vectorIiNS_9allocatorIiEEEEiEC1ERKS5_
FNDA:0,_ZNSt3__14pairINS_6vectorIiNS_9allocatorIiEEEEiEC2ERKS5_
FNDA:136,_ZNSt3__14pairINS_6vectorIiNS_9allocatorIiEEEEiEC1IRS4_iLb0EEEOT_OT0_
FNDA:136,_ZNSt3__14pairINS_6vectorIiNS_9allocatorIiEEEEiEC2IRS4_iLb0EEEOT_OT0_
FNDA:136,_ZNSt3__1L9make_pairIRNS_6vectorIiNS_9allocatorIiEEEEiEENS_4pairINS_18__unwrap_ref_decayIT_E4typeENS7_IT0_E4typeEEEOS8_OSB_
FNF:7
FNH:3
DA:316,0
DA:328,0
DA:448,272
DA:451,272
DA:668,136
DA:670,136
DA:671,136
LF:7
LH:5
end_of_record
SF:/Library/Developer/CommandLineTools/usr/include/c++/v1/vector
FN:304,_ZNSt3__120__vector_base_commonILb1EEC2Ev
FN:348,_ZNSt3__113__vector_baseIiNS_9allocatorIiEEE7__allocEv
FN:348,_ZNSt3__113__vector_baseINS_4pairINS_6vectorIiNS_9allocatorIiEEEEiEENS3_IS6_EEE7__allocEv
FN:351,_ZNKSt3__113__vector_baseINS_4pairINS_6vectorIiNS_9allocatorIiEEEEiEENS3_IS6_EEE7__allocEv
FN:351,_ZNKSt3__113__vector_baseIiNS_9allocatorIiEEE7__allocEv
FN:354,_ZNSt3__113__vector_baseINS_4pairINS_6vectorIiNS_9allocatorIiEEEEiEENS3_IS6_EEE9__end_capEv
FN:354,_ZNSt3__113__vector_baseIiNS_9allocatorIiEEE9__end_capEv
FN:357,_ZNKSt3__113__vector_baseINS_4pairINS_6vectorIiNS_9allocatorIiEEEEiEENS3_IS6_EEE9__end_capEv
FN:357,_ZNKSt3__113__vector_baseIiNS_9allocatorIiEEE9__end_capEv
FN:370,_ZNSt3__113__vector_baseINS_4pairINS_6vectorIiNS_9allocatorIiEEEEiEENS3_IS6_EEE5clearEv
FN:370,_ZNSt3__113__vector_baseIiNS_9allocatorIiEEE5clearEv
FN:372,_ZNKSt3__113__vector_baseIiNS_9allocatorIiEEE8capacityEv
FN:372,_ZNKSt3__113__vector_baseINS_4pairINS_6vectorIiNS_9allocatorIiEEEEiEENS3_IS6_EEE8capacityEv
FN:423,_ZNSt3__113__vector_baseIiNS_9allocatorIiEEE17__destruct_at_endEPi
FN:423,_ZNSt3__113__vector_baseINS_4pairINS_6vectorIiNS_9allocatorIiEEEEiEENS3_IS6_EEE17__destruct_at_endEPS6_
FN:433,_ZNSt3__113__vector_baseIiNS_9allocatorIiEEEC2Ev
FN:433,_ZNSt3__113__vector_baseINS_4pairINS_6vectorIiNS_9allocatorIiEEEEiEENS3_IS6_EEEC2Ev
FN:453,_ZNSt3__113__vector_baseIiNS_9allocatorIiEEEC2EOS2_
FN:453,_ZNSt3__113__vector_baseINS_4pairINS_6vectorIiNS_9allocatorIiEEEEiEENS3_IS6_EEEC2EOS7_
FN:460,_ZNSt3__113__vector_baseINS_4pairINS_6vectorIiNS_9allocatorIiEEEEiEENS3_IS6_EEED2Ev
FN:460,_ZNSt3__113__vector_baseIiNS_9allocatorIiEEED2Ev
FN:550,_ZNSt3__16vectorINS_4pairINS0_IiNS_9allocatorIiEEEEiEENS2_IS5_EEED2Ev
FN:550,_ZNSt3__16vectorIiNS_9allocatorIiEEED2Ev
FN:550,_ZNSt3__16vectorIiNS_9allocatorIiEEED1Ev
FN:550,_ZNSt3__16vectorINS_4pairINS0_IiNS_9allocatorIiEEEEiEENS2_IS5_EEED1Ev
FN:656,_ZNKSt3__16vectorIiNS_9allocatorIiEEE4sizeEv
FN:656,_ZNKSt3__16vectorINS_4pairINS0_IiNS_9allocatorIiEEEEiEENS2_IS5_EEE4sizeEv
FN:659,_ZNKSt3__16vectorINS_4pairINS0_IiNS_9allocatorIiEEEEiEENS2_IS5_EEE8capacityEv
FN:659,_ZNKSt3__16vectorIiNS_9allocatorIiEEE8capacityEv
FN:698,_ZNKSt3__16vectorINS_4pairINS0_IiNS_9allocatorIiEEEEiEENS2_IS5_EEE4dataEv
FN:698,_ZNKSt3__16vectorIiNS_9allocatorIiEEE4dataEv
FN:862,_ZNKSt3__16vectorIiNS_9allocatorIiEEE31__annotate_contiguous_containerEPKvS5_S5_S5_
FN:862,_ZNKSt3__16vectorINS_4pairINS0_IiNS_9allocatorIiEEEEiEENS2_IS5_EEE31__annotate_contiguous_containerEPKvS9_S9_S9_
FN:866,_ZNKSt3__16vectorIiNS_9allocatorIiEEE14__annotate_newEm
FN:866,_ZNKSt3__16vectorINS_4pairINS0_IiNS_9allocatorIiEEEEiEENS2_IS5_EEE14__annotate_newEm
FN:872,_ZNKSt3__16vectorIiNS_9allocatorIiEEE17__annotate_deleteEv
FN:872,_ZNKSt3__16vectorINS_4pairINS0_IiNS_9allocatorIiEEEEiEENS2_IS5_EEE17__annotate_deleteEv
FN:910,_ZNSt3__16vectorIiNS_9allocatorIiEEE24__RAII_IncreaseAnnotatorC1ERKS3_m
FN:910,_ZNSt3__16vectorINS_4pairINS0_IiNS_9allocatorIiEEEEiEENS2_IS5_EEE24__RAII_IncreaseAnnotatorC2ERKS7_m
FN:910,_ZNSt3__16vectorIiNS_9allocatorIiEEE24__RAII_IncreaseAnnotatorC2ERKS3_m
FN:910,_ZNSt3__16vectorINS_4pairINS0_IiNS_9allocatorIiEEEEiEENS2_IS5_EEE24__RAII_IncreaseAnnotatorC1ERKS7_m
FN:911,_ZNSt3__16vectorIiNS_9allocatorIiEEE24__RAII_IncreaseAnnotator6__doneEv
FN:911,_ZNSt3__16vectorINS_4pairINS0_IiNS_9allocatorIiEEEEiEENS2_IS5_EEE24__RAII_IncreaseAnnotator6__doneEv
FN:973,_ZNSt3__16vectorINS_4pairINS0_IiNS_9allocatorIiEEEEiEENS2_IS5_EEE11__vallocateEm
FN:973,_ZNSt3__16vectorIiNS_9allocatorIiEEE11__vallocateEm
FN:996,_ZNKSt3__16vectorIiNS_9allocatorIiEEE8max_sizeEv
FN:996,_ZNKSt3__16vectorINS_4pairINS0_IiNS_9allocatorIiEEEEiEENS2_IS5_EEE8max_sizeEv
FN:1066,_ZNSt3__16vectorIiNS_9allocatorIiEEE18__construct_at_endIPiEENS_9enable_ifIXsr21__is_forward_iteratorIT_EE5valueEvE4typeES7_S7_m
FN:1066,_ZNSt3__16vectorINS_4pairINS0_IiNS_9allocatorIiEEEEiEENS2_IS5_EEE18__construct_at_endIPKS5_EENS_9enable_ifIXsr21__is_forward_iteratorIT_EE5valueEvE4typeESC_SC_m
FN:1066,_ZNSt3__16vectorIiNS_9allocatorIiEEE18__construct_at_endIPKiEENS_9enable_ifIXsr21__is_forward_iteratorIT_EE5valueEvE4typeES8_S8_m
FN:1066,_ZNSt3__16vectorINS_4pairINS0_IiNS_9allocatorIiEEEEiEENS2_IS5_EEE18__construct_at_endIPS5_EENS_9enable_ifIXsr21__is_forward_iteratorIT_EE5valueEvE4typeESB_SB_m
FN:1243,_ZNSt3__16vectorINS_4pairINS0_IiNS_9allocatorIiEEEEiEENS2_IS5_EEEC1ERKS7_
FN:1243,_ZNSt3__16vectorIiNS_9allocatorIiEEEC2ERKS3_
FN:1243,_ZNSt3__16vectorIiNS_9allocatorIiEEEC1ERKS3_
FN:1243,_ZNSt3__16vectorINS_4pairINS0_IiNS_9allocatorIiEEEEiEENS2_IS5_EEEC2ERKS7_
FN:1321,_ZNSt3__16vectorIiNS_9allocatorIiEEEC1ESt16initializer_listIiE
FN:1321,_ZNSt3__16vectorINS_4pairINS0_IiNS_9allocatorIiEEEEiEENS2_IS5_EEEC2ESt16initializer_listIS5_E
FN:1321,_ZNSt3__16vectorIiNS_9allocatorIiEEEC2ESt16initializer_listIiE
FN:1321,_ZNSt3__16vectorINS_4pairINS0_IiNS_9allocatorIiEEEEiEENS2_IS5_EEEC1ESt16initializer_listIS5_E
FNDA:200,_ZNSt3__120__vector_base_commonILb1EEC2Ev
FNDA:0,_ZNSt3__113__vector_baseIiNS_9allocatorIiEEE7__allocEv
FNDA:300,_ZNSt3__113__vector_baseINS_4pairINS_6vectorIiNS_9allocatorIiEEEEiEENS3_IS6_EEE7__allocEv
FNDA:0,_ZNKSt3__113__vector_baseIiNS_9allocatorIiEEE7__allocEv
FNDA:0,_ZNKSt3__113__vector_baseINS_4pairINS_6vectorIiNS_9allocatorIiEEEEiEENS3_IS6_EEE7__allocEv
FNDA:0,_ZNSt3__113__vector_baseIiNS_9allocatorIiEEE9__end_capEv
FNDA:0,_ZNSt3__113__vector_baseINS_4pairINS_6vectorIiNS_9allocatorIiEEEEiEENS3_IS6_EEE9__end_capEv
FNDA:272,_ZNKSt3__113__vector_baseIiNS_9allocatorIiEEE9__end_capEv
FNDA:256,_ZNKSt3__113__vector_baseINS_4pairINS_6vectorIiNS_9allocatorIiEEEEiEENS3_IS6_EEE9__end_capEv
FNDA:0,_ZNSt3__113__vector_baseIiNS_9allocatorIiEEE5clearEv
FNDA:0,_ZNSt3__113__vector_baseINS_4pairINS_6vectorIiNS_9allocatorIiEEEEiEENS3_IS6_EEE5clearEv
FNDA:272,_ZNKSt3__113__vector_baseIiNS_9allocatorIiEEE8capacityEv
FNDA:256,_ZNKSt3__113__vector_baseINS_4pairINS_6vectorIiNS_9allocatorIiEEEEiEENS3_IS6_EEE8capacityEv
FNDA:0,_ZNSt3__113__vector_baseIiNS_9allocatorIiEEE17__destruct_at_endEPi
FNDA:0,_ZNSt3__113__vector_baseINS_4pairINS_6vectorIiNS_9allocatorIiEEEEiEENS3_IS6_EEE17__destruct_at_endEPS6_
FNDA:136,_ZNSt3__113__vector_baseIiNS_9allocatorIiEEEC2Ev
FNDA:64,_ZNSt3__113__vector_baseINS_4pairINS_6vectorIiNS_9allocatorIiEEEEiEENS3_IS6_EEEC2Ev
FNDA:0,_ZNSt3__113__vector_baseIiNS_9allocatorIiEEEC2EOS2_
FNDA:0,_ZNSt3__113__vector_baseINS_4pairINS_6vectorIiNS_9allocatorIiEEEEiEENS3_IS6_EEEC2EOS7_
FNDA:0,_ZNSt3__113__vector_baseIiNS_9allocatorIiEEED2Ev
FNDA:0,_ZNSt3__113__vector_baseINS_4pairINS_6vectorIiNS_9allocatorIiEEEEiEENS3_IS6_EEED2Ev
FNDA:128,_ZNSt3__16vectorINS_4pairINS0_IiNS_9allocatorIiEEEEiEENS2_IS5_EEED1Ev
FNDA:136,_ZNSt3__16vectorIiNS_9allocatorIiEEED1Ev
FNDA:136,_ZNSt3__16vectorIiNS_9allocatorIiEEED2Ev
FNDA:128,_ZNSt3__16vectorINS_4pairINS0_IiNS_9allocatorIiEEEEiEENS2_IS5_EEED2Ev
FNDA:136,_ZNKSt3__16vectorIiNS_9allocatorIiEEE4sizeEv
FNDA:128,_ZNKSt3__16vectorINS_4pairINS0_IiNS_9allocatorIiEEEEiEENS2_IS5_EEE4sizeEv
FNDA:272,_ZNKSt3__16vectorIiNS_9allocatorIiEEE8capacityEv
FNDA:256,_ZNKSt3__16vectorINS_4pairINS0_IiNS_9allocatorIiEEEEiEENS2_IS5_EEE8capacityEv
FNDA:544,_ZNKSt3__16vectorIiNS_9allocatorIiEEE4dataEv
FNDA:512,_ZNKSt3__16vectorINS_4pairINS0_IiNS_9allocatorIiEEEEiEENS2_IS5_EEE4dataEv
FNDA:136,_ZNKSt3__16vectorIiNS_9allocatorIiEEE31__annotate_contiguous_containerEPKvS5_S5_S5_
FNDA:128,_ZNKSt3__16vectorINS_4pairINS0_IiNS_9allocatorIiEEEEiEENS2_IS5_EEE31__annotate_contiguous_containerEPKvS9_S9_S9_
FNDA:0,_ZNKSt3__16vectorIiNS_9allocatorIiEEE14__annotate_newEm
FNDA:0,_ZNKSt3__16vectorINS_4pairINS0_IiNS_9allocatorIiEEEEiEENS2_IS5_EEE14__annotate_newEm
FNDA:136,_ZNKSt3__16vectorIiNS_9allocatorIiEEE17__annotate_deleteEv
FNDA:128,_ZNKSt3__16vectorINS_4pairINS0_IiNS_9allocatorIiEEEEiEENS2_IS5_EEE17__annotate_deleteEv
FNDA:0,_ZNSt3__16vectorIiNS_9allocatorIiEEE24__RAII_IncreaseAnnotatorC1ERKS3_m
FNDA:0,_ZNSt3__16vectorIiNS_9allocatorIiEEE24__RAII_IncreaseAnnotatorC2ERKS3_m
FNDA:300,_ZNSt3__16vectorINS_4pairINS0_IiNS_9allocatorIiEEEEiEENS2_IS5_EEE24__RAII_IncreaseAnnotatorC1ERKS7_m
FNDA:300,_ZNSt3__16vectorINS_4pairINS0_IiNS_9allocatorIiEEEEiEENS2_IS5_EEE24__RAII_IncreaseAnnotatorC2ERKS7_m
FNDA:0,_ZNSt3__16vectorIiNS_9allocatorIiEEE24__RAII_IncreaseAnnotator6__doneEv
FNDA:300,_ZNSt3__16vectorINS_4pairINS0_IiNS_9allocatorIiEEEEiEENS2_IS5_EEE24__RAII_IncreaseAnnotator6__doneEv
FNDA:0,_ZNSt3__16vectorIiNS_9allocatorIiEEE11__vallocateEm
FNDA:0,_ZNSt3__16vectorINS_4pairINS0_IiNS_9allocatorIiEEEEiEENS2_IS5_EEE11__vallocateEm
FNDA:0,_ZNKSt3__16vectorIiNS_9allocatorIiEEE8max_sizeEv
FNDA:0,_ZNKSt3__16vectorINS_4pairINS0_IiNS_9allocatorIiEEEEiEENS2_IS5_EEE8max_sizeEv
FNDA:0,_ZNSt3__16vectorIiNS_9allocatorIiEEE18__construct_at_endIPKiEENS_9enable_ifIXsr21__is_forward_iteratorIT_EE5valueEvE4typeES8_S8_m
FNDA:0,_ZNSt3__16vectorIiNS_9allocatorIiEEE18__construct_at_endIPiEENS_9enable_ifIXsr21__is_forward_iteratorIT_EE5valueEvE4typeES7_S7_m
FNDA:300,_ZNSt3__16vectorINS_4pairINS0_IiNS_9allocatorIiEEEEiEENS2_IS5_EEE18__construct_at_endIPKS5_EENS_9enable_ifIXsr21__is_forward_iteratorIT_EE5valueEvE4typeESC_SC_m
FNDA:0,_ZNSt3__16vectorINS_4pairINS0_IiNS_9allocatorIiEEEEiEENS2_IS5_EEE18__construct_at_endIPS5_EENS_9enable_ifIXsr21__is_forward_iteratorIT_EE5valueEvE4typeESB_SB_m
FNDA:0,_ZNSt3__16vectorINS_4pairINS0_IiNS_9allocatorIiEEEEiEENS2_IS5_EEEC1ERKS7_
FNDA:0,_ZNSt3__16vectorIiNS_9allocatorIiEEEC1ERKS3_
FNDA:0,_ZNSt3__16vectorIiNS_9allocatorIiEEEC2ERKS3_
FNDA:0,_ZNSt3__16vectorINS_4pairINS0_IiNS_9allocatorIiEEEEiEENS2_IS5_EEEC2ERKS7_
FNDA:136,_ZNSt3__16vectorIiNS_9allocatorIiEEEC1ESt16initializer_listIiE
FNDA:64,_ZNSt3__16vectorINS_4pairINS0_IiNS_9allocatorIiEEEEiEENS2_IS5_EEEC1ESt16initializer_listIS5_E
FNDA:136,_ZNSt3__16vectorIiNS_9allocatorIiEEEC2ESt16initializer_listIiE
FNDA:64,_ZNSt3__16vectorINS_4pairINS0_IiNS_9allocatorIiEEEEiEENS2_IS5_EEEC2ESt16initializer_listIS5_E
FNF:59
FNH:30
DA:304,200
DA:348,300
DA:349,300
DA:351,0
DA:352,0
DA:354,0
DA:355,0
DA:357,528
DA:358,528
DA:361,200
DA:365,0
DA:370,0
DA:372,528
DA:373,528
DA:423,0
DA:425,0
DA:426,0
DA:427,0
DA:428,0
DA:429,0
DA:433,200
DA:435,200
DA:436,200
DA:437,200
DA:438,200
DA:439,200
DA:453,0
DA:454,0
DA:455,0
DA:456,0
DA:460,0
DA:462,0
DA:464,0
DA:465,0
DA:466,0
DA:467,0
DA:550,528
DA:551,264
DA:552,264
DA:556,528
DA:565,200
DA:656,264
DA:657,264
DA:659,528
DA:660,528
DA:698,1056
DA:699,1056
DA:862,264
DA:863,264
DA:866,0
DA:867,0
DA:868,0
DA:869,0
DA:872,264
DA:873,528
DA:874,264
DA:875,264
DA:910,600
DA:911,300
DA:973,0
DA:975,0
DA:976,0
DA:977,0
DA:978,0
DA:979,0
DA:980,0
DA:996,0
DA:998,0
DA:999,0
DA:1066,300
DA:1068,300
DA:1069,300
DA:1070,300
DA:1071,300
DA:1072,300
DA:1243,0
DA:1244,0
DA:1245,0
DA:1249,0
DA:1250,0
DA:1252,0
DA:1253,0
DA:1254,0
DA:1255,0
DA:1321,400
DA:1322,400
DA:1326,200
DA:1328,200
DA:1329,200
DA:1330,200
DA:1331,400
LF:91
LH:46
end_of_record
SF:/Users/usuario/Desktop/LabAlgo1/tp2/reunionesRemotas/lib/gtest.h
FN:8201,_ZN7testing8internal15TestFactoryBaseD1Ev
FN:8201,_ZN7testing8internal15TestFactoryBaseD2Ev
FN:8201,_ZN7testing8internal15TestFactoryBaseD0Ev
FN:8208,_ZN7testing8internal15TestFactoryBaseC2Ev
FN:8217,_ZN7testing8internal15TestFactoryImplI36acelerarTEST_aceleracionValida2_TestEC1Ev
FN:8217,_ZN7testing8internal15TestFactoryImplI54acelerarTEST_aceleracionValidaSenialesLongitudPar_TestED2Ev
FN:8217,_ZN7testing8internal15TestFactoryImplI36acelerarTEST_aceleracionValida6_TestED0Ev
FN:8217,_ZN7testing8internal15TestFactoryImplI36acelerarTEST_aceleracionValida4_TestED1Ev
FN:8217,_ZN7testing8internal15TestFactoryImplI36acelerarTEST_aceleracionValida1_TestED1Ev
FN:8217,_ZN7testing8internal15TestFactoryImplI54acelerarTEST_aceleracionValidaSenialesLongitudPar_TestEC2Ev
FN:8217,_ZN7testing8internal15TestFactoryImplI36acelerarTEST_aceleracionValida4_TestED0Ev
FN:8217,_ZN7testing8internal15TestFactoryImplI36acelerarTEST_aceleracionValida4_TestEC1Ev
FN:8217,_ZN7testing8internal15TestFactoryImplI36acelerarTEST_aceleracionValida1_TestED2Ev
FN:8217,_ZN7testing8internal15TestFactoryImplI36acelerarTEST_aceleracionValida5_TestEC2Ev
FN:8217,_ZN7testing8internal15TestFactoryImplI36acelerarTEST_aceleracionValida5_TestEC1Ev
FN:8217,_ZN7testing8internal15TestFactoryImplI36acelerarTEST_aceleracionValida5_TestED0Ev
FN:8217,_ZN7testing8internal15TestFactoryImplI36acelerarTEST_aceleracionValida6_TestEC1Ev
FN:8217,_ZN7testing8internal15TestFactoryImplI36acelerarTEST_aceleracionValida5_TestED2Ev
FN:8217,_ZN7testing8internal15TestFactoryImplI36acelerarTEST_aceleracionValida3_TestEC2Ev
FN:8217,_ZN7testing8internal15TestFactoryImplI56acelerarTEST_aceleracionValidaSenialesLongitudImpar_TestED0Ev
FN:8217,_ZN7testing8internal15TestFactoryImplI36acelerarTEST_aceleracionValida4_TestEC2Ev
FN:8217,_ZN7testing8internal15TestFactoryImplI36acelerarTEST_aceleracionValida3_TestED1Ev
FN:8217,_ZN7testing8internal15TestFactoryImplI54acelerarTEST_aceleracionValidaSenialesLongitudPar_TestEC1Ev
FN:8217,_ZN7testing8internal15TestFactoryImplI36acelerarTEST_aceleracionValida1_TestEC2Ev
FN:8217,_ZN7testing8internal15TestFactoryImplI54acelerarTEST_aceleracionValidaSenialesLongitudPar_TestED1Ev
FN:8217,_ZN7testing8internal15TestFactoryImplI36acelerarTEST_aceleracionValida1_TestED0Ev
FN:8217,_ZN7testing8internal15TestFactoryImplI36acelerarTEST_aceleracionValida4_TestED2Ev
FN:8217,_ZN7testing8internal15TestFactoryImplI56acelerarTEST_aceleracionValidaSenialesLongitudImpar_TestEC1Ev
FN:8217,_ZN7testing8internal15TestFactoryImplI56acelerarTEST_aceleracionValidaSenialesLongitudImpar_TestED2Ev
FN:8217,_ZN7testing8internal15TestFactoryImplI36acelerarTEST_aceleracionValida6_TestEC2Ev
FN:8217,_ZN7testing8internal15TestFactoryImplI36acelerarTEST_aceleracionValida3_TestED2Ev
FN:8217,_ZN7testing8internal15TestFactoryImplI36acelerarTEST_aceleracionValida3_TestED0Ev
FN:8217,_ZN7testing8internal15TestFactoryImplI36acelerarTEST_aceleracionValida5_TestED1Ev
FN:8217,_ZN7testing8internal15TestFactoryImplI36acelerarTEST_aceleracionValida2_TestED2Ev
FN:8217,_ZN7testing8internal15TestFactoryImplI36acelerarTEST_aceleracionValida2_TestED0Ev
FN:8217,_ZN7testing8internal15TestFactoryImplI54acelerarTEST_aceleracionValidaSenialesLongitudPar_TestED0Ev
FN:8217,_ZN7testing8internal15TestFactoryImplI36acelerarTEST_aceleracionValida1_TestEC1Ev
FN:8217,_ZN7testing8internal15TestFactoryImplI36acelerarTEST_aceleracionValida3_TestEC1Ev
FN:8217,_ZN7testing8internal15TestFactoryImplI36acelerarTEST_aceleracionValida2_TestED1Ev
FN:8217,_ZN7testing8internal15TestFactoryImplI56acelerarTEST_aceleracionValidaSenialesLongitudImpar_TestED1Ev
FN:8217,_ZN7testing8internal15TestFactoryImplI36acelerarTEST_aceleracionValida6_TestED1Ev
FN:8217,_ZN7testing8internal15TestFactoryImplI36acelerarTEST_aceleracionValida2_TestEC2Ev
FN:8217,_ZN7testing8internal15TestFactoryImplI36acelerarTEST_aceleracionValida6_TestED2Ev
FN:8217,_ZN7testing8internal15TestFactoryImplI56acelerarTEST_aceleracionValidaSenialesLongitudImpar_TestEC2Ev
FN:8219,_ZN7testing8internal15TestFactoryImplI36acelerarTEST_aceleracionValida6_TestE10CreateTestEv
FN:8219,_ZN7testing8internal15TestFactoryImplI36acelerarTEST_aceleracionValida2_TestE10CreateTestEv
FN:8219,_ZN7testing8internal15TestFactoryImplI56acelerarTEST_aceleracionValidaSenialesLongitudImpar_TestE10CreateTestEv
FN:8219,_ZN7testing8internal15TestFactoryImplI36acelerarTEST_aceleracionValida1_TestE10CreateTestEv
FN:8219,_ZN7testing8internal15TestFactoryImplI36acelerarTEST_aceleracionValida3_TestE10CreateTestEv
FN:8219,_ZN7testing8internal15TestFactoryImplI36acelerarTEST_aceleracionValida4_TestE10CreateTestEv
FN:8219,_ZN7testing8internal15TestFactoryImplI54acelerarTEST_aceleracionValidaSenialesLongitudPar_TestE10CreateTestEv
FN:8219,_ZN7testing8internal15TestFactoryImplI36acelerarTEST_aceleracionValida5_TestE10CreateTestEv
FN:8239,_ZN7testing8internal12CodeLocationD1Ev
FN:8239,_ZN7testing8internal12CodeLocationD2Ev
FN:8240,_ZN7testing8internal12CodeLocationC2ERKNSt3__112basic_stringIcNS2_11char_traitsIcEENS2_9allocatorIcEEEEi
FN:8240,_ZN7testing8internal12CodeLocationC1ERKNSt3__112basic_stringIcNS2_11char_traitsIcEENS2_9allocatorIcEEEEi
FN:18988,_ZN7testing4Test13SetUpTestCaseEv
FN:18996,_ZN7testing4Test16TearDownTestCaseEv
FN:19073,_ZN7testing4Test5SetupEv
FNDA:0,_ZN7testing8internal15TestFactoryBaseD1Ev
FNDA:0,_ZN7testing8internal15TestFactoryBaseD0Ev
FNDA:408,_ZN7testing8internal15TestFactoryBaseD2Ev
FNDA:408,_ZN7testing8internal15TestFactoryBaseC2Ev
FNDA:4,_ZN7testing8internal15TestFactoryImplI56acelerarTEST_aceleracionValidaSenialesLongitudImpar_TestEC1Ev
FNDA:4,_ZN7testing8internal15TestFactoryImplI54acelerarTEST_aceleracionValidaSenialesLongitudPar_TestEC1Ev
FNDA:4,_ZN7testing8internal15TestFactoryImplI36acelerarTEST_aceleracionValida1_TestEC1Ev
FNDA:4,_ZN7testing8internal15TestFactoryImplI36acelerarTEST_aceleracionValida2_TestEC1Ev
FNDA:4,_ZN7testing8internal15TestFactoryImplI36acelerarTEST_aceleracionValida3_TestEC1Ev
FNDA:4,_ZN7testing8internal15TestFactoryImplI36acelerarTEST_aceleracionValida4_TestEC1Ev
FNDA:4,_ZN7testing8internal15TestFactoryImplI36acelerarTEST_aceleracionValida5_TestEC1Ev
FNDA:4,_ZN7testing8internal15TestFactoryImplI36acelerarTEST_aceleracionValida6_TestEC1Ev
FNDA:4,_ZN7testing8internal15TestFactoryImplI56acelerarTEST_aceleracionValidaSenialesLongitudImpar_TestEC2Ev
FNDA:4,_ZN7testing8internal15TestFactoryImplI56acelerarTEST_aceleracionValidaSenialesLongitudImpar_TestED1Ev
FNDA:4,_ZN7testing8internal15TestFactoryImplI56acelerarTEST_aceleracionValidaSenialesLongitudImpar_TestED0Ev
FNDA:4,_ZN7testing8internal15TestFactoryImplI56acelerarTEST_aceleracionValidaSenialesLongitudImpar_TestED2Ev
FNDA:4,_ZN7testing8internal15TestFactoryImplI54acelerarTEST_aceleracionValidaSenialesLongitudPar_TestEC2Ev
FNDA:4,_ZN7testing8internal15TestFactoryImplI54acelerarTEST_aceleracionValidaSenialesLongitudPar_TestED1Ev
FNDA:4,_ZN7testing8internal15TestFactoryImplI54acelerarTEST_aceleracionValidaSenialesLongitudPar_TestED0Ev
FNDA:4,_ZN7testing8internal15TestFactoryImplI54acelerarTEST_aceleracionValidaSenialesLongitudPar_TestED2Ev
FNDA:4,_ZN7testing8internal15TestFactoryImplI36acelerarTEST_aceleracionValida1_TestEC2Ev
FNDA:4,_ZN7testing8internal15TestFactoryImplI36acelerarTEST_aceleracionValida1_TestED1Ev
FNDA:4,_ZN7testing8internal15TestFactoryImplI36acelerarTEST_aceleracionValida1_TestED0Ev
FNDA:4,_ZN7testing8internal15TestFactoryImplI36acelerarTEST_aceleracionValida1_TestED2Ev
FNDA:4,_ZN7testing8internal15TestFactoryImplI36acelerarTEST_aceleracionValida2_TestEC2Ev
FNDA:4,_ZN7testing8internal15TestFactoryImplI36acelerarTEST_aceleracionValida2_TestED1Ev
FNDA:4,_ZN7testing8internal15TestFactoryImplI36acelerarTEST_aceleracionValida2_TestED0Ev
FNDA:4,_ZN7testing8internal15TestFactoryImplI36acelerarTEST_aceleracionValida2_TestED2Ev
FNDA:4,_ZN7testing8internal15TestFactoryImplI36acelerarTEST_aceleracionValida3_TestEC2Ev
FNDA:4,_ZN7testing8internal15TestFactoryImplI36acelerarTEST_aceleracionValida3_TestED1Ev
FNDA:4,_ZN7testing8internal15TestFactoryImplI36acelerarTEST_aceleracionValida3_TestED0Ev
FNDA:4,_ZN7testing8internal15TestFactoryImplI36acelerarTEST_aceleracionValida3_TestED2Ev
FNDA:4,_ZN7testing8internal15TestFactoryImplI36acelerarTEST_aceleracionValida4_TestEC2Ev
FNDA:4,_ZN7testing8internal15TestFactoryImplI36acelerarTEST_aceleracionValida4_TestED1Ev
FNDA:4,_ZN7testing8internal15TestFactoryImplI36acelerarTEST_aceleracionValida4_TestED0Ev
FNDA:4,_ZN7testing8internal15TestFactoryImplI36acelerarTEST_aceleracionValida4_TestED2Ev
FNDA:4,_ZN7testing8internal15TestFactoryImplI36acelerarTEST_aceleracionValida5_TestEC2Ev
FNDA:4,_ZN7testing8internal15TestFactoryImplI36acelerarTEST_aceleracionValida5_TestED1Ev
FNDA:4,_ZN7testing8internal15TestFactoryImplI36acelerarTEST_aceleracionValida5_TestED0Ev
FNDA:4,_ZN7testing8internal15TestFactoryImplI36acelerarTEST_aceleracionValida5_TestED2Ev
FNDA:4,_ZN7testing8internal15TestFactoryImplI36acelerarTEST_aceleracionValida6_TestEC2Ev
FNDA:4,_ZN7testing8internal15TestFactoryImplI36acelerarTEST_aceleracionValida6_TestED1Ev
FNDA:4,_ZN7testing8internal15TestFactoryImplI36acelerarTEST_aceleracionValida6_TestED0Ev
FNDA:4,_ZN7testing8internal15TestFactoryImplI36acelerarTEST_aceleracionValida6_TestED2Ev
FNDA:4,_ZN7testing8internal15TestFactoryImplI56acelerarTEST_aceleracionValidaSenialesLongitudImpar_TestE10CreateTestEv
FNDA:4,_ZN7testing8internal15TestFactoryImplI54acelerarTEST_aceleracionValidaSenialesLongitudPar_TestE10CreateTestEv
FNDA:4,_ZN7testing8internal15TestFactoryImplI36acelerarTEST_aceleracionValida1_TestE10CreateTestEv
FNDA:4,_ZN7testing8internal15TestFactoryImplI36acelerarTEST_aceleracionValida2_TestE10CreateTestEv
FNDA:4,_ZN7testing8internal15TestFactoryImplI36acelerarTEST_aceleracionValida3_TestE10CreateTestEv
FNDA:4,_ZN7testing8internal15TestFactoryImplI36acelerarTEST_aceleracionValida4_TestE10CreateTestEv
FNDA:4,_ZN7testing8internal15TestFactoryImplI36acelerarTEST_aceleracionValida5_TestE10CreateTestEv
FNDA:4,_ZN7testing8internal15TestFactoryImplI36acelerarTEST_aceleracionValida6_TestE10CreateTestEv
FNDA:1224,_ZN7testing8internal12CodeLocationD1Ev
FNDA:1224,_ZN7testing8internal12CodeLocationD2Ev
FNDA:408,_ZN7testing8internal12CodeLocationC1ERKNSt3__112basic_stringIcNS2_11char_traitsIcEENS2_9allocatorIcEEEEi
FNDA:408,_ZN7testing8internal12CodeLocationC2ERKNSt3__112basic_stringIcNS2_11char_traitsIcEENS2_9allocatorIcEEEEi
FNDA:44,_ZN7testing4Test13SetUpTestCaseEv
FNDA:44,_ZN7testing4Test16TearDownTestCaseEv
FNDA:0,_ZN7testing4Test5SetupEv
FNF:59
FNH:56
DA:8201,408
DA:8208,408
DA:8217,160
DA:8219,32
DA:8239,2448
DA:8240,816
DA:18988,44
DA:18996,44
DA:19073,0
LF:9
LH:8
end_of_record
SF:/Users/usuario/Desktop/LabAlgo1/tp2/reunionesRemotas/tests/acelerar.cpp
FN:8,_ZN56acelerarTEST_aceleracionValidaSenialesLongitudImpar_TestD2Ev
FN:8,__cxx_global_var_init
FN:8,_ZN56acelerarTEST_aceleracionValidaSenialesLongitudImpar_Test8TestBodyEv
FN:8,_ZN56acelerarTEST_aceleracionValidaSenialesLongitudImpar_TestC1Ev
FN:8,_ZN56acelerarTEST_aceleracionValidaSenialesLongitudImpar_TestD0Ev
FN:8,_ZN56acelerarTEST_aceleracionValidaSenialesLongitudImpar_TestD1Ev
FN:8,_ZN56acelerarTEST_aceleracionValidaSenialesLongitudImpar_TestC2Ev
FN:24,_ZN54acelerarTEST_aceleracionValidaSenialesLongitudPar_TestD0Ev
FN:24,_ZN54acelerarTEST_aceleracionValidaSenialesLongitudPar_TestD1Ev
FN:24,__cxx_global_var_init.6
FN:24,_ZN54acelerarTEST_aceleracionValidaSenialesLongitudPar_TestC1Ev
FN:24,_ZN54acelerarTEST_aceleracionValidaSenialesLongitudPar_Test8TestBodyEv
FN:24,_ZN54acelerarTEST_aceleracionValidaSenialesLongitudPar_TestD2Ev
FN:24,_ZN54acelerarTEST_aceleracionValidaSenialesLongitudPar_TestC2Ev
FN:40,__cxx_global_var_init.12
FN:40,_ZN36acelerarTEST_aceleracionValida1_TestD2Ev
FN:40,_ZN36acelerarTEST_aceleracionValida1_TestD1Ev
FN:40,_ZN36acelerarTEST_aceleracionValida1_Test8TestBodyEv
FN:40,_ZN36acelerarTEST_aceleracionValida1_TestC2Ev
FN:40,_ZN36acelerarTEST_aceleracionValida1_TestD0Ev
FN:40,_ZN36acelerarTEST_aceleracionValida1_TestC1Ev
FN:62,_ZN36acelerarTEST_aceleracionValida2_TestD0Ev
FN:62,_ZN36acelerarTEST_aceleracionValida2_TestC1Ev
FN:62,_ZN36acelerarTEST_aceleracionValida2_Test8TestBodyEv
FN:62,__cxx_global_var_init.22
FN:62,_ZN36acelerarTEST_aceleracionValida2_TestD2Ev
FN:62,_ZN36acelerarTEST_aceleracionValida2_TestD1Ev
FN:62,_ZN36acelerarTEST_aceleracionValida2_TestC2Ev
FN:77,__cxx_global_var_init.26
FN:77,_ZN36acelerarTEST_aceleracionValida3_TestC1Ev
FN:77,_ZN36acelerarTEST_aceleracionValida3_TestD1Ev
FN:77,_ZN36acelerarTEST_aceleracionValida3_TestD0Ev
FN:77,_ZN36acelerarTEST_aceleracionValida3_TestC2Ev
FN:77,_ZN36acelerarTEST_aceleracionValida3_TestD2Ev
FN:77,_ZN36acelerarTEST_aceleracionValida3_Test8TestBodyEv
FN:92,_ZN36acelerarTEST_aceleracionValida4_TestC2Ev
FN:92,_ZN36acelerarTEST_aceleracionValida4_TestC1Ev
FN:92,_ZN36acelerarTEST_aceleracionValida4_TestD1Ev
FN:92,_ZN36acelerarTEST_aceleracionValida4_TestD2Ev
FN:92,_ZN36acelerarTEST_aceleracionValida4_Test8TestBodyEv
FN:92,__cxx_global_var_init.30
FN:92,_ZN36acelerarTEST_aceleracionValida4_TestD0Ev
FN:107,_ZN36acelerarTEST_aceleracionValida5_TestC2Ev
FN:107,_ZN36acelerarTEST_aceleracionValida5_Test8TestBodyEv
FN:107,_ZN36acelerarTEST_aceleracionValida5_TestD1Ev
FN:107,__cxx_global_var_init.34
FN:107,_ZN36acelerarTEST_aceleracionValida5_TestD0Ev
FN:107,_ZN36acelerarTEST_aceleracionValida5_TestC1Ev
FN:107,_ZN36acelerarTEST_aceleracionValida5_TestD2Ev
FN:124,_ZN36acelerarTEST_aceleracionValida6_TestD2Ev
FN:124,_ZN36acelerarTEST_aceleracionValida6_TestC2Ev
FN:124,_ZN36acelerarTEST_aceleracionValida6_TestC1Ev
FN:124,_ZN36acelerarTEST_aceleracionValida6_Test8TestBodyEv
FN:124,_ZN36acelerarTEST_aceleracionValida6_TestD1Ev
FN:124,__cxx_global_var_init.40
FN:124,_ZN36acelerarTEST_aceleracionValida6_TestD0Ev
FNDA:4,__cxx_global_var_init
FNDA:4,_ZN56acelerarTEST_aceleracionValidaSenialesLongitudImpar_Test8TestBodyEv
FNDA:4,_ZN56acelerarTEST_aceleracionValidaSenialesLongitudImpar_TestD1Ev
FNDA:4,_ZN56acelerarTEST_aceleracionValidaSenialesLongitudImpar_TestD0Ev
FNDA:4,_ZN56acelerarTEST_aceleracionValidaSenialesLongitudImpar_TestC1Ev
FNDA:4,_ZN56acelerarTEST_aceleracionValidaSenialesLongitudImpar_TestC2Ev
FNDA:4,_ZN56acelerarTEST_aceleracionValidaSenialesLongitudImpar_TestD2Ev
FNDA:4,__cxx_global_var_init.6
FNDA:4,_ZN54acelerarTEST_aceleracionValidaSenialesLongitudPar_Test8TestBodyEv
FNDA:4,_ZN54acelerarTEST_aceleracionValidaSenialesLongitudPar_TestD1Ev
FNDA:4,_ZN54acelerarTEST_aceleracionValidaSenialesLongitudPar_TestD0Ev
FNDA:4,_ZN54acelerarTEST_aceleracionValidaSenialesLongitudPar_TestC1Ev
FNDA:4,_ZN54acelerarTEST_aceleracionValidaSenialesLongitudPar_TestC2Ev
FNDA:4,_ZN54acelerarTEST_aceleracionValidaSenialesLongitudPar_TestD2Ev
FNDA:4,__cxx_global_var_init.12
FNDA:4,_ZN36acelerarTEST_aceleracionValida1_Test8TestBodyEv
FNDA:4,_ZN36acelerarTEST_aceleracionValida1_TestD1Ev
FNDA:4,_ZN36acelerarTEST_aceleracionValida1_TestD0Ev
FNDA:4,_ZN36acelerarTEST_aceleracionValida1_TestC1Ev
FNDA:4,_ZN36acelerarTEST_aceleracionValida1_TestC2Ev
FNDA:4,_ZN36acelerarTEST_aceleracionValida1_TestD2Ev
FNDA:4,__cxx_global_var_init.22
FNDA:4,_ZN36acelerarTEST_aceleracionValida2_Test8TestBodyEv
FNDA:4,_ZN36acelerarTEST_aceleracionValida2_TestD1Ev
FNDA:4,_ZN36acelerarTEST_aceleracionValida2_TestD0Ev
FNDA:4,_ZN36acelerarTEST_aceleracionValida2_TestC1Ev
FNDA:4,_ZN36acelerarTEST_aceleracionValida2_TestC2Ev
FNDA:4,_ZN36acelerarTEST_aceleracionValida2_TestD2Ev
FNDA:4,__cxx_global_var_init.26
FNDA:4,_ZN36acelerarTEST_aceleracionValida3_Test8TestBodyEv
FNDA:4,_ZN36acelerarTEST_aceleracionValida3_TestD1Ev
FNDA:4,_ZN36acelerarTEST_aceleracionValida3_TestD0Ev
FNDA:4,_ZN36acelerarTEST_aceleracionValida3_TestC1Ev
FNDA:4,_ZN36acelerarTEST_aceleracionValida3_TestC2Ev
FNDA:4,_ZN36acelerarTEST_aceleracionValida3_TestD2Ev
FNDA:4,__cxx_global_var_init.30
FNDA:4,_ZN36acelerarTEST_aceleracionValida4_Test8TestBodyEv
FNDA:4,_ZN36acelerarTEST_aceleracionValida4_TestD1Ev
FNDA:4,_ZN36acelerarTEST_aceleracionValida4_TestD0Ev
FNDA:4,_ZN36acelerarTEST_aceleracionValida4_TestC1Ev
FNDA:4,_ZN36acelerarTEST_aceleracionValida4_TestC2Ev
FNDA:4,_ZN36acelerarTEST_aceleracionValida4_TestD2Ev
FNDA:4,__cxx_global_var_init.34
FNDA:4,_ZN36acelerarTEST_aceleracionValida5_Test8TestBodyEv
FNDA:4,_ZN36acelerarTEST_aceleracionValida5_TestD1Ev
FNDA:4,_ZN36acelerarTEST_aceleracionValida5_TestD0Ev
FNDA:4,_ZN36acelerarTEST_aceleracionValida5_TestC1Ev
FNDA:4,_ZN36acelerarTEST_aceleracionValida5_TestC2Ev
FNDA:4,_ZN36acelerarTEST_aceleracionValida5_TestD2Ev
FNDA:4,__cxx_global_var_init.40
FNDA:4,_ZN36acelerarTEST_aceleracionValida6_Test8TestBodyEv
FNDA:4,_ZN36acelerarTEST_aceleracionValida6_TestD1Ev
FNDA:4,_ZN36acelerarTEST_aceleracionValida6_TestD0Ev
FNDA:4,_ZN36acelerarTEST_aceleracionValida6_TestC1Ev
FNDA:4,_ZN36acelerarTEST_aceleracionValida6_TestC2Ev
FNDA:4,_ZN36acelerarTEST_aceleracionValida6_TestD2Ev
FNF:56
FNH:56
DA:8,28
DA:9,4
DA:10,4
DA:11,8
DA:12,4
DA:13,4
DA:15,4
DA:16,4
DA:17,8
DA:19,4
DA:21,4
DA:22,4
DA:24,28
DA:25,4
DA:26,4
DA:27,8
DA:28,4
DA:29,4
DA:31,4
DA:32,4
DA:33,8
DA:35,4
DA:37,4
DA:38,4
DA:40,28
DA:42,4
DA:43,4
DA:44,4
DA:45,4
DA:46,16
DA:47,4
DA:48,4
DA:50,4
DA:51,4
DA:52,4
DA:53,4
DA:54,16
DA:55,4
DA:57,4
DA:59,4
DA:60,4
DA:62,28
DA:64,4
DA:65,4
DA:66,4
DA:67,4
DA:69,4
DA:70,4
DA:72,4
DA:74,4
DA:75,4
DA:77,28
DA:79,4
DA:80,4
DA:81,4
DA:82,4
DA:84,4
DA:85,4
DA:87,4
DA:89,4
DA:90,4
DA:92,28
DA:94,4
DA:95,4
DA:96,4
DA:97,4
DA:99,4
DA:100,4
DA:102,4
DA:104,4
DA:105,4
DA:107,28
DA:109,4
DA:110,4
DA:111,8
DA:112,4
DA:113,4
DA:115,4
DA:116,4
DA:117,8
DA:119,4
DA:121,4
DA:122,4
DA:124,28
DA:126,4
DA:127,4
DA:128,4
DA:129,4
DA:130,16
DA:131,4
DA:132,4
DA:134,4
DA:135,4
DA:136,4
DA:137,4
DA:138,16
DA:139,4
DA:141,4
DA:143,4
DA:144,4
LF:100
LH:100
end_of_record
TN:
SF:/Library/Developer/CommandLineTools/usr/include/c++/v1/__string
FN:218,_ZNSt3__111char_traitsIcE6lengthEPKc
FNDA:0,_ZNSt3__111char_traitsIcE6lengthEPKc
FNF:1
FNH:0
DA:218,0
LF:1
LH:0
end_of_record
SF:/Library/Developer/CommandLineTools/usr/include/c++/v1/algorithm
FN:716,_ZNKSt3__16__lessImmEclERKmS3_
FN:2454,_ZNSt3__1L3minImNS_6__lessImmEEEERKT_S5_S5_T0_
FN:2462,_ZNSt3__1L3minImEERKT_S3_S3_
FNDA:0,_ZNKSt3__16__lessImmEclERKmS3_
FNDA:0,_ZNSt3__1L3minImNS_6__lessImmEEEERKT_S5_S5_T0_
FNDA:0,_ZNSt3__1L3minImEERKT_S3_S3_
FNF:3
FNH:0
DA:716,0
DA:2454,0
DA:2456,0
DA:2462,0
DA:2464,0
LF:5
LH:0
end_of_record
SF:/Library/Developer/CommandLineTools/usr/include/c++/v1/initializer_list
FN:85,_ZNKSt16initializer_listINSt3__14pairIiiEEE4sizeEv
FN:85,_ZNKSt16initializer_listIiE4sizeEv
FN:89,_ZNKSt16initializer_listINSt3__14pairIiiEEE5beginEv
FN:89,_ZNKSt16initializer_listIiE5beginEv
FN:93,_ZNKSt16initializer_listIiE3endEv
FN:93,_ZNKSt16initializer_listINSt3__14pairIiiEEE3endEv
FNDA:96,_ZNKSt16initializer_listIiE4sizeEv
FNDA:96,_ZNKSt16initializer_listINSt3__14pairIiiEEE4sizeEv
FNDA:32,_ZNKSt16initializer_listIiE5beginEv
FNDA:32,_ZNKSt16initializer_listINSt3__14pairIiiEEE5beginEv
FNDA:32,_ZNKSt16initializer_listIiE3endEv
FNDA:32,_ZNKSt16initializer_listINSt3__14pairIiiEEE3endEv
FNF:6
FNH:6
DA:85,192
DA:89,64
DA:93,64
LF:3
LH:3
end_of_record
SF:/Library/Developer/CommandLineTools/usr/include/c++/v1/limits
FN:215,_ZNSt3__123__libcpp_numeric_limitsIlLb1EE3maxEv
FN:452,_ZNSt3__114numeric_limitsIlE3maxEv
FNDA:0,_ZNSt3__123__libcpp_numeric_limitsIlLb1EE3maxEv
FNDA:0,_ZNSt3__114numeric_limitsIlE3maxEv
FNF:2
FNH:0
DA:215,0
DA:452,0
LF:2
LH:0
end_of_record
SF:/Library/Developer/CommandLineTools/usr/include/c++/v1/memory
FN:1106,_ZNSt3__1L16__to_raw_pointerINS_4pairIiiEEEEPT_S4_
FN:1106,_ZNSt3__1L16__to_raw_pointerIiEEPT_S2_
FN:1546,_ZNSt3__116allocator_traitsINS_9allocatorINS_4pairIiiEEEEE8allocateERS4_m
FN:1546,_ZNSt3__116allocator_traitsINS_9allocatorIiEEE8allocateERS2_m
FN:1554,_ZNSt3__116allocator_traitsINS_9allocatorINS_4pairIiiEEEEE10deallocateERS4_PS3_m
FN:1554,_ZNSt3__116allocator_traitsINS_9allocatorIiEEE10deallocateERS2_Pim
FN:1595,_ZNSt3__116allocator_traitsINS_9allocatorINS_4pairIiiEEEEE7destroyIS3_EEvRS4_PT_
FN:1595,_ZNSt3__116allocator_traitsINS_9allocatorIiEEE7destroyIiEEvRS2_PT_
FN:1599,_ZNSt3__116allocator_traitsINS_9allocatorINS_4pairIiiEEEEE8max_sizeERKS4_
FN:1599,_ZNSt3__116allocator_traitsINS_9allocatorIiEEE8max_sizeERKS2_
FN:1604,_ZNSt3__116allocator_traitsINS_9allocatorINS_4pairIiiEEEEE37select_on_container_copy_constructionERKS4_
FN:1604,_ZNSt3__116allocator_traitsINS_9allocatorIiEEE37select_on_container_copy_constructionERKS2_
FN:1662,_ZNSt3__116allocator_traitsINS_9allocatorIiEEE25__construct_range_forwardIKiiiiEENS_9enable_ifIXaaaasr31is_trivially_move_constructibleIT0_EE5valuesr7is_sameIT1_T2_EE5valueooL_ZNS_17integral_constantIbLb1EE5valueEEntsr15__has_constructIS2_PS7_RT_EE5valueEvE4typeERS2_PSD_SI_RSC_
FN:1662,_ZNSt3__116allocator_traitsINS_9allocatorIiEEE25__construct_range_forwardIiiiiEENS_9enable_ifIXaaaasr31is_trivially_move_constructibleIT0_EE5valuesr7is_sameIT1_T2_EE5valueooL_ZNS_17integral_constantIbLb1EE5valueEEntsr15__has_constructIS2_PS6_RT_EE5valueEvE4typeERS2_PSC_SH_RSB_
FN:1662,_ZNSt3__116allocator_traitsINS_9allocatorINS_4pairIiiEEEEE25__construct_range_forwardIS3_S3_S3_S3_EENS_9enable_ifIXaaaasr31is_trivially_move_constructibleIT0_EE5valuesr7is_sameIT1_T2_EE5valueooL_ZNS_17integral_constantIbLb1EE5valueEEntsr15__has_constructIS4_PS8_RT_EE5valueEvE4typeERS4_PSE_SJ_RSD_
FN:1662,_ZNSt3__116allocator_traitsINS_9allocatorINS_4pairIiiEEEEE25__construct_range_forwardIKS3_S3_S3_S3_EENS_9enable_ifIXaaaasr31is_trivially_move_constructibleIT0_EE5valuesr7is_sameIT1_T2_EE5valueooL_ZNS_17integral_constantIbLb1EE5valueEEntsr15__has_constructIS4_PS9_RT_EE5valueEvE4typeERS4_PSF_SK_RSE_
FN:1742,_ZNSt3__116allocator_traitsINS_9allocatorINS_4pairIiiEEEEE9__destroyIS3_EEvNS_17integral_constantIbLb1EEERS4_PT_
FN:1742,_ZNSt3__116allocator_traitsINS_9allocatorIiEEE9__destroyIiEEvNS_17integral_constantIbLb1EEERS2_PT_
FN:1752,_ZNSt3__116allocator_traitsINS_9allocatorINS_4pairIiiEEEEE10__max_sizeENS_17integral_constantIbLb1EEERKS4_
FN:1752,_ZNSt3__116allocator_traitsINS_9allocatorIiEEE10__max_sizeENS_17integral_constantIbLb1EEERKS2_
FN:1764,_ZNSt3__116allocator_traitsINS_9allocatorINS_4pairIiiEEEEE39__select_on_container_copy_constructionENS_17integral_constantIbLb0EEERKS4_
FN:1764,_ZNSt3__116allocator_traitsINS_9allocatorIiEEE39__select_on_container_copy_constructionENS_17integral_constantIbLb0EEERKS2_
FN:1798,_ZNSt3__19allocatorIiEC2Ev
FN:1798,_ZNSt3__19allocatorINS_4pairIiiEEEC2Ev
FN:1798,_ZNSt3__19allocatorIcEC2Ev
FN:1809,_ZNSt3__19allocatorINS_4pairIiiEEE8allocateEmPKv
FN:1809,_ZNSt3__19allocatorIiE8allocateEmPKv
FN:1816,_ZNSt3__19allocatorIiE10deallocateEPim
FN:1816,_ZNSt3__19allocatorINS_4pairIiiEEE10deallocateEPS2_m
FN:1818,_ZNKSt3__19allocatorIiE8max_sizeEv
FN:1818,_ZNKSt3__19allocatorINS_4pairIiiEEE8max_sizeEv
FN:1881,_ZNSt3__19allocatorINS_4pairIiiEEE7destroyEPS2_
FN:1881,_ZNSt3__19allocatorIiE7destroyEPi
FN:2140,_ZNSt3__122__compressed_pair_elemINS_12basic_stringIcNS_11char_traitsIcEENS_9allocatorIcEEE5__repELi0ELb0EEC2Ev
FN:2147,_ZNSt3__122__compressed_pair_elemIPiLi0ELb0EEC2IDnvEEOT_
FN:2147,_ZNSt3__122__compressed_pair_elemIPNS_4pairIiiEELi0ELb0EEC2IDnvEEOT_
FN:2163,_ZNSt3__122__compressed_pair_elemIPiLi0ELb0EE5__getEv
FN:2163,_ZNSt3__122__compressed_pair_elemIPNS_4pairIiiEELi0ELb0EE5__getEv
FN:2165,_ZNKSt3__122__compressed_pair_elemIPiLi0ELb0EE5__getEv
FN:2165,_ZNKSt3__122__compressed_pair_elemIPNS_4pairIiiEELi0ELb0EE5__getEv
FN:2179,_ZNSt3__122__compressed_pair_elemINS_9allocatorIcEELi1ELb1EEC2Ev
FN:2179,_ZNSt3__122__compressed_pair_elemINS_9allocatorINS_4pairIiiEEEELi1ELb1EEC2Ev
FN:2179,_ZNSt3__122__compressed_pair_elemINS_9allocatorIiEELi1ELb1EEC2Ev
FN:2186,_ZNSt3__122__compressed_pair_elemINS_9allocatorIiEELi1ELb1EEC2IS2_vEEOT_
FN:2186,_ZNSt3__122__compressed_pair_elemINS_9allocatorINS_4pairIiiEEEELi1ELb1EEC2IS4_vEEOT_
FN:2202,_ZNSt3__122__compressed_pair_elemINS_9allocatorIiEELi1ELb1EE5__getEv
FN:2202,_ZNSt3__122__compressed_pair_elemINS_9allocatorINS_4pairIiiEEEELi1ELb1EE5__getEv
FN:2204,_ZNKSt3__122__compressed_pair_elemINS_9allocatorIiEELi1ELb1EE5__getEv
FN:2204,_ZNKSt3__122__compressed_pair_elemINS_9allocatorINS_4pairIiiEEEELi1ELb1EE5__getEv
FN:2234,_ZNSt3__117__compressed_pairINS_12basic_stringIcNS_11char_traitsIcEENS_9allocatorIcEEE5__repES5_EC1ILb1EvEEv
FN:2234,_ZNSt3__117__compressed_pairINS_12basic_stringIcNS_11char_traitsIcEENS_9allocatorIcEEE5__repES5_EC2ILb1EvEEv
FN:2240,_ZNSt3__117__compressed_pairIPNS_4pairIiiEENS_9allocatorIS2_EEEC1IDnLb1EEEOT_
FN:2240,_ZNSt3__117__compressed_pairIPiNS_9allocatorIiEEEC2IDnLb1EEEOT_
FN:2240,_ZNSt3__117__compressed_pairIPNS_4pairIiiEENS_9allocatorIS2_EEEC2IDnLb1EEEOT_
FN:2240,_ZNSt3__117__compressed_pairIPiNS_9allocatorIiEEEC1IDnLb1EEEOT_
FN:2250,_ZNSt3__117__compressed_pairIPiNS_9allocatorIiEEEC2IDnS3_EEOT_OT0_
FN:2250,_ZNSt3__117__compressed_pairIPNS_4pairIiiEENS_9allocatorIS2_EEEC2IDnS5_EEOT_OT0_
FN:2250,_ZNSt3__117__compressed_pairIPiNS_9allocatorIiEEEC1IDnS3_EEOT_OT0_
FN:2250,_ZNSt3__117__compressed_pairIPNS_4pairIiiEENS_9allocatorIS2_EEEC1IDnS5_EEOT_OT0_
FN:2279,_ZNSt3__117__compressed_pairIPNS_4pairIiiEENS_9allocatorIS2_EEE5firstEv
FN:2279,_ZNSt3__117__compressed_pairIPiNS_9allocatorIiEEE5firstEv
FN:2284,_ZNKSt3__117__compressed_pairIPiNS_9allocatorIiEEE5firstEv
FN:2284,_ZNKSt3__117__compressed_pairIPNS_4pairIiiEENS_9allocatorIS2_EEE5firstEv
FN:2289,_ZNSt3__117__compressed_pairIPiNS_9allocatorIiEEE6secondEv
FN:2289,_ZNSt3__117__compressed_pairIPNS_4pairIiiEENS_9allocatorIS2_EEE6secondEv
FN:2294,_ZNKSt3__117__compressed_pairIPiNS_9allocatorIiEEE6secondEv
FN:2294,_ZNKSt3__117__compressed_pairIPNS_4pairIiiEENS_9allocatorIS2_EEE6secondEv
FNDA:272,_ZNSt3__1L16__to_raw_pointerIiEEPT_S2_
FNDA:400,_ZNSt3__1L16__to_raw_pointerINS_4pairIiiEEEEPT_S4_
FNDA:0,_ZNSt3__116allocator_traitsINS_9allocatorIiEEE8allocateERS2_m
FNDA:0,_ZNSt3__116allocator_traitsINS_9allocatorINS_4pairIiiEEEEE8allocateERS4_m
FNDA:0,_ZNSt3__116allocator_traitsINS_9allocatorIiEEE10deallocateERS2_Pim
FNDA:0,_ZNSt3__116allocator_traitsINS_9allocatorINS_4pairIiiEEEEE10deallocateERS4_PS3_m
FNDA:0,_ZNSt3__116allocator_traitsINS_9allocatorIiEEE7destroyIiEEvRS2_PT_
FNDA:0,_ZNSt3__116allocator_traitsINS_9allocatorINS_4pairIiiEEEEE7destroyIS3_EEvRS4_PT_
FNDA:0,_ZNSt3__116allocator_traitsINS_9allocatorIiEEE8max_sizeERKS2_
FNDA:0,_ZNSt3__116allocator_traitsINS_9allocatorINS_4pairIiiEEEEE8max_sizeERKS4_
FNDA:0,_ZNSt3__116allocator_traitsINS_9allocatorIiEEE37select_on_container_copy_constructionERKS2_
FNDA:0,_ZNSt3__116allocator_traitsINS_9allocatorINS_4pairIiiEEEEE37select_on_container_copy_constructionERKS4_
FNDA:0,_ZNSt3__116allocator_traitsINS_9allocatorIiEEE25__construct_range_forwardIKiiiiEENS_9enable_ifIXaaaasr31is_trivially_move_constructibleIT0_EE5valuesr7is_sameIT1_T2_EE5valueooL_ZNS_17integral_constantIbLb1EE5valueEEntsr15__has_constructIS2_PS7_RT_EE5valueEvE4typeERS2_PSD_SI_RSC_
FNDA:32,_ZNSt3__116allocator_traitsINS_9allocatorINS_4pairIiiEEEEE25__construct_range_forwardIKS3_S3_S3_S3_EENS_9enable_ifIXaaaasr31is_trivially_move_constructibleIT0_EE5valuesr7is_sameIT1_T2_EE5valueooL_ZNS_17integral_constantIbLb1EE5valueEEntsr15__has_constructIS4_PS9_RT_EE5valueEvE4typeERS4_PSF_SK_RSE_
FNDA:0,_ZNSt3__116allocator_traitsINS_9allocatorIiEEE25__construct_range_forwardIiiiiEENS_9enable_ifIXaaaasr31is_trivially_move_constructibleIT0_EE5valuesr7is_sameIT1_T2_EE5valueooL_ZNS_17integral_constantIbLb1EE5valueEEntsr15__has_constructIS2_PS6_RT_EE5valueEvE4typeERS2_PSC_SH_RSB_
FNDA:0,_ZNSt3__116allocator_traitsINS_9allocatorINS_4pairIiiEEEEE25__construct_range_forwardIS3_S3_S3_S3_EENS_9enable_ifIXaaaasr31is_trivially_move_constructibleIT0_EE5valuesr7is_sameIT1_T2_EE5valueooL_ZNS_17integral_constantIbLb1EE5valueEEntsr15__has_constructIS4_PS8_RT_EE5valueEvE4typeERS4_PSE_SJ_RSD_
FNDA:0,_ZNSt3__116allocator_traitsINS_9allocatorIiEEE9__destroyIiEEvNS_17integral_constantIbLb1EEERS2_PT_
FNDA:0,_ZNSt3__116allocator_traitsINS_9allocatorINS_4pairIiiEEEEE9__destroyIS3_EEvNS_17integral_constantIbLb1EEERS4_PT_
FNDA:0,_ZNSt3__116allocator_traitsINS_9allocatorIiEEE10__max_sizeENS_17integral_constantIbLb1EEERKS2_
FNDA:0,_ZNSt3__116allocator_traitsINS_9allocatorINS_4pairIiiEEEEE10__max_sizeENS_17integral_constantIbLb1EEERKS4_
FNDA:0,_ZNSt3__116allocator_traitsINS_9allocatorIiEEE39__select_on_container_copy_constructionENS_17integral_constantIbLb0EEERKS2_
FNDA:0,_ZNSt3__116allocator_traitsINS_9allocatorINS_4pairIiiEEEEE39__select_on_container_copy_constructionENS_17integral_constantIbLb0EEERKS4_
FNDA:32,_ZNSt3__19allocatorIcEC2Ev
FNDA:32,_ZNSt3__19allocatorIiEC2Ev
FNDA:32,_ZNSt3__19allocatorINS_4pairIiiEEEC2Ev
FNDA:0,_ZNSt3__19allocatorIiE8allocateEmPKv
FNDA:0,_ZNSt3__19allocatorINS_4pairIiiEEE8allocateEmPKv
FNDA:0,_ZNSt3__19allocatorIiE10deallocateEPim
FNDA:0,_ZNSt3__19allocatorINS_4pairIiiEEE10deallocateEPS2_m
FNDA:0,_ZNKSt3__19allocatorIiE8max_sizeEv
FNDA:0,_ZNKSt3__19allocatorINS_4pairIiiEEE8max_sizeEv
FNDA:0,_ZNSt3__19allocatorIiE7destroyEPi
FNDA:0,_ZNSt3__19allocatorINS_4pairIiiEEE7destroyEPS2_
FNDA:32,_ZNSt3__122__compressed_pair_elemINS_12basic_stringIcNS_11char_traitsIcEENS_9allocatorIcEEE5__repELi0ELb0EEC2Ev
FNDA:32,_ZNSt3__122__compressed_pair_elemIPiLi0ELb0EEC2IDnvEEOT_
FNDA:32,_ZNSt3__122__compressed_pair_elemIPNS_4pairIiiEELi0ELb0EEC2IDnvEEOT_
FNDA:0,_ZNSt3__122__compressed_pair_elemIPiLi0ELb0EE5__getEv
FNDA:0,_ZNSt3__122__compressed_pair_elemIPNS_4pairIiiEELi0ELb0EE5__getEv
FNDA:136,_ZNKSt3__122__compressed_pair_elemIPiLi0ELb0EE5__getEv
FNDA:200,_ZNKSt3__122__compressed_pair_elemIPNS_4pairIiiEELi0ELb0EE5__getEv
FNDA:32,_ZNSt3__122__compressed_pair_elemINS_9allocatorIcEELi1ELb1EEC2Ev
FNDA:32,_ZNSt3__122__compressed_pair_elemINS_9allocatorIiEELi1ELb1EEC2Ev
FNDA:32,_ZNSt3__122__compressed_pair_elemINS_9allocatorINS_4pairIiiEEEELi1ELb1EEC2Ev
FNDA:0,_ZNSt3__122__compressed_pair_elemINS_9allocatorIiEELi1ELb1EEC2IS2_vEEOT_
FNDA:0,_ZNSt3__122__compressed_pair_elemINS_9allocatorINS_4pairIiiEEEELi1ELb1EEC2IS4_vEEOT_
FNDA:0,_ZNSt3__122__compressed_pair_elemINS_9allocatorIiEELi1ELb1EE5__getEv
FNDA:32,_ZNSt3__122__compressed_pair_elemINS_9allocatorINS_4pairIiiEEEELi1ELb1EE5__getEv
FNDA:0,_ZNKSt3__122__compressed_pair_elemINS_9allocatorIiEELi1ELb1EE5__getEv
FNDA:0,_ZNKSt3__122__compressed_pair_elemINS_9allocatorINS_4pairIiiEEEELi1ELb1EE5__getEv
FNDA:32,_ZNSt3__117__compressed_pairINS_12basic_stringIcNS_11char_traitsIcEENS_9allocatorIcEEE5__repES5_EC1ILb1EvEEv
FNDA:32,_ZNSt3__117__compressed_pairINS_12basic_stringIcNS_11char_traitsIcEENS_9allocatorIcEEE5__repES5_EC2ILb1EvEEv
FNDA:32,_ZNSt3__117__compressed_pairIPiNS_9allocatorIiEEEC1IDnLb1EEEOT_
FNDA:32,_ZNSt3__117__compressed_pairIPiNS_9allocatorIiEEEC2IDnLb1EEEOT_
FNDA:32,_ZNSt3__117__compressed_pairIPNS_4pairIiiEENS_9allocatorIS2_EEEC1IDnLb1EEEOT_
FNDA:32,_ZNSt3__117__compressed_pairIPNS_4pairIiiEENS_9allocatorIS2_EEEC2IDnLb1EEEOT_
FNDA:0,_ZNSt3__117__compressed_pairIPiNS_9allocatorIiEEEC1IDnS3_EEOT_OT0_
FNDA:0,_ZNSt3__117__compressed_pairIPiNS_9allocatorIiEEEC2IDnS3_EEOT_OT0_
FNDA:0,_ZNSt3__117__compressed_pairIPNS_4pairIiiEENS_9allocatorIS2_EEEC1IDnS5_EEOT_OT0_
FNDA:0,_ZNSt3__117__compressed_pairIPNS_4pairIiiEENS_9allocatorIS2_EEEC2IDnS5_EEOT_OT0_
FNDA:0,_ZNSt3__117__compressed_pairIPiNS_9allocatorIiEEE5firstEv
FNDA:0,_ZNSt3__117__compressed_pairIPNS_4pairIiiEENS_9allocatorIS2_EEE5firstEv
FNDA:136,_ZNKSt3__117__compressed_pairIPiNS_9allocatorIiEEE5firstEv
FNDA:200,_ZNKSt3__117__compressed_pairIPNS_4pairIiiEENS_9allocatorIS2_EEE5firstEv
FNDA:0,_ZNSt3__117__compressed_pairIPiNS_9allocatorIiEEE6secondEv
FNDA:32,_ZNSt3__117__compressed_pairIPNS_4pairIiiEENS_9allocatorIS2_EEE6secondEv
FNDA:0,_ZNKSt3__117__compressed_pairIPiNS_9allocatorIiEEE6secondEv
FNDA:0,_ZNKSt3__117__compressed_pairIPNS_4pairIiiEENS_9allocatorIS2_EEE6secondEv
FNF:67
FNH:24
DA:1106,672
DA:1108,672
DA:1546,0
DA:1547,0
DA:1554,0
DA:1555,0
DA:1595,0
DA:1596,0
DA:1599,0
DA:1600,0
DA:1604,0
DA:1605,0
DA:1606,0
DA:1607,0
DA:1662,32
DA:1664,32
DA:1665,32
DA:1667,32
DA:1668,32
DA:1669,32
DA:1670,32
DA:1742,0
DA:1743,0
DA:1752,0
DA:1753,0
DA:1764,0
DA:1765,0
DA:1798,96
DA:1809,0
DA:1811,0
DA:1812,0
DA:1814,0
DA:1816,0
DA:1817,0
DA:1818,0
DA:1819,0
DA:1881,0
DA:2140,32
DA:2147,64
DA:2148,64
DA:2150,64
DA:2163,0
DA:2165,336
DA:2179,96
DA:2186,0
DA:2187,0
DA:2188,0
DA:2202,32
DA:2204,0
DA:2234,64
DA:2240,128
DA:2241,128
DA:2250,0
DA:2251,0
DA:2279,0
DA:2280,0
DA:2284,336
DA:2285,336
DA:2289,32
DA:2290,32
DA:2294,0
DA:2295,0
LF:62
LH:24
end_of_record
SF:/Library/Developer/CommandLineTools/usr/include/c++/v1/new
FN:223,_ZNSt3__1L17__libcpp_allocateEmm
FN:245,_ZNSt3__117_DeallocateCaller33__do_deallocate_handle_size_alignEPvmm
FN:275,_ZNSt3__117_DeallocateCaller27__do_deallocate_handle_sizeEPvm
FN:316,_ZNSt3__117_DeallocateCaller9__do_callEPv
FN:325,_ZNSt3__1L19__libcpp_deallocateEPvmm
FNDA:0,_ZNSt3__1L17__libcpp_allocateEmm
FNDA:0,_ZNSt3__117_DeallocateCaller33__do_deallocate_handle_size_alignEPvmm
FNDA:0,_ZNSt3__117_DeallocateCaller27__do_deallocate_handle_sizeEPvm
FNDA:0,_ZNSt3__117_DeallocateCaller9__do_callEPv
FNDA:0,_ZNSt3__1L19__libcpp_deallocateEPvmm
FNF:5
FNH:0
DA:223,0
DA:239,0
DA:245,0
DA:248,0
DA:275,0
DA:278,0
DA:316,0
DA:320,0
DA:325,0
DA:326,0
DA:327,0
LF:11
LH:0
end_of_record
SF:/Library/Developer/CommandLineTools/usr/include/c++/v1/stdexcept
FN:136,_ZNSt12length_errorC2EPKc
FN:136,_ZNSt12length_errorC1EPKc
FN:222,_ZNSt3__1L20__throw_length_errorEPKc
FNDA:0,_ZNSt12length_errorC1EPKc
FNDA:0,_ZNSt12length_errorC2EPKc
FNDA:0,_ZNSt3__1L20__throw_length_errorEPKc
FNF:3
FNH:0
DA:136,0
DA:222,0
DA:225,0
DA:230,0
LF:4
LH:0
end_of_record
SF:/Library/Developer/CommandLineTools/usr/include/c++/v1/string
FN:818,_ZNSt3__112basic_stringIcNS_11char_traitsIcEENS_9allocatorIcEEEC2IDnEEPKc
FN:818,_ZNSt3__112basic_stringIcNS_11char_traitsIcEENS_9allocatorIcEEEC1IDnEEPKc
FNDA:32,_ZNSt3__112basic_stringIcNS_11char_traitsIcEENS_9allocatorIcEEEC1IDnEEPKc
FNDA:32,_ZNSt3__112basic_stringIcNS_11char_traitsIcEENS_9allocatorIcEEEC2IDnEEPKc
FNF:2
FNH:2
DA:818,64
DA:820,32
DA:824,64
LF:3
LH:3
end_of_record
SF:/Library/Developer/CommandLineTools/usr/include/c++/v1/type_traits
FN:2310,_ZNSt3__1L4moveIRNS_9allocatorINS_4pairIiiEEEEEEONS_16remove_referenceIT_E4typeEOS7_
FN:2310,_ZNSt3__1L4moveIRNS_9allocatorIiEEEEONS_16remove_referenceIT_E4typeEOS5_
FN:2319,_ZNSt3__1L7forwardINS_9allocatorINS_4pairIiiEEEEEEOT_RNS_16remove_referenceIS5_E4typeE
FN:2319,_ZNSt3__1L7forwardINS_9allocatorIiEEEEOT_RNS_16remove_referenceIS3_E4typeE
FN:2319,_ZNSt3__1L7forwardIDnEEOT_RNS_16remove_referenceIS1_E4typeE
FN:2319,_ZNSt3__1L7forwardIiEEOT_RNS_16remove_referenceIS1_E4typeE
FNDA:0,_ZNSt3__1L4moveIRNS_9allocatorIiEEEEONS_16remove_referenceIT_E4typeEOS5_
FNDA:0,_ZNSt3__1L4moveIRNS_9allocatorINS_4pairIiiEEEEEEONS_16remove_referenceIT_E4typeEOS7_
FNDA:128,_ZNSt3__1L7forwardIDnEEOT_RNS_16remove_referenceIS1_E4typeE
FNDA:272,_ZNSt3__1L7forwardIiEEOT_RNS_16remove_referenceIS1_E4typeE
FNDA:0,_ZNSt3__1L7forwardINS_9allocatorIiEEEEOT_RNS_16remove_referenceIS3_E4typeE
FNDA:0,_ZNSt3__1L7forwardINS_9allocatorINS_4pairIiiEEEEEEOT_RNS_16remove_referenceIS5_E4typeE
FNF:6
FNH:2
DA:2310,0
DA:2313,0
DA:2319,400
DA:2321,400
LF:4
LH:2
end_of_record
SF:/Library/Developer/CommandLineTools/usr/include/c++/v1/utility
FN:448,_ZNSt3__14pairIiiEC1IiiLb0EEEOT_OT0_
FN:448,_ZNSt3__14pairIiiEC2IiiLb0EEEOT_OT0_
FN:668,_ZNSt3__1L9make_pairIiiEENS_4pairINS_18__unwrap_ref_decayIT_E4typeENS2_IT0_E4typeEEEOS3_OS6_
FNDA:68,_ZNSt3__14pairIiiEC1IiiLb0EEEOT_OT0_
FNDA:68,_ZNSt3__14pairIiiEC2IiiLb0EEEOT_OT0_
FNDA:68,_ZNSt3__1L9make_pairIiiEENS_4pairINS_18__unwrap_ref_decayIT_E4typeENS2_IT0_E4typeEEEOS3_OS6_
FNF:3
FNH:3
DA:448,136
DA:451,136
DA:668,68
DA:670,68
DA:671,68
LF:5
LH:5
end_of_record
SF:/Library/Developer/CommandLineTools/usr/include/c++/v1/vector
FN:304,_ZNSt3__120__vector_base_commonILb1EEC2Ev
FN:348,_ZNSt3__113__vector_baseINS_4pairIiiEENS_9allocatorIS2_EEE7__allocEv
FN:348,_ZNSt3__113__vector_baseIiNS_9allocatorIiEEE7__allocEv
FN:351,_ZNKSt3__113__vector_baseIiNS_9allocatorIiEEE7__allocEv
FN:351,_ZNKSt3__113__vector_baseINS_4pairIiiEENS_9allocatorIS2_EEE7__allocEv
FN:354,_ZNSt3__113__vector_baseIiNS_9allocatorIiEEE9__end_capEv
FN:354,_ZNSt3__113__vector_baseINS_4pairIiiEENS_9allocatorIS2_EEE9__end_capEv
FN:357,_ZNKSt3__113__vector_baseIiNS_9allocatorIiEEE9__end_capEv
FN:357,_ZNKSt3__113__vector_baseINS_4pairIiiEENS_9allocatorIS2_EEE9__end_capEv
FN:370,_ZNSt3__113__vector_baseIiNS_9allocatorIiEEE5clearEv
FN:370,_ZNSt3__113__vector_baseINS_4pairIiiEENS_9allocatorIS2_EEE5clearEv
FN:372,_ZNKSt3__113__vector_baseINS_4pairIiiEENS_9allocatorIS2_EEE8capacityEv
FN:372,_ZNKSt3__113__vector_baseIiNS_9allocatorIiEEE8capacityEv
FN:423,_ZNSt3__113__vector_baseINS_4pairIiiEENS_9allocatorIS2_EEE17__destruct_at_endEPS2_
FN:423,_ZNSt3__113__vector_baseIiNS_9allocatorIiEEE17__destruct_at_endEPi
FN:433,_ZNSt3__113__vector_baseINS_4pairIiiEENS_9allocatorIS2_EEEC2Ev
FN:433,_ZNSt3__113__vector_baseIiNS_9allocatorIiEEEC2Ev
FN:453,_ZNSt3__113__vector_baseINS_4pairIiiEENS_9allocatorIS2_EEEC2EOS4_
FN:453,_ZNSt3__113__vector_baseIiNS_9allocatorIiEEEC2EOS2_
FN:460,_ZNSt3__113__vector_baseIiNS_9allocatorIiEEED2Ev
FN:460,_ZNSt3__113__vector_baseINS_4pairIiiEENS_9allocatorIS2_EEED2Ev
FN:550,_ZNSt3__16vectorINS_4pairIiiEENS_9allocatorIS2_EEED2Ev
FN:550,_ZNSt3__16vectorIiNS_9allocatorIiEEED2Ev
FN:550,_ZNSt3__16vectorINS_4pairIiiEENS_9allocatorIS2_EEED1Ev
FN:550,_ZNSt3__16vectorIiNS_9allocatorIiEEED1Ev
FN:656,_ZNKSt3__16vectorINS_4pairIiiEENS_9allocatorIS2_EEE4sizeEv
FN:656,_ZNKSt3__16vectorIiNS_9allocatorIiEEE4sizeEv
FN:659,_ZNKSt3__16vectorINS_4pairIiiEENS_9allocatorIS2_EEE8capacityEv
FN:659,_ZNKSt3__16vectorIiNS_9allocatorIiEEE8capacityEv
FN:698,_ZNKSt3__16vectorIiNS_9allocatorIiEEE4dataEv
FN:698,_ZNKSt3__16vectorINS_4pairIiiEENS_9allocatorIS2_EEE4dataEv
FN:862,_ZNKSt3__16vectorINS_4pairIiiEENS_9allocatorIS2_EEE31__annotate_contiguous_containerEPKvS7_S7_S7_
FN:862,_ZNKSt3__16vectorIiNS_9allocatorIiEEE31__annotate_contiguous_containerEPKvS5_S5_S5_
FN:866,_ZNKSt3__16vectorINS_4pairIiiEENS_9allocatorIS2_EEE14__annotate_newEm
FN:866,_ZNKSt3__16vectorIiNS_9allocatorIiEEE14__annotate_newEm
FN:872,_ZNKSt3__16vectorINS_4pairIiiEENS_9allocatorIS2_EEE17__annotate_deleteEv
FN:872,_ZNKSt3__16vectorIiNS_9allocatorIiEEE17__annotate_deleteEv
FN:910,_ZNSt3__16vectorINS_4pairIiiEENS_9allocatorIS2_EEE24__RAII_IncreaseAnnotatorC1ERKS5_m
FN:910,_ZNSt3__16vectorIiNS_9allocatorIiEEE24__RAII_IncreaseAnnotatorC1ERKS3_m
FN:910,_ZNSt3__16vectorINS_4pairIiiEENS_9allocatorIS2_EEE24__RAII_IncreaseAnnotatorC2ERKS5_m
FN:910,_ZNSt3__16vectorIiNS_9allocatorIiEEE24__RAII_IncreaseAnnotatorC2ERKS3_m
FN:911,_ZNSt3__16vectorIiNS_9allocatorIiEEE24__RAII_IncreaseAnnotator6__doneEv
FN:911,_ZNSt3__16vectorINS_4pairIiiEENS_9allocatorIS2_EEE24__RAII_IncreaseAnnotator6__doneEv
FN:973,_ZNSt3__16vectorINS_4pairIiiEENS_9allocatorIS2_EEE11__vallocateEm
FN:973,_ZNSt3__16vectorIiNS_9allocatorIiEEE11__vallocateEm
FN:996,_ZNKSt3__16vectorIiNS_9allocatorIiEEE8max_sizeEv
FN:996,_ZNKSt3__16vectorINS_4pairIiiEENS_9allocatorIS2_EEE8max_sizeEv
FN:1066,_ZNSt3__16vectorINS_4pairIiiEENS_9allocatorIS2_EEE18__construct_at_endIPS2_EENS_9enable_ifIXsr21__is_forward_iteratorIT_EE5valueEvE4typeES9_S9_m
FN:1066,_ZNSt3__16vectorINS_4pairIiiEENS_9allocatorIS2_EEE18__construct_at_endIPKS2_EENS_9enable_ifIXsr21__is_forward_iteratorIT_EE5valueEvE4typeESA_SA_m
FN:1066,_ZNSt3__16vectorIiNS_9allocatorIiEEE18__construct_at_endIPiEENS_9enable_ifIXsr21__is_forward_iteratorIT_EE5valueEvE4typeES7_S7_m
FN:1066,_ZNSt3__16vectorIiNS_9allocatorIiEEE18__construct_at_endIPKiEENS_9enable_ifIXsr21__is_forward_iteratorIT_EE5valueEvE4typeES8_S8_m
FN:1243,_ZNSt3__16vectorIiNS_9allocatorIiEEEC1ERKS3_
FN:1243,_ZNSt3__16vectorINS_4pairIiiEENS_9allocatorIS2_EEEC1ERKS5_
FN:1243,_ZNSt3__16vectorIiNS_9allocatorIiEEEC2ERKS3_
FN:1243,_ZNSt3__16vectorINS_4pairIiiEENS_9allocatorIS2_EEEC2ERKS5_
FN:1321,_ZNSt3__16vectorINS_4pairIiiEENS_9allocatorIS2_EEEC1ESt16initializer_listIS2_E
FN:1321,_ZNSt3__16vectorINS_4pairIiiEENS_9allocatorIS2_EEEC2ESt16initializer_listIS2_E
FN:1321,_ZNSt3__16vectorIiNS_9allocatorIiEEEC1ESt16initializer_listIiE
FN:1321,_ZNSt3__16vectorIiNS_9allocatorIiEEEC2ESt16initializer_listIiE
FNDA:64,_ZNSt3__120__vector_base_commonILb1EEC2Ev
FNDA:0,_ZNSt3__113__vector_baseIiNS_9allocatorIiEEE7__allocEv
FNDA:32,_ZNSt3__113__vector_baseINS_4pairIiiEENS_9allocatorIS2_EEE7__allocEv
FNDA:0,_ZNKSt3__113__vector_baseIiNS_9allocatorIiEEE7__allocEv
FNDA:0,_ZNKSt3__113__vector_baseINS_4pairIiiEENS_9allocatorIS2_EEE7__allocEv
FNDA:0,_ZNSt3__113__vector_baseIiNS_9allocatorIiEEE9__end_capEv
FNDA:0,_ZNSt3__113__vector_baseINS_4pairIiiEENS_9allocatorIS2_EEE9__end_capEv
FNDA:136,_ZNKSt3__113__vector_baseIiNS_9allocatorIiEEE9__end_capEv
FNDA:200,_ZNKSt3__113__vector_baseINS_4pairIiiEENS_9allocatorIS2_EEE9__end_capEv
FNDA:0,_ZNSt3__113__vector_baseIiNS_9allocatorIiEEE5clearEv
FNDA:0,_ZNSt3__113__vector_baseINS_4pairIiiEENS_9allocatorIS2_EEE5clearEv
FNDA:136,_ZNKSt3__113__vector_baseIiNS_9allocatorIiEEE8capacityEv
FNDA:200,_ZNKSt3__113__vector_baseINS_4pairIiiEENS_9allocatorIS2_EEE8capacityEv
FNDA:0,_ZNSt3__113__vector_baseIiNS_9allocatorIiEEE17__destruct_at_endEPi
FNDA:0,_ZNSt3__113__vector_baseINS_4pairIiiEENS_9allocatorIS2_EEE17__destruct_at_endEPS2_
FNDA:32,_ZNSt3__113__vector_baseIiNS_9allocatorIiEEEC2Ev
FNDA:32,_ZNSt3__113__vector_baseINS_4pairIiiEENS_9allocatorIS2_EEEC2Ev
FNDA:0,_ZNSt3__113__vector_baseIiNS_9allocatorIiEEEC2EOS2_
FNDA:0,_ZNSt3__113__vector_baseINS_4pairIiiEENS_9allocatorIS2_EEEC2EOS4_
FNDA:0,_ZNSt3__113__vector_baseIiNS_9allocatorIiEEED2Ev
FNDA:0,_ZNSt3__113__vector_baseINS_4pairIiiEENS_9allocatorIS2_EEED2Ev
FNDA:68,_ZNSt3__16vectorIiNS_9allocatorIiEEED1Ev
FNDA:100,_ZNSt3__16vectorINS_4pairIiiEENS_9allocatorIS2_EEED1Ev
FNDA:68,_ZNSt3__16vectorIiNS_9allocatorIiEEED2Ev
FNDA:100,_ZNSt3__16vectorINS_4pairIiiEENS_9allocatorIS2_EEED2Ev
FNDA:68,_ZNKSt3__16vectorIiNS_9allocatorIiEEE4sizeEv
FNDA:100,_ZNKSt3__16vectorINS_4pairIiiEENS_9allocatorIS2_EEE4sizeEv
FNDA:136,_ZNKSt3__16vectorIiNS_9allocatorIiEEE8capacityEv
FNDA:200,_ZNKSt3__16vectorINS_4pairIiiEENS_9allocatorIS2_EEE8capacityEv
FNDA:272,_ZNKSt3__16vectorIiNS_9allocatorIiEEE4dataEv
FNDA:400,_ZNKSt3__16vectorINS_4pairIiiEENS_9allocatorIS2_EEE4dataEv
FNDA:68,_ZNKSt3__16vectorIiNS_9allocatorIiEEE31__annotate_contiguous_containerEPKvS5_S5_S5_
FNDA:100,_ZNKSt3__16vectorINS_4pairIiiEENS_9allocatorIS2_EEE31__annotate_contiguous_containerEPKvS7_S7_S7_
FNDA:0,_ZNKSt3__16vectorIiNS_9allocatorIiEEE14__annotate_newEm
FNDA:0,_ZNKSt3__16vectorINS_4pairIiiEENS_9allocatorIS2_EEE14__annotate_newEm
FNDA:68,_ZNKSt3__16vectorIiNS_9allocatorIiEEE17__annotate_deleteEv
FNDA:100,_ZNKSt3__16vectorINS_4pairIiiEENS_9allocatorIS2_EEE17__annotate_deleteEv
FNDA:0,_ZNSt3__16vectorIiNS_9allocatorIiEEE24__RAII_IncreaseAnnotatorC1ERKS3_m
FNDA:0,_ZNSt3__16vectorIiNS_9allocatorIiEEE24__RAII_IncreaseAnnotatorC2ERKS3_m
FNDA:32,_ZNSt3__16vectorINS_4pairIiiEENS_9allocatorIS2_EEE24__RAII_IncreaseAnnotatorC1ERKS5_m
FNDA:32,_ZNSt3__16vectorINS_4pairIiiEENS_9allocatorIS2_EEE24__RAII_IncreaseAnnotatorC2ERKS5_m
FNDA:0,_ZNSt3__16vectorIiNS_9allocatorIiEEE24__RAII_IncreaseAnnotator6__doneEv
FNDA:32,_ZNSt3__16vectorINS_4pairIiiEENS_9allocatorIS2_EEE24__RAII_IncreaseAnnotator6__doneEv
FNDA:0,_ZNSt3__16vectorIiNS_9allocatorIiEEE11__vallocateEm
FNDA:0,_ZNSt3__16vectorINS_4pairIiiEENS_9allocatorIS2_EEE11__vallocateEm
FNDA:0,_ZNKSt3__16vectorIiNS_9allocatorIiEEE8max_sizeEv
FNDA:0,_ZNKSt3__16vectorINS_4pairIiiEENS_9allocatorIS2_EEE8max_sizeEv
FNDA:0,_ZNSt3__16vectorIiNS_9allocatorIiEEE18__construct_at_endIPKiEENS_9enable_ifIXsr21__is_forward_iteratorIT_EE5valueEvE4typeES8_S8_m
FNDA:32,_ZNSt3__16vectorINS_4pairIiiEENS_9allocatorIS2_EEE18__construct_at_endIPKS2_EENS_9enable_ifIXsr21__is_forward_iteratorIT_EE5valueEvE4typeESA_SA_m
FNDA:0,_ZNSt3__16vectorIiNS_9allocatorIiEEE18__construct_at_endIPiEENS_9enable_ifIXsr21__is_forward_iteratorIT_EE5valueEvE4typeES7_S7_m
FNDA:0,_ZNSt3__16vectorINS_4pairIiiEENS_9allocatorIS2_EEE18__construct_at_endIPS2_EENS_9enable_ifIXsr21__is_forward_iteratorIT_EE5valueEvE4typeES9_S9_m
FNDA:0,_ZNSt3__16vectorIiNS_9allocatorIiEEEC1ERKS3_
FNDA:0,_ZNSt3__16vectorINS_4pairIiiEENS_9allocatorIS2_EEEC1ERKS5_
FNDA:0,_ZNSt3__16vectorIiNS_9allocatorIiEEEC2ERKS3_
FNDA:0,_ZNSt3__16vectorINS_4pairIiiEENS_9allocatorIS2_EEEC2ERKS5_
FNDA:32,_ZNSt3__16vectorIiNS_9allocatorIiEEEC1ESt16initializer_listIiE
FNDA:32,_ZNSt3__16vectorINS_4pairIiiEENS_9allocatorIS2_EEEC1ESt16initializer_listIS2_E
FNDA:32,_ZNSt3__16vectorIiNS_9allocatorIiEEEC2ESt16initializer_listIiE
FNDA:32,_ZNSt3__16vectorINS_4pairIiiEENS_9allocatorIS2_EEEC2ESt16initializer_listIS2_E
FNF:59
FNH:30
DA:304,64
DA:348,32
DA:349,32
DA:351,0
DA:352,0
DA:354,0
DA:355,0
DA:357,336
DA:358,336
DA:361,64
DA:365,0
DA:370,0
DA:372,336
DA:373,336
DA:423,0
DA:425,0
DA:426,0
DA:427,0
DA:428,0
DA:429,0
DA:433,64
DA:435,64
DA:436,64
DA:437,64
DA:438,64
DA:439,64
DA:453,0
DA:454,0
DA:455,0
DA:456,0
DA:460,0
DA:462,0
DA:464,0
DA:465,0
DA:466,0
DA:467,0
DA:550,336
DA:551,168
DA:552,168
DA:556,336
DA:565,64
DA:656,168
DA:657,168
DA:659,336
DA:660,336
DA:698,672
DA:699,672
DA:862,168
DA:863,168
DA:866,0
DA:867,0
DA:868,0
DA:869,0
DA:872,168
DA:873,336
DA:874,168
DA:875,168
DA:910,64
DA:911,32
DA:973,0
DA:975,0
DA:976,0
DA:977,0
DA:978,0
DA:979,0
DA:980,0
DA:996,0
DA:998,0
DA:999,0
DA:1066,32
DA:1068,32
DA:1069,32
DA:1070,32
DA:1071,32
DA:1072,32
DA:1243,0
DA:1244,0
DA:1245,0
DA:1249,0
DA:1250,0
DA:1252,0
DA:1253,0
DA:1254,0
DA:1255,0
DA:1321,128
DA:1322,128
DA:1326,64
DA:1328,64
DA:1329,64
DA:1330,64
DA:1331,128
LF:91
LH:46
end_of_record
SF:/Users/usuario/Desktop/LabAlgo1/tp2/reunionesRemotas/lib/gtest.h
FN:8201,_ZN7testing8internal15TestFactoryBaseD2Ev
FN:8201,_ZN7testing8internal15TestFactoryBaseD0Ev
FN:8201,_ZN7testing8internal15TestFactoryBaseD1Ev
FN:8208,_ZN7testing8internal15TestFactoryBaseC2Ev
FN:8217,_ZN7testing8internal15TestFactoryImplI36silenciosTEST_silenciosValidos2_TestEC2Ev
FN:8217,_ZN7testing8internal15TestFactoryImplI36silenciosTEST_silenciosValidos5_TestEC1Ev
FN:8217,_ZN7testing8internal15TestFactoryImplI36silenciosTEST_silenciosValidos7_TestED2Ev
FN:8217,_ZN7testing8internal15TestFactoryImplI36silenciosTEST_silenciosValidos7_TestED1Ev
FN:8217,_ZN7testing8internal15TestFactoryImplI36silenciosTEST_silenciosValidos4_TestED0Ev
FN:8217,_ZN7testing8internal15TestFactoryImplI35silenciosTEST_silenciosValidos_TestED1Ev
FN:8217,_ZN7testing8internal15TestFactoryImplI36silenciosTEST_silenciosValidos7_TestEC1Ev
FN:8217,_ZN7testing8internal15TestFactoryImplI36silenciosTEST_silenciosValidos2_TestED2Ev
FN:8217,_ZN7testing8internal15TestFactoryImplI36silenciosTEST_silenciosValidos4_TestED1Ev
FN:8217,_ZN7testing8internal15TestFactoryImplI35silenciosTEST_silenciosValidos_TestEC2Ev
FN:8217,_ZN7testing8internal15TestFactoryImplI35silenciosTEST_silenciosValidos_TestED0Ev
FN:8217,_ZN7testing8internal15TestFactoryImplI36silenciosTEST_silenciosValidos6_TestEC1Ev
FN:8217,_ZN7testing8internal15TestFactoryImplI36silenciosTEST_silenciosValidos3_TestEC2Ev
FN:8217,_ZN7testing8internal15TestFactoryImplI36silenciosTEST_silenciosValidos5_TestED2Ev
FN:8217,_ZN7testing8internal15TestFactoryImplI36silenciosTEST_silenciosValidos6_TestED1Ev
FN:8217,_ZN7testing8internal15TestFactoryImplI36silenciosTEST_silenciosValidos4_TestEC2Ev
FN:8217,_ZN7testing8internal15TestFactoryImplI36silenciosTEST_silenciosValidos6_TestEC2Ev
FN:8217,_ZN7testing8internal15TestFactoryImplI36silenciosTEST_silenciosValidos8_TestEC1Ev
FN:8217,_ZN7testing8internal15TestFactoryImplI36silenciosTEST_silenciosValidos8_TestEC2Ev
FN:8217,_ZN7testing8internal15TestFactoryImplI36silenciosTEST_silenciosValidos2_TestED0Ev
FN:8217,_ZN7testing8internal15TestFactoryImplI36silenciosTEST_silenciosValidos2_TestED1Ev
FN:8217,_ZN7testing8internal15TestFactoryImplI36silenciosTEST_silenciosValidos3_TestED2Ev
FN:8217,_ZN7testing8internal15TestFactoryImplI36silenciosTEST_silenciosValidos4_TestEC1Ev
FN:8217,_ZN7testing8internal15TestFactoryImplI36silenciosTEST_silenciosValidos8_TestED2Ev
FN:8217,_ZN7testing8internal15TestFactoryImplI36silenciosTEST_silenciosValidos5_TestEC2Ev
FN:8217,_ZN7testing8internal15TestFactoryImplI36silenciosTEST_silenciosValidos3_TestED0Ev
FN:8217,_ZN7testing8internal15TestFactoryImplI36silenciosTEST_silenciosValidos2_TestEC1Ev
FN:8217,_ZN7testing8internal15TestFactoryImplI36silenciosTEST_silenciosValidos5_TestED1Ev
FN:8217,_ZN7testing8internal15TestFactoryImplI36silenciosTEST_silenciosValidos6_TestED2Ev
FN:8217,_ZN7testing8internal15TestFactoryImplI36silenciosTEST_silenciosValidos7_TestEC2Ev
FN:8217,_ZN7testing8internal15TestFactoryImplI36silenciosTEST_silenciosValidos5_TestED0Ev
FN:8217,_ZN7testing8internal15TestFactoryImplI36silenciosTEST_silenciosValidos3_TestEC1Ev
FN:8217,_ZN7testing8internal15TestFactoryImplI36silenciosTEST_silenciosValidos7_TestED0Ev
FN:8217,_ZN7testing8internal15TestFactoryImplI35silenciosTEST_silenciosValidos_TestEC1Ev
FN:8217,_ZN7testing8internal15TestFactoryImplI35silenciosTEST_silenciosValidos_TestED2Ev
FN:8217,_ZN7testing8internal15TestFactoryImplI36silenciosTEST_silenciosValidos3_TestED1Ev
FN:8217,_ZN7testing8internal15TestFactoryImplI36silenciosTEST_silenciosValidos8_TestED1Ev
FN:8217,_ZN7testing8internal15TestFactoryImplI36silenciosTEST_silenciosValidos8_TestED0Ev
FN:8217,_ZN7testing8internal15TestFactoryImplI36silenciosTEST_silenciosValidos4_TestED2Ev
FN:8217,_ZN7testing8internal15TestFactoryImplI36silenciosTEST_silenciosValidos6_TestED0Ev
FN:8219,_ZN7testing8internal15TestFactoryImplI36silenciosTEST_silenciosValidos6_TestE10CreateTestEv
FN:8219,_ZN7testing8internal15TestFactoryImplI36silenciosTEST_silenciosValidos2_TestE10CreateTestEv
FN:8219,_ZN7testing8internal15TestFactoryImplI35silenciosTEST_silenciosValidos_TestE10CreateTestEv
FN:8219,_ZN7testing8internal15TestFactoryImplI36silenciosTEST_silenciosValidos3_TestE10CreateTestEv
FN:8219,_ZN7testing8internal15TestFactoryImplI36silenciosTEST_silenciosValidos8_TestE10CreateTestEv
FN:8219,_ZN7testing8internal15TestFactoryImplI36silenciosTEST_silenciosValidos5_TestE10CreateTestEv
FN:8219,_ZN7testing8internal15TestFactoryImplI36silenciosTEST_silenciosValidos4_TestE10CreateTestEv
FN:8219,_ZN7testing8internal15TestFactoryImplI36silenciosTEST_silenciosValidos7_TestE10CreateTestEv
FN:8239,_ZN7testing8internal12CodeLocationD2Ev
FN:8239,_ZN7testing8internal12CodeLocationD1Ev
FN:8240,_ZN7testing8internal12CodeLocationC1ERKNSt3__112basic_stringIcNS2_11char_traitsIcEENS2_9allocatorIcEEEEi
FN:8240,_ZN7testing8internal12CodeLocationC2ERKNSt3__112basic_stringIcNS2_11char_traitsIcEENS2_9allocatorIcEEEEi
FN:18988,_ZN7testing4Test13SetUpTestCaseEv
FN:18996,_ZN7testing4Test16TearDownTestCaseEv
FN:19073,_ZN7testing4Test5SetupEv
FNDA:0,_ZN7testing8internal15TestFactoryBaseD1Ev
FNDA:0,_ZN7testing8internal15TestFactoryBaseD0Ev
FNDA:0,_ZN7testing8internal15TestFactoryBaseD2Ev
FNDA:0,_ZN7testing8internal15TestFactoryBaseC2Ev
FNDA:4,_ZN7testing8internal15TestFactoryImplI35silenciosTEST_silenciosValidos_TestEC1Ev
FNDA:4,_ZN7testing8internal15TestFactoryImplI36silenciosTEST_silenciosValidos2_TestEC1Ev
FNDA:4,_ZN7testing8internal15TestFactoryImplI36silenciosTEST_silenciosValidos3_TestEC1Ev
FNDA:4,_ZN7testing8internal15TestFactoryImplI36silenciosTEST_silenciosValidos4_TestEC1Ev
FNDA:4,_ZN7testing8internal15TestFactoryImplI36silenciosTEST_silenciosValidos5_TestEC1Ev
FNDA:4,_ZN7testing8internal15TestFactoryImplI36silenciosTEST_silenciosValidos6_TestEC1Ev
FNDA:4,_ZN7testing8internal15TestFactoryImplI36silenciosTEST_silenciosValidos7_TestEC1Ev
FNDA:4,_ZN7testing8internal15TestFactoryImplI36silenciosTEST_silenciosValidos8_TestEC1Ev
FNDA:4,_ZN7testing8internal15TestFactoryImplI35silenciosTEST_silenciosValidos_TestEC2Ev
FNDA:4,_ZN7testing8internal15TestFactoryImplI35silenciosTEST_silenciosValidos_TestED1Ev
FNDA:4,_ZN7testing8internal15TestFactoryImplI35silenciosTEST_silenciosValidos_TestED0Ev
FNDA:4,_ZN7testing8internal15TestFactoryImplI35silenciosTEST_silenciosValidos_TestED2Ev
FNDA:4,_ZN7testing8internal15TestFactoryImplI36silenciosTEST_silenciosValidos2_TestEC2Ev
FNDA:4,_ZN7testing8internal15TestFactoryImplI36silenciosTEST_silenciosValidos2_TestED1Ev
FNDA:4,_ZN7testing8internal15TestFactoryImplI36silenciosTEST_silenciosValidos2_TestED0Ev
FNDA:4,_ZN7testing8internal15TestFactoryImplI36silenciosTEST_silenciosValidos2_TestED2Ev
FNDA:4,_ZN7testing8internal15TestFactoryImplI36silenciosTEST_silenciosValidos3_TestEC2Ev
FNDA:4,_ZN7testing8internal15TestFactoryImplI36silenciosTEST_silenciosValidos3_TestED1Ev
FNDA:4,_ZN7testing8internal15TestFactoryImplI36silenciosTEST_silenciosValidos3_TestED0Ev
FNDA:4,_ZN7testing8internal15TestFactoryImplI36silenciosTEST_silenciosValidos3_TestED2Ev
FNDA:4,_ZN7testing8internal15TestFactoryImplI36silenciosTEST_silenciosValidos4_TestEC2Ev
FNDA:4,_ZN7testing8internal15TestFactoryImplI36silenciosTEST_silenciosValidos4_TestED1Ev
FNDA:4,_ZN7testing8internal15TestFactoryImplI36silenciosTEST_silenciosValidos4_TestED0Ev
FNDA:4,_ZN7testing8internal15TestFactoryImplI36silenciosTEST_silenciosValidos4_TestED2Ev
FNDA:4,_ZN7testing8internal15TestFactoryImplI36silenciosTEST_silenciosValidos5_TestEC2Ev
FNDA:4,_ZN7testing8internal15TestFactoryImplI36silenciosTEST_silenciosValidos5_TestED1Ev
FNDA:4,_ZN7testing8internal15TestFactoryImplI36silenciosTEST_silenciosValidos5_TestED0Ev
FNDA:4,_ZN7testing8internal15TestFactoryImplI36silenciosTEST_silenciosValidos5_TestED2Ev
FNDA:4,_ZN7testing8internal15TestFactoryImplI36silenciosTEST_silenciosValidos6_TestEC2Ev
FNDA:4,_ZN7testing8internal15TestFactoryImplI36silenciosTEST_silenciosValidos6_TestED1Ev
FNDA:4,_ZN7testing8internal15TestFactoryImplI36silenciosTEST_silenciosValidos6_TestED0Ev
FNDA:4,_ZN7testing8internal15TestFactoryImplI36silenciosTEST_silenciosValidos6_TestED2Ev
FNDA:4,_ZN7testing8internal15TestFactoryImplI36silenciosTEST_silenciosValidos7_TestEC2Ev
FNDA:4,_ZN7testing8internal15TestFactoryImplI36silenciosTEST_silenciosValidos7_TestED1Ev
FNDA:4,_ZN7testing8internal15TestFactoryImplI36silenciosTEST_silenciosValidos7_TestED0Ev
FNDA:4,_ZN7testing8internal15TestFactoryImplI36silenciosTEST_silenciosValidos7_TestED2Ev
FNDA:4,_ZN7testing8internal15TestFactoryImplI36silenciosTEST_silenciosValidos8_TestEC2Ev
FNDA:4,_ZN7testing8internal15TestFactoryImplI36silenciosTEST_silenciosValidos8_TestED1Ev
FNDA:4,_ZN7testing8internal15TestFactoryImplI36silenciosTEST_silenciosValidos8_TestED0Ev
FNDA:4,_ZN7testing8internal15TestFactoryImplI36silenciosTEST_silenciosValidos8_TestED2Ev
FNDA:4,_ZN7testing8internal15TestFactoryImplI35silenciosTEST_silenciosValidos_TestE10CreateTestEv
FNDA:4,_ZN7testing8internal15TestFactoryImplI36silenciosTEST_silenciosValidos2_TestE10CreateTestEv
FNDA:4,_ZN7testing8internal15TestFactoryImplI36silenciosTEST_silenciosValidos3_TestE10CreateTestEv
FNDA:4,_ZN7testing8internal15TestFactoryImplI36silenciosTEST_silenciosValidos4_TestE10CreateTestEv
FNDA:4,_ZN7testing8internal15TestFactoryImplI36silenciosTEST_silenciosValidos5_TestE10CreateTestEv
FNDA:4,_ZN7testing8internal15TestFactoryImplI36silenciosTEST_silenciosValidos6_TestE10CreateTestEv
FNDA:4,_ZN7testing8internal15TestFactoryImplI36silenciosTEST_silenciosValidos7_TestE10CreateTestEv
FNDA:4,_ZN7testing8internal15TestFactoryImplI36silenciosTEST_silenciosValidos8_TestE10CreateTestEv
FNDA:0,_ZN7testing8internal12CodeLocationD1Ev
FNDA:0,_ZN7testing8internal12CodeLocationD2Ev
FNDA:0,_ZN7testing8internal12CodeLocationC1ERKNSt3__112basic_stringIcNS2_11char_traitsIcEENS2_9allocatorIcEEEEi
FNDA:0,_ZN7testing8internal12CodeLocationC2ERKNSt3__112basic_stringIcNS2_11char_traitsIcEENS2_9allocatorIcEEEEi
FNDA:0,_ZN7testing4Test13SetUpTestCaseEv
FNDA:0,_ZN7testing4Test16TearDownTestCaseEv
FNDA:0,_ZN7testing4Test5SetupEv
FNF:59
FNH:48
DA:8201,0
DA:8208,0
DA:8217,160
DA:8219,32
DA:8239,0
DA:8240,0
DA:18988,0
DA:18996,0
DA:19073,0
LF:9
LH:2
end_of_record
SF:/Users/usuario/Desktop/LabAlgo1/tp2/reunionesRemotas/tests/silencios.cpp
FN:8,_ZN35silenciosTEST_silenciosValidos_TestC1Ev
FN:8,_ZN35silenciosTEST_silenciosValidos_Test8TestBodyEv
FN:8,_ZN35silenciosTEST_silenciosValidos_TestD2Ev
FN:8,__cxx_global_var_init
FN:8,_ZN35silenciosTEST_silenciosValidos_TestC2Ev
FN:8,_ZN35silenciosTEST_silenciosValidos_TestD0Ev
FN:8,_ZN35silenciosTEST_silenciosValidos_TestD1Ev
FN:21,_ZN36silenciosTEST_silenciosValidos2_TestD1Ev
FN:21,_ZN36silenciosTEST_silenciosValidos2_TestC1Ev
FN:21,_ZN36silenciosTEST_silenciosValidos2_TestD2Ev
FN:21,_ZN36silenciosTEST_silenciosValidos2_TestC2Ev
FN:21,__cxx_global_var_init.3
FN:21,_ZN36silenciosTEST_silenciosValidos2_TestD0Ev
FN:21,_ZN36silenciosTEST_silenciosValidos2_Test8TestBodyEv
FN:33,_ZN36silenciosTEST_silenciosValidos3_TestD2Ev
FN:33,_ZN36silenciosTEST_silenciosValidos3_TestC2Ev
FN:33,_ZN36silenciosTEST_silenciosValidos3_TestC1Ev
FN:33,_ZN36silenciosTEST_silenciosValidos3_Test8TestBodyEv
FN:33,__cxx_global_var_init.6
FN:33,_ZN36silenciosTEST_silenciosValidos3_TestD0Ev
FN:33,_ZN36silenciosTEST_silenciosValidos3_TestD1Ev
FN:45,_ZN36silenciosTEST_silenciosValidos4_Test8TestBodyEv
FN:45,_ZN36silenciosTEST_silenciosValidos4_TestD0Ev
FN:45,_ZN36silenciosTEST_silenciosValidos4_TestC2Ev
FN:45,__cxx_global_var_init.9
FN:45,_ZN36silenciosTEST_silenciosValidos4_TestD1Ev
FN:45,_ZN36silenciosTEST_silenciosValidos4_TestD2Ev
FN:45,_ZN36silenciosTEST_silenciosValidos4_TestC1Ev
FN:57,_ZN36silenciosTEST_silenciosValidos5_TestC2Ev
FN:57,_ZN36silenciosTEST_silenciosValidos5_TestD0Ev
FN:57,_ZN36silenciosTEST_silenciosValidos5_TestD2Ev
FN:57,_ZN36silenciosTEST_silenciosValidos5_TestD1Ev
FN:57,__cxx_global_var_init.12
FN:57,_ZN36silenciosTEST_silenciosValidos5_TestC1Ev
FN:57,_ZN36silenciosTEST_silenciosValidos5_Test8TestBodyEv
FN:69,_ZN36silenciosTEST_silenciosValidos6_TestC1Ev
FN:69,__cxx_global_var_init.15
FN:69,_ZN36silenciosTEST_silenciosValidos6_TestC2Ev
FN:69,_ZN36silenciosTEST_silenciosValidos6_TestD2Ev
FN:69,_ZN36silenciosTEST_silenciosValidos6_TestD1Ev
FN:69,_ZN36silenciosTEST_silenciosValidos6_Test8TestBodyEv
FN:69,_ZN36silenciosTEST_silenciosValidos6_TestD0Ev
FN:81,_ZN36silenciosTEST_silenciosValidos7_TestC1Ev
FN:81,_ZN36silenciosTEST_silenciosValidos7_TestD2Ev
FN:81,_ZN36silenciosTEST_silenciosValidos7_TestD0Ev
FN:81,_ZN36silenciosTEST_silenciosValidos7_TestC2Ev
FN:81,__cxx_global_var_init.18
FN:81,_ZN36silenciosTEST_silenciosValidos7_TestD1Ev
FN:81,_ZN36silenciosTEST_silenciosValidos7_Test8TestBodyEv
FN:93,_ZN36silenciosTEST_silenciosValidos8_Test8TestBodyEv
FN:93,_ZN36silenciosTEST_silenciosValidos8_TestD1Ev
FN:93,_ZN36silenciosTEST_silenciosValidos8_TestC2Ev
FN:93,__cxx_global_var_init.21
FN:93,_ZN36silenciosTEST_silenciosValidos8_TestC1Ev
FN:93,_ZN36silenciosTEST_silenciosValidos8_TestD0Ev
FN:93,_ZN36silenciosTEST_silenciosValidos8_TestD2Ev
FNDA:4,__cxx_global_var_init
FNDA:4,_ZN35silenciosTEST_silenciosValidos_Test8TestBodyEv
FNDA:4,_ZN35silenciosTEST_silenciosValidos_TestD1Ev
FNDA:4,_ZN35silenciosTEST_silenciosValidos_TestD0Ev
FNDA:4,_ZN35silenciosTEST_silenciosValidos_TestC1Ev
FNDA:4,_ZN35silenciosTEST_silenciosValidos_TestC2Ev
FNDA:4,_ZN35silenciosTEST_silenciosValidos_TestD2Ev
FNDA:4,__cxx_global_var_init.3
FNDA:4,_ZN36silenciosTEST_silenciosValidos2_Test8TestBodyEv
FNDA:4,_ZN36silenciosTEST_silenciosValidos2_TestD1Ev
FNDA:4,_ZN36silenciosTEST_silenciosValidos2_TestD0Ev
FNDA:4,_ZN36silenciosTEST_silenciosValidos2_TestC1Ev
FNDA:4,_ZN36silenciosTEST_silenciosValidos2_TestC2Ev
FNDA:4,_ZN36silenciosTEST_silenciosValidos2_TestD2Ev
FNDA:4,__cxx_global_var_init.6
FNDA:4,_ZN36silenciosTEST_silenciosValidos3_Test8TestBodyEv
FNDA:4,_ZN36silenciosTEST_silenciosValidos3_TestD1Ev
FNDA:4,_ZN36silenciosTEST_silenciosValidos3_TestD0Ev
FNDA:4,_ZN36silenciosTEST_silenciosValidos3_TestC1Ev
FNDA:4,_ZN36silenciosTEST_silenciosValidos3_TestC2Ev
FNDA:4,_ZN36silenciosTEST_silenciosValidos3_TestD2Ev
FNDA:4,__cxx_global_var_init.9
FNDA:4,_ZN36silenciosTEST_silenciosValidos4_Test8TestBodyEv
FNDA:4,_ZN36silenciosTEST_silenciosValidos4_TestD1Ev
FNDA:4,_ZN36silenciosTEST_silenciosValidos4_TestD0Ev
FNDA:4,_ZN36silenciosTEST_silenciosValidos4_TestC1Ev
FNDA:4,_ZN36silenciosTEST_silenciosValidos4_TestC2Ev
FNDA:4,_ZN36silenciosTEST_silenciosValidos4_TestD2Ev
FNDA:4,__cxx_global_var_init.12
FNDA:4,_ZN36silenciosTEST_silenciosValidos5_Test8TestBodyEv
FNDA:4,_ZN36silenciosTEST_silenciosValidos5_TestD1Ev
FNDA:4,_ZN36silenciosTEST_silenciosValidos5_TestD0Ev
FNDA:4,_ZN36silenciosTEST_silenciosValidos5_TestC1Ev
FNDA:4,_ZN36silenciosTEST_silenciosValidos5_TestC2Ev
FNDA:4,_ZN36silenciosTEST_silenciosValidos5_TestD2Ev
FNDA:4,__cxx_global_var_init.15
FNDA:4,_ZN36silenciosTEST_silenciosValidos6_Test8TestBodyEv
FNDA:4,_ZN36silenciosTEST_silenciosValidos6_TestD1Ev
FNDA:4,_ZN36silenciosTEST_silenciosValidos6_TestD0Ev
FNDA:4,_ZN36silenciosTEST_silenciosValidos6_TestC1Ev
FNDA:4,_ZN36silenciosTEST_silenciosValidos6_TestC2Ev
FNDA:4,_ZN36silenciosTEST_silenciosValidos6_TestD2Ev
FNDA:4,__cxx_global_var_init.18
FNDA:4,_ZN36silenciosTEST_silenciosValidos7_Test8TestBodyEv
FNDA:4,_ZN36silenciosTEST_silenciosValidos7_TestD1Ev
FNDA:4,_ZN36silenciosTEST_silenciosValidos7_TestD0Ev
FNDA:4,_ZN36silenciosTEST_silenciosValidos7_TestC1Ev
FNDA:4,_ZN36silenciosTEST_silenciosValidos7_TestC2Ev
FNDA:4,_ZN36silenciosTEST_silenciosValidos7_TestD2Ev
FNDA:4,__cxx_global_var_init.21
FNDA:4,_ZN36silenciosTEST_silenciosValidos8_Test8TestBodyEv
FNDA:4,_ZN36silenciosTEST_silenciosValidos8_TestD1Ev
FNDA:4,_ZN36silenciosTEST_silenciosValidos8_TestD0Ev
FNDA:4,_ZN36silenciosTEST_silenciosValidos8_TestC1Ev
FNDA:4,_ZN36silenciosTEST_silenciosValidos8_TestC2Ev
FNDA:4,_ZN36silenciosTEST_silenciosValidos8_TestD2Ev
FNF:56
FNH:56
DA:8,28
DA:9,4
DA:10,4
DA:11,4
DA:12,4
DA:14,4
DA:16,4
DA:18,4
DA:19,4
DA:21,28
DA:23,4
DA:24,4
DA:25,4
DA:26,4
DA:28,4
DA:30,4
DA:31,4
DA:33,28
DA:35,4
DA:36,4
DA:37,4
DA:38,4
DA:40,4
DA:42,4
DA:43,4
DA:45,28
DA:47,4
DA:48,4
DA:49,4
DA:50,4
DA:52,4
DA:54,4
DA:55,4
DA:57,28
DA:59,4
DA:60,4
DA:61,4
DA:62,4
DA:64,4
DA:66,4
DA:67,4
DA:69,28
DA:71,4
DA:72,4
DA:73,4
DA:74,4
DA:76,4
DA:78,4
DA:79,4
DA:81,28
DA:83,4
DA:84,4
DA:85,4
DA:86,4
DA:88,4
DA:90,4
DA:91,4
DA:93,28
DA:95,4
DA:96,4
DA:97,4
DA:98,4
DA:100,4
DA:102,4
DA:103,4
LF:65
LH:65
end_of_record
TN:
SF:/Library/Developer/CommandLineTools/usr/include/c++/v1/__string
FN:218,_ZNSt3__111char_traitsIcE6lengthEPKc
FNDA:0,_ZNSt3__111char_traitsIcE6lengthEPKc
FNF:1
FNH:0
DA:218,0
LF:1
LH:0
end_of_record
SF:/Library/Developer/CommandLineTools/usr/include/c++/v1/algorithm
FN:716,_ZNKSt3__16__lessImmEclERKmS3_
FN:2454,_ZNSt3__1L3minImNS_6__lessImmEEEERKT_S5_S5_T0_
FN:2462,_ZNSt3__1L3minImEERKT_S3_S3_
FNDA:0,_ZNKSt3__16__lessImmEclERKmS3_
FNDA:0,_ZNSt3__1L3minImNS_6__lessImmEEEERKT_S5_S5_T0_
FNDA:0,_ZNSt3__1L3minImEERKT_S3_S3_
FNF:3
FNH:0
DA:716,0
DA:2454,0
DA:2456,0
DA:2462,0
DA:2464,0
LF:5
LH:0
end_of_record
SF:/Library/Developer/CommandLineTools/usr/include/c++/v1/initializer_list
FN:85,_ZNKSt16initializer_listIiE4sizeEv
FN:89,_ZNKSt16initializer_listIiE5beginEv
FN:93,_ZNKSt16initializer_listIiE3endEv
FNDA:228,_ZNKSt16initializer_listIiE4sizeEv
FNDA:76,_ZNKSt16initializer_listIiE5beginEv
FNDA:76,_ZNKSt16initializer_listIiE3endEv
FNF:3
FNH:3
DA:85,228
DA:89,76
DA:93,76
LF:3
LH:3
end_of_record
SF:/Library/Developer/CommandLineTools/usr/include/c++/v1/limits
FN:215,_ZNSt3__123__libcpp_numeric_limitsIlLb1EE3maxEv
FN:452,_ZNSt3__114numeric_limitsIlE3maxEv
FNDA:0,_ZNSt3__123__libcpp_numeric_limitsIlLb1EE3maxEv
FNDA:0,_ZNSt3__114numeric_limitsIlE3maxEv
FNF:2
FNH:0
DA:215,0
DA:452,0
LF:2
LH:0
end_of_record
SF:/Library/Developer/CommandLineTools/usr/include/c++/v1/memory
FN:988,_ZNSt3__114pointer_traitsIPKcE10pointer_toERS1_
FN:1106,_ZNSt3__1L16__to_raw_pointerIKcEEPT_S3_
FN:1106,_ZNSt3__1L16__to_raw_pointerIiEEPT_S2_
FN:1546,_ZNSt3__116allocator_traitsINS_9allocatorIiEEE8allocateERS2_m
FN:1554,_ZNSt3__116allocator_traitsINS_9allocatorIiEEE10deallocateERS2_Pim
FN:1595,_ZNSt3__116allocator_traitsINS_9allocatorIiEEE7destroyIiEEvRS2_PT_
FN:1599,_ZNSt3__116allocator_traitsINS_9allocatorIiEEE8max_sizeERKS2_
FN:1604,_ZNSt3__116allocator_traitsINS_9allocatorIiEEE37select_on_container_copy_constructionERKS2_
FN:1662,_ZNSt3__116allocator_traitsINS_9allocatorIiEEE25__construct_range_forwardIiiiiEENS_9enable_ifIXaaaasr31is_trivially_move_constructibleIT0_EE5valuesr7is_sameIT1_T2_EE5valueooL_ZNS_17integral_constantIbLb1EE5valueEEntsr15__has_constructIS2_PS6_RT_EE5valueEvE4typeERS2_PSC_SH_RSB_
FN:1662,_ZNSt3__116allocator_traitsINS_9allocatorIiEEE25__construct_range_forwardIKiiiiEENS_9enable_ifIXaaaasr31is_trivially_move_constructibleIT0_EE5valuesr7is_sameIT1_T2_EE5valueooL_ZNS_17integral_constantIbLb1EE5valueEEntsr15__has_constructIS2_PS7_RT_EE5valueEvE4typeERS2_PSD_SI_RSC_
FN:1742,_ZNSt3__116allocator_traitsINS_9allocatorIiEEE9__destroyIiEEvNS_17integral_constantIbLb1EEERS2_PT_
FN:1752,_ZNSt3__116allocator_traitsINS_9allocatorIiEEE10__max_sizeENS_17integral_constantIbLb1EEERKS2_
FN:1764,_ZNSt3__116allocator_traitsINS_9allocatorIiEEE39__select_on_container_copy_constructionENS_17integral_constantIbLb0EEERKS2_
FN:1798,_ZNSt3__19allocatorIcEC2Ev
FN:1798,_ZNSt3__19allocatorIiEC2Ev
FN:1809,_ZNSt3__19allocatorIiE8allocateEmPKv
FN:1816,_ZNSt3__19allocatorIiE10deallocateEPim
FN:1818,_ZNKSt3__19allocatorIiE8max_sizeEv
FN:1881,_ZNSt3__19allocatorIiE7destroyEPi
FN:2140,_ZNSt3__122__compressed_pair_elemINS_12basic_stringIcNS_11char_traitsIcEENS_9allocatorIcEEE5__repELi0ELb0EEC2Ev
FN:2147,_ZNSt3__122__compressed_pair_elemIPiLi0ELb0EEC2IDnvEEOT_
FN:2163,_ZNSt3__122__compressed_pair_elemIPiLi0ELb0EE5__getEv
FN:2165,_ZNKSt3__122__compressed_pair_elemINS_12basic_stringIcNS_11char_traitsIcEENS_9allocatorIcEEE5__repELi0ELb0EE5__getEv
FN:2165,_ZNKSt3__122__compressed_pair_elemIPiLi0ELb0EE5__getEv
FN:2179,_ZNSt3__122__compressed_pair_elemINS_9allocatorIiEELi1ELb1EEC2Ev
FN:2179,_ZNSt3__122__compressed_pair_elemINS_9allocatorIcEELi1ELb1EEC2Ev
FN:2186,_ZNSt3__122__compressed_pair_elemINS_9allocatorIiEELi1ELb1EEC2IS2_vEEOT_
FN:2202,_ZNSt3__122__compressed_pair_elemINS_9allocatorIiEELi1ELb1EE5__getEv
FN:2204,_ZNKSt3__122__compressed_pair_elemINS_9allocatorIiEELi1ELb1EE5__getEv
FN:2234,_ZNSt3__117__compressed_pairINS_12basic_stringIcNS_11char_traitsIcEENS_9allocatorIcEEE5__repES5_EC2ILb1EvEEv
FN:2234,_ZNSt3__117__compressed_pairINS_12basic_stringIcNS_11char_traitsIcEENS_9allocatorIcEEE5__repES5_EC1ILb1EvEEv
FN:2240,_ZNSt3__117__compressed_pairIPiNS_9allocatorIiEEEC1IDnLb1EEEOT_
FN:2240,_ZNSt3__117__compressed_pairIPiNS_9allocatorIiEEEC2IDnLb1EEEOT_
FN:2250,_ZNSt3__117__compressed_pairIPiNS_9allocatorIiEEEC1IDnS3_EEOT_OT0_
FN:2250,_ZNSt3__117__compressed_pairIPiNS_9allocatorIiEEEC2IDnS3_EEOT_OT0_
FN:2279,_ZNSt3__117__compressed_pairIPiNS_9allocatorIiEEE5firstEv
FN:2284,_ZNKSt3__117__compressed_pairINS_12basic_stringIcNS_11char_traitsIcEENS_9allocatorIcEEE5__repES5_E5firstEv
FN:2284,_ZNKSt3__117__compressed_pairIPiNS_9allocatorIiEEE5firstEv
FN:2289,_ZNSt3__117__compressed_pairIPiNS_9allocatorIiEEE6secondEv
FN:2294,_ZNKSt3__117__compressed_pairIPiNS_9allocatorIiEEE6secondEv
FNDA:0,_ZNSt3__114pointer_traitsIPKcE10pointer_toERS1_
FNDA:0,_ZNSt3__1L16__to_raw_pointerIKcEEPT_S3_
FNDA:640,_ZNSt3__1L16__to_raw_pointerIiEEPT_S2_
FNDA:0,_ZNSt3__116allocator_traitsINS_9allocatorIiEEE8allocateERS2_m
FNDA:0,_ZNSt3__116allocator_traitsINS_9allocatorIiEEE10deallocateERS2_Pim
FNDA:0,_ZNSt3__116allocator_traitsINS_9allocatorIiEEE7destroyIiEEvRS2_PT_
FNDA:0,_ZNSt3__116allocator_traitsINS_9allocatorIiEEE8max_sizeERKS2_
FNDA:0,_ZNSt3__116allocator_traitsINS_9allocatorIiEEE37select_on_container_copy_constructionERKS2_
FNDA:0,_ZNSt3__116allocator_traitsINS_9allocatorIiEEE25__construct_range_forwardIKiiiiEENS_9enable_ifIXaaaasr31is_trivially_move_constructibleIT0_EE5valuesr7is_sameIT1_T2_EE5valueooL_ZNS_17integral_constantIbLb1EE5valueEEntsr15__has_constructIS2_PS7_RT_EE5valueEvE4typeERS2_PSD_SI_RSC_
FNDA:0,_ZNSt3__116allocator_traitsINS_9allocatorIiEEE25__construct_range_forwardIiiiiEENS_9enable_ifIXaaaasr31is_trivially_move_constructibleIT0_EE5valuesr7is_sameIT1_T2_EE5valueooL_ZNS_17integral_constantIbLb1EE5valueEEntsr15__has_constructIS2_PS6_RT_EE5valueEvE4typeERS2_PSC_SH_RSB_
FNDA:0,_ZNSt3__116allocator_traitsINS_9allocatorIiEEE9__destroyIiEEvNS_17integral_constantIbLb1EEERS2_PT_
FNDA:0,_ZNSt3__116allocator_traitsINS_9allocatorIiEEE10__max_sizeENS_17integral_constantIbLb1EEERKS2_
FNDA:0,_ZNSt3__116allocator_traitsINS_9allocatorIiEEE39__select_on_container_copy_constructionENS_17integral_constantIbLb0EEERKS2_
FNDA:80,_ZNSt3__19allocatorIcEC2Ev
FNDA:80,_ZNSt3__19allocatorIiEC2Ev
FNDA:0,_ZNSt3__19allocatorIiE8allocateEmPKv
FNDA:0,_ZNSt3__19allocatorIiE10deallocateEPim
FNDA:0,_ZNKSt3__19allocatorIiE8max_sizeEv
FNDA:0,_ZNSt3__19allocatorIiE7destroyEPi
FNDA:80,_ZNSt3__122__compressed_pair_elemINS_12basic_stringIcNS_11char_traitsIcEENS_9allocatorIcEEE5__repELi0ELb0EEC2Ev
FNDA:80,_ZNSt3__122__compressed_pair_elemIPiLi0ELb0EEC2IDnvEEOT_
FNDA:0,_ZNSt3__122__compressed_pair_elemIPiLi0ELb0EE5__getEv
FNDA:0,_ZNKSt3__122__compressed_pair_elemINS_12basic_stringIcNS_11char_traitsIcEENS_9allocatorIcEEE5__repELi0ELb0EE5__getEv
FNDA:320,_ZNKSt3__122__compressed_pair_elemIPiLi0ELb0EE5__getEv
FNDA:80,_ZNSt3__122__compressed_pair_elemINS_9allocatorIcEELi1ELb1EEC2Ev
FNDA:80,_ZNSt3__122__compressed_pair_elemINS_9allocatorIiEELi1ELb1EEC2Ev
FNDA:0,_ZNSt3__122__compressed_pair_elemINS_9allocatorIiEELi1ELb1EEC2IS2_vEEOT_
FNDA:0,_ZNSt3__122__compressed_pair_elemINS_9allocatorIiEELi1ELb1EE5__getEv
FNDA:0,_ZNKSt3__122__compressed_pair_elemINS_9allocatorIiEELi1ELb1EE5__getEv
FNDA:80,_ZNSt3__117__compressed_pairINS_12basic_stringIcNS_11char_traitsIcEENS_9allocatorIcEEE5__repES5_EC1ILb1EvEEv
FNDA:80,_ZNSt3__117__compressed_pairINS_12basic_stringIcNS_11char_traitsIcEENS_9allocatorIcEEE5__repES5_EC2ILb1EvEEv
FNDA:80,_ZNSt3__117__compressed_pairIPiNS_9allocatorIiEEEC1IDnLb1EEEOT_
FNDA:80,_ZNSt3__117__compressed_pairIPiNS_9allocatorIiEEEC2IDnLb1EEEOT_
FNDA:0,_ZNSt3__117__compressed_pairIPiNS_9allocatorIiEEEC1IDnS3_EEOT_OT0_
FNDA:0,_ZNSt3__117__compressed_pairIPiNS_9allocatorIiEEEC2IDnS3_EEOT_OT0_
FNDA:0,_ZNSt3__117__compressed_pairIPiNS_9allocatorIiEEE5firstEv
FNDA:0,_ZNKSt3__117__compressed_pairINS_12basic_stringIcNS_11char_traitsIcEENS_9allocatorIcEEE5__repES5_E5firstEv
FNDA:320,_ZNKSt3__117__compressed_pairIPiNS_9allocatorIiEEE5firstEv
FNDA:0,_ZNSt3__117__compressed_pairIPiNS_9allocatorIiEEE6secondEv
FNDA:0,_ZNKSt3__117__compressed_pairIPiNS_9allocatorIiEEE6secondEv
FNF:40
FNH:13
DA:988,0
DA:990,0
DA:1106,640
DA:1108,640
DA:1546,0
DA:1547,0
DA:1554,0
DA:1555,0
DA:1595,0
DA:1596,0
DA:1599,0
DA:1600,0
DA:1604,0
DA:1605,0
DA:1606,0
DA:1607,0
DA:1662,0
DA:1664,0
DA:1665,0
DA:1667,0
DA:1668,0
DA:1669,0
DA:1670,0
DA:1742,0
DA:1743,0
DA:1752,0
DA:1753,0
DA:1764,0
DA:1765,0
DA:1798,160
DA:1809,0
DA:1811,0
DA:1812,0
DA:1814,0
DA:1816,0
DA:1817,0
DA:1818,0
DA:1819,0
DA:1881,0
DA:2140,80
DA:2147,80
DA:2148,80
DA:2150,80
DA:2163,0
DA:2165,320
DA:2179,160
DA:2186,0
DA:2187,0
DA:2188,0
DA:2202,0
DA:2204,0
DA:2234,160
DA:2240,160
DA:2241,160
DA:2250,0
DA:2251,0
DA:2279,0
DA:2280,0
DA:2284,320
DA:2285,320
DA:2289,0
DA:2290,0
DA:2294,0
DA:2295,0
LF:64
LH:14
end_of_record
SF:/Library/Developer/CommandLineTools/usr/include/c++/v1/new
FN:223,_ZNSt3__1L17__libcpp_allocateEmm
FN:245,_ZNSt3__117_DeallocateCaller33__do_deallocate_handle_size_alignEPvmm
FN:275,_ZNSt3__117_DeallocateCaller27__do_deallocate_handle_sizeEPvm
FN:316,_ZNSt3__117_DeallocateCaller9__do_callEPv
FN:325,_ZNSt3__1L19__libcpp_deallocateEPvmm
FNDA:0,_ZNSt3__1L17__libcpp_allocateEmm
FNDA:0,_ZNSt3__117_DeallocateCaller33__do_deallocate_handle_size_alignEPvmm
FNDA:0,_ZNSt3__117_DeallocateCaller27__do_deallocate_handle_sizeEPvm
FNDA:0,_ZNSt3__117_DeallocateCaller9__do_callEPv
FNDA:0,_ZNSt3__1L19__libcpp_deallocateEPvmm
FNF:5
FNH:0
DA:223,0
DA:239,0
DA:245,0
DA:248,0
DA:275,0
DA:278,0
DA:316,0
DA:320,0
DA:325,0
DA:326,0
DA:327,0
LF:11
LH:0
end_of_record
SF:/Library/Developer/CommandLineTools/usr/include/c++/v1/stdexcept
FN:136,_ZNSt12length_errorC1EPKc
FN:136,_ZNSt12length_errorC2EPKc
FN:222,_ZNSt3__1L20__throw_length_errorEPKc
FNDA:0,_ZNSt12length_errorC1EPKc
FNDA:0,_ZNSt12length_errorC2EPKc
FNDA:0,_ZNSt3__1L20__throw_length_errorEPKc
FNF:3
FNH:0
DA:136,0
DA:222,0
DA:225,0
DA:230,0
LF:4
LH:0
end_of_record
SF:/Library/Developer/CommandLineTools/usr/include/c++/v1/string
FN:818,_ZNSt3__112basic_stringIcNS_11char_traitsIcEENS_9allocatorIcEEEC1IDnEEPKc
FN:818,_ZNSt3__112basic_stringIcNS_11char_traitsIcEENS_9allocatorIcEEEC2IDnEEPKc
FN:1241,_ZNKSt3__112basic_stringIcNS_11char_traitsIcEENS_9allocatorIcEEE5c_strEv
FN:1243,_ZNKSt3__112basic_stringIcNS_11char_traitsIcEENS_9allocatorIcEEE4dataEv
FN:1420,_ZNKSt3__112basic_stringIcNS_11char_traitsIcEENS_9allocatorIcEEE9__is_longEv
FN:1502,_ZNKSt3__112basic_stringIcNS_11char_traitsIcEENS_9allocatorIcEEE18__get_long_pointerEv
FN:1508,_ZNKSt3__112basic_stringIcNS_11char_traitsIcEENS_9allocatorIcEEE19__get_short_pointerEv
FN:1514,_ZNKSt3__112basic_stringIcNS_11char_traitsIcEENS_9allocatorIcEEE13__get_pointerEv
FNDA:80,_ZNSt3__112basic_stringIcNS_11char_traitsIcEENS_9allocatorIcEEEC1IDnEEPKc
FNDA:80,_ZNSt3__112basic_stringIcNS_11char_traitsIcEENS_9allocatorIcEEEC2IDnEEPKc
FNDA:0,_ZNKSt3__112basic_stringIcNS_11char_traitsIcEENS_9allocatorIcEEE5c_strEv
FNDA:0,_ZNKSt3__112basic_stringIcNS_11char_traitsIcEENS_9allocatorIcEEE4dataEv
FNDA:0,_ZNKSt3__112basic_stringIcNS_11char_traitsIcEENS_9allocatorIcEEE9__is_longEv
FNDA:0,_ZNKSt3__112basic_stringIcNS_11char_traitsIcEENS_9allocatorIcEEE18__get_long_pointerEv
FNDA:0,_ZNKSt3__112basic_stringIcNS_11char_traitsIcEENS_9allocatorIcEEE19__get_short_pointerEv
FNDA:0,_ZNKSt3__112basic_stringIcNS_11char_traitsIcEENS_9allocatorIcEEE13__get_pointerEv
FNF:8
FNH:2
DA:818,160
DA:820,80
DA:824,160
DA:1241,0
DA:1243,0
DA:1420,0
DA:1421,0
DA:1502,0
DA:1503,0
DA:1508,0
DA:1509,0
DA:1514,0
DA:1515,0
LF:13
LH:3
end_of_record
SF:/Library/Developer/CommandLineTools/usr/include/c++/v1/type_traits
FN:454,_ZNSt3__1L9addressofIKcEEPT_RS2_
FN:2310,_ZNSt3__1L4moveIRNS_9allocatorIiEEEEONS_16remove_referenceIT_E4typeEOS5_
FN:2319,_ZNSt3__1L7forwardINS_9allocatorIiEEEEOT_RNS_16remove_referenceIS3_E4typeE
FN:2319,_ZNSt3__1L7forwardIDnEEOT_RNS_16remove_referenceIS1_E4typeE
FNDA:0,_ZNSt3__1L9addressofIKcEEPT_RS2_
FNDA:0,_ZNSt3__1L4moveIRNS_9allocatorIiEEEEONS_16remove_referenceIT_E4typeEOS5_
FNDA:160,_ZNSt3__1L7forwardIDnEEOT_RNS_16remove_referenceIS1_E4typeE
FNDA:0,_ZNSt3__1L7forwardINS_9allocatorIiEEEEOT_RNS_16remove_referenceIS3_E4typeE
FNF:4
FNH:1
DA:454,0
DA:456,0
DA:2310,0
DA:2313,0
DA:2319,160
DA:2321,160
LF:6
LH:2
end_of_record
SF:/Library/Developer/CommandLineTools/usr/include/c++/v1/vector
FN:304,_ZNSt3__120__vector_base_commonILb1EEC2Ev
FN:348,_ZNSt3__113__vector_baseIiNS_9allocatorIiEEE7__allocEv
FN:351,_ZNKSt3__113__vector_baseIiNS_9allocatorIiEEE7__allocEv
FN:354,_ZNSt3__113__vector_baseIiNS_9allocatorIiEEE9__end_capEv
FN:357,_ZNKSt3__113__vector_baseIiNS_9allocatorIiEEE9__end_capEv
FN:370,_ZNSt3__113__vector_baseIiNS_9allocatorIiEEE5clearEv
FN:372,_ZNKSt3__113__vector_baseIiNS_9allocatorIiEEE8capacityEv
FN:423,_ZNSt3__113__vector_baseIiNS_9allocatorIiEEE17__destruct_at_endEPi
FN:433,_ZNSt3__113__vector_baseIiNS_9allocatorIiEEEC2Ev
FN:453,_ZNSt3__113__vector_baseIiNS_9allocatorIiEEEC2EOS2_
FN:460,_ZNSt3__113__vector_baseIiNS_9allocatorIiEEED2Ev
FN:496,_ZNSt3__16vectorIiNS_9allocatorIiEEEC1Ev
FN:496,_ZNSt3__16vectorIiNS_9allocatorIiEEEC2Ev
FN:550,_ZNSt3__16vectorIiNS_9allocatorIiEEED1Ev
FN:550,_ZNSt3__16vectorIiNS_9allocatorIiEEED2Ev
FN:656,_ZNKSt3__16vectorIiNS_9allocatorIiEEE4sizeEv
FN:659,_ZNKSt3__16vectorIiNS_9allocatorIiEEE8capacityEv
FN:698,_ZNKSt3__16vectorIiNS_9allocatorIiEEE4dataEv
FN:862,_ZNKSt3__16vectorIiNS_9allocatorIiEEE31__annotate_contiguous_containerEPKvS5_S5_S5_
FN:866,_ZNKSt3__16vectorIiNS_9allocatorIiEEE14__annotate_newEm
FN:872,_ZNKSt3__16vectorIiNS_9allocatorIiEEE17__annotate_deleteEv
FN:910,_ZNSt3__16vectorIiNS_9allocatorIiEEE24__RAII_IncreaseAnnotatorC2ERKS3_m
FN:910,_ZNSt3__16vectorIiNS_9allocatorIiEEE24__RAII_IncreaseAnnotatorC1ERKS3_m
FN:911,_ZNSt3__16vectorIiNS_9allocatorIiEEE24__RAII_IncreaseAnnotator6__doneEv
FN:973,_ZNSt3__16vectorIiNS_9allocatorIiEEE11__vallocateEm
FN:996,_ZNKSt3__16vectorIiNS_9allocatorIiEEE8max_sizeEv
FN:1066,_ZNSt3__16vectorIiNS_9allocatorIiEEE18__construct_at_endIPKiEENS_9enable_ifIXsr21__is_forward_iteratorIT_EE5valueEvE4typeES8_S8_m
FN:1066,_ZNSt3__16vectorIiNS_9allocatorIiEEE18__construct_at_endIPiEENS_9enable_ifIXsr21__is_forward_iteratorIT_EE5valueEvE4typeES7_S7_m
FN:1243,_ZNSt3__16vectorIiNS_9allocatorIiEEEC1ERKS3_
FN:1243,_ZNSt3__16vectorIiNS_9allocatorIiEEEC2ERKS3_
FN:1321,_ZNSt3__16vectorIiNS_9allocatorIiEEEC2ESt16initializer_listIiE
FN:1321,_ZNSt3__16vectorIiNS_9allocatorIiEEEC1ESt16initializer_listIiE
FNDA:80,_ZNSt3__120__vector_base_commonILb1EEC2Ev
FNDA:0,_ZNSt3__113__vector_baseIiNS_9allocatorIiEEE7__allocEv
FNDA:0,_ZNKSt3__113__vector_baseIiNS_9allocatorIiEEE7__allocEv
FNDA:0,_ZNSt3__113__vector_baseIiNS_9allocatorIiEEE9__end_capEv
FNDA:320,_ZNKSt3__113__vector_baseIiNS_9allocatorIiEEE9__end_capEv
FNDA:0,_ZNSt3__113__vector_baseIiNS_9allocatorIiEEE5clearEv
FNDA:320,_ZNKSt3__113__vector_baseIiNS_9allocatorIiEEE8capacityEv
FNDA:0,_ZNSt3__113__vector_baseIiNS_9allocatorIiEEE17__destruct_at_endEPi
FNDA:80,_ZNSt3__113__vector_baseIiNS_9allocatorIiEEEC2Ev
FNDA:0,_ZNSt3__113__vector_baseIiNS_9allocatorIiEEEC2EOS2_
FNDA:0,_ZNSt3__113__vector_baseIiNS_9allocatorIiEEED2Ev
FNDA:4,_ZNSt3__16vectorIiNS_9allocatorIiEEEC1Ev
FNDA:4,_ZNSt3__16vectorIiNS_9allocatorIiEEEC2Ev
FNDA:160,_ZNSt3__16vectorIiNS_9allocatorIiEEED1Ev
FNDA:160,_ZNSt3__16vectorIiNS_9allocatorIiEEED2Ev
FNDA:160,_ZNKSt3__16vectorIiNS_9allocatorIiEEE4sizeEv
FNDA:320,_ZNKSt3__16vectorIiNS_9allocatorIiEEE8capacityEv
FNDA:640,_ZNKSt3__16vectorIiNS_9allocatorIiEEE4dataEv
FNDA:160,_ZNKSt3__16vectorIiNS_9allocatorIiEEE31__annotate_contiguous_containerEPKvS5_S5_S5_
FNDA:0,_ZNKSt3__16vectorIiNS_9allocatorIiEEE14__annotate_newEm
FNDA:160,_ZNKSt3__16vectorIiNS_9allocatorIiEEE17__annotate_deleteEv
FNDA:0,_ZNSt3__16vectorIiNS_9allocatorIiEEE24__RAII_IncreaseAnnotatorC1ERKS3_m
FNDA:0,_ZNSt3__16vectorIiNS_9allocatorIiEEE24__RAII_IncreaseAnnotatorC2ERKS3_m
FNDA:0,_ZNSt3__16vectorIiNS_9allocatorIiEEE24__RAII_IncreaseAnnotator6__doneEv
FNDA:0,_ZNSt3__16vectorIiNS_9allocatorIiEEE11__vallocateEm
FNDA:0,_ZNKSt3__16vectorIiNS_9allocatorIiEEE8max_sizeEv
FNDA:0,_ZNSt3__16vectorIiNS_9allocatorIiEEE18__construct_at_endIPKiEENS_9enable_ifIXsr21__is_forward_iteratorIT_EE5valueEvE4typeES8_S8_m
FNDA:0,_ZNSt3__16vectorIiNS_9allocatorIiEEE18__construct_at_endIPiEENS_9enable_ifIXsr21__is_forward_iteratorIT_EE5valueEvE4typeES7_S7_m
FNDA:0,_ZNSt3__16vectorIiNS_9allocatorIiEEEC1ERKS3_
FNDA:0,_ZNSt3__16vectorIiNS_9allocatorIiEEEC2ERKS3_
FNDA:76,_ZNSt3__16vectorIiNS_9allocatorIiEEEC1ESt16initializer_listIiE
FNDA:76,_ZNSt3__16vectorIiNS_9allocatorIiEEEC2ESt16initializer_listIiE
FNF:32
FNH:15
DA:304,80
DA:348,0
DA:349,0
DA:351,0
DA:352,0
DA:354,0
DA:355,0
DA:357,320
DA:358,320
DA:361,80
DA:365,0
DA:370,0
DA:372,320
DA:373,320
DA:423,0
DA:425,0
DA:426,0
DA:427,0
DA:428,0
DA:429,0
DA:433,80
DA:435,80
DA:436,80
DA:437,80
DA:438,80
DA:439,80
DA:453,0
DA:454,0
DA:455,0
DA:456,0
DA:460,0
DA:462,0
DA:464,0
DA:465,0
DA:466,0
DA:467,0
DA:496,8
DA:497,8
DA:501,8
DA:550,320
DA:551,160
DA:552,160
DA:556,320
DA:565,76
DA:656,160
DA:657,160
DA:659,320
DA:660,320
DA:698,640
DA:699,640
DA:862,160
DA:863,160
DA:866,0
DA:867,0
DA:868,0
DA:869,0
DA:872,160
DA:873,320
DA:874,160
DA:875,160
DA:910,0
DA:911,0
DA:973,0
DA:975,0
DA:976,0
DA:977,0
DA:978,0
DA:979,0
DA:980,0
DA:996,0
DA:998,0
DA:999,0
DA:1066,0
DA:1068,0
DA:1069,0
DA:1070,0
DA:1071,0
DA:1072,0
DA:1243,0
DA:1244,0
DA:1245,0
DA:1249,0
DA:1250,0
DA:1252,0
DA:1253,0
DA:1254,0
DA:1255,0
DA:1321,152
DA:1322,152
DA:1326,76
DA:1328,76
DA:1329,76
DA:1330,76
DA:1331,152
LF:94
LH:39
end_of_record
SF:/Users/usuario/Desktop/LabAlgo1/tp2/reunionesRemotas/lib/gtest.h
FN:2394,_ZN7testing8internal10scoped_ptrINSt3__112basic_stringIcNS2_11char_traitsIcEENS2_9allocatorIcEEEEEC2EPS8_
FN:2394,_ZN7testing8internal10scoped_ptrINSt3__112basic_stringIcNS2_11char_traitsIcEENS2_9allocatorIcEEEEEC1EPS8_
FN:2395,_ZN7testing8internal10scoped_ptrINSt3__112basic_stringIcNS2_11char_traitsIcEENS2_9allocatorIcEEEEED2Ev
FN:2395,_ZN7testing8internal10scoped_ptrINSt3__112basic_stringIcNS2_11char_traitsIcEENS2_9allocatorIcEEEEED1Ev
FN:2395,_ZN7testing8internal10scoped_ptrINSt3__118basic_stringstreamIcNS2_11char_traitsIcEENS2_9allocatorIcEEEEED2Ev
FN:2395,_ZN7testing8internal10scoped_ptrINSt3__118basic_stringstreamIcNS2_11char_traitsIcEENS2_9allocatorIcEEEEED1Ev
FN:2407,_ZN7testing8internal10scoped_ptrINSt3__118basic_stringstreamIcNS2_11char_traitsIcEENS2_9allocatorIcEEEEE5resetEPS8_
FN:2407,_ZN7testing8internal10scoped_ptrINSt3__112basic_stringIcNS2_11char_traitsIcEENS2_9allocatorIcEEEEE5resetEPS8_
FN:3935,_ZN7testing7MessageD2Ev
FN:3935,_ZN7testing7MessageD1Ev
FN:8201,_ZN7testing8internal15TestFactoryBaseD1Ev
FN:8201,_ZN7testing8internal15TestFactoryBaseD0Ev
FN:8201,_ZN7testing8internal15TestFactoryBaseD2Ev
FN:8208,_ZN7testing8internal15TestFactoryBaseC2Ev
FN:8217,_ZN7testing8internal15TestFactoryImplI36esSenialTEST_muestrasNoEnRango2_TestED2Ev
FN:8217,_ZN7testing8internal15TestFactoryImplI45esSenialTEST_profundidadInvalidaNegativa_TestED0Ev
FN:8217,_ZN7testing8internal15TestFactoryImplI32esSenialTEST_secuenciaVacia_TestEC1Ev
FN:8217,_ZN7testing8internal15TestFactoryImplI31esSenialTEST_duracionBorde_TestED2Ev
FN:8217,_ZN7testing8internal15TestFactoryImplI36esSenialTEST_muestrasNoEnRango1_TestED0Ev
FN:8217,_ZN7testing8internal15TestFactoryImplI38esSenialTEST_profundidadInvalida2_TestEC1Ev
FN:8217,_ZN7testing8internal15TestFactoryImplI36esSenialTEST_profundidadValida2_TestEC1Ev
FN:8217,_ZN7testing8internal15TestFactoryImplI39esSenialTEST_profundidadIgualACero_TestED0Ev
FN:8217,_ZN7testing8internal15TestFactoryImplI34esSenialTEST_frecuenciaValida_TestED0Ev
FN:8217,_ZN7testing8internal15TestFactoryImplI42esSenialTEST_secuenciaDeSolo1Elemento_TestED1Ev
FN:8217,_ZN7testing8internal15TestFactoryImplI36esSenialTEST_profundidadValida4_TestEC1Ev
FN:8217,_ZN7testing8internal15TestFactoryImplI36esSenialTEST_profundidadValida4_TestED2Ev
FN:8217,_ZN7testing8internal15TestFactoryImplI36esSenialTEST_muestrasNoEnRango2_TestED0Ev
FN:8217,_ZN7testing8internal15TestFactoryImplI37esSenialTEST_profundidadInvalida_TestED1Ev
FN:8217,_ZN7testing8internal15TestFactoryImplI45esSenialTEST_profundidadInvalidaNegativa_TestED2Ev
FN:8217,_ZN7testing8internal15TestFactoryImplI32esSenialTEST_duracionValida_TestED0Ev
FN:8217,_ZN7testing8internal15TestFactoryImplI36esSenialTEST_muestrasNoEnRango2_TestEC2Ev
FN:8217,_ZN7testing8internal15TestFactoryImplI37esSenialTEST_profundidadInvalida_TestEC2Ev
FN:8217,_ZN7testing8internal15TestFactoryImplI33esSenialTEST_muestrasEnRango_TestED0Ev
FN:8217,_ZN7testing8internal15TestFactoryImplI36esSenialTEST_frecuenciaInvalida_TestED2Ev
FN:8217,_ZN7testing8internal15TestFactoryImplI36esSenialTEST_profundidadValida3_TestED0Ev
FN:8217,_ZN7testing8internal15TestFactoryImplI36esSenialTEST_frecuenciaNegativa_TestED0Ev
FN:8217,_ZN7testing8internal15TestFactoryImplI32esSenialTEST_duracionValida_TestED1Ev
FN:8217,_ZN7testing8internal15TestFactoryImplI39esSenialTEST_profundidadIgualACero_TestEC2Ev
FN:8217,_ZN7testing8internal15TestFactoryImplI36esSenialTEST_profundidadValida1_TestEC1Ev
FN:8217,_ZN7testing8internal15TestFactoryImplI36esSenialTEST_profundidadValida3_TestEC2Ev
FN:8217,_ZN7testing8internal15TestFactoryImplI37esSenialTEST_profundidadInvalida_TestEC1Ev
FN:8217,_ZN7testing8internal15TestFactoryImplI32esSenialTEST_secuenciaVacia_TestED0Ev
FN:8217,_ZN7testing8internal15TestFactoryImplI36esSenialTEST_profundidadValida1_TestEC2Ev
FN:8217,_ZN7testing8internal15TestFactoryImplI36esSenialTEST_frecuenciaInvalida_TestEC1Ev
FN:8217,_ZN7testing8internal15TestFactoryImplI34esSenialTEST_frecuenciaValida_TestED1Ev
FN:8217,_ZN7testing8internal15TestFactoryImplI38esSenialTEST_frecuenciaIgualACero_TestEC2Ev
FN:8217,_ZN7testing8internal15TestFactoryImplI45esSenialTEST_profundidadInvalidaNegativa_TestEC1Ev
FN:8217,_ZN7testing8internal15TestFactoryImplI42esSenialTEST_secuenciaDeSolo1Elemento_TestEC2Ev
FN:8217,_ZN7testing8internal15TestFactoryImplI36esSenialTEST_muestrasNoEnRango1_TestEC1Ev
FN:8217,_ZN7testing8internal15TestFactoryImplI34esSenialTEST_frecuenciaValida_TestED2Ev
FN:8217,_ZN7testing8internal15TestFactoryImplI33esSenialTEST_muestrasEnRango_TestEC1Ev
FN:8217,_ZN7testing8internal15TestFactoryImplI36esSenialTEST_profundidadValida3_TestEC1Ev
FN:8217,_ZN7testing8internal15TestFactoryImplI45esSenialTEST_profundidadInvalidaNegativa_TestED1Ev
FN:8217,_ZN7testing8internal15TestFactoryImplI36esSenialTEST_frecuenciaNegativa_TestEC1Ev
FN:8217,_ZN7testing8internal15TestFactoryImplI36esSenialTEST_muestrasNoEnRango1_TestED2Ev
FN:8217,_ZN7testing8internal15TestFactoryImplI36esSenialTEST_profundidadValida1_TestED0Ev
FN:8217,_ZN7testing8internal15TestFactoryImplI36esSenialTEST_profundidadValida1_TestED2Ev
FN:8217,_ZN7testing8internal15TestFactoryImplI36esSenialTEST_profundidadValida2_TestED0Ev
FN:8217,_ZN7testing8internal15TestFactoryImplI37esSenialTEST_profundidadInvalida_TestED2Ev
FN:8217,_ZN7testing8internal15TestFactoryImplI33esSenialTEST_muestrasEnRango_TestEC2Ev
FN:8217,_ZN7testing8internal15TestFactoryImplI36esSenialTEST_profundidadValida4_TestEC2Ev
FN:8217,_ZN7testing8internal15TestFactoryImplI38esSenialTEST_profundidadInvalida2_TestED0Ev
FN:8217,_ZN7testing8internal15TestFactoryImplI33esSenialTEST_muestrasEnRango_TestED1Ev
FN:8217,_ZN7testing8internal15TestFactoryImplI38esSenialTEST_profundidadInvalida2_TestEC2Ev
FN:8217,_ZN7testing8internal15TestFactoryImplI32esSenialTEST_secuenciaVacia_TestED2Ev
FN:8217,_ZN7testing8internal15TestFactoryImplI31esSenialTEST_duracionBorde_TestEC2Ev
FN:8217,_ZN7testing8internal15TestFactoryImplI32esSenialTEST_duracionValida_TestED2Ev
FN:8217,_ZN7testing8internal15TestFactoryImplI39esSenialTEST_profundidadIgualACero_TestED1Ev
FN:8217,_ZN7testing8internal15TestFactoryImplI34esSenialTEST_duracionInvalida_TestED0Ev
FN:8217,_ZN7testing8internal15TestFactoryImplI38esSenialTEST_profundidadInvalida2_TestED2Ev
FN:8217,_ZN7testing8internal15TestFactoryImplI31esSenialTEST_duracionBorde_TestED0Ev
FN:8217,_ZN7testing8internal15TestFactoryImplI36esSenialTEST_profundidadValida3_TestED2Ev
FN:8217,_ZN7testing8internal15TestFactoryImplI36esSenialTEST_profundidadValida2_TestEC2Ev
FN:8217,_ZN7testing8internal15TestFactoryImplI38esSenialTEST_profundidadInvalida2_TestED1Ev
FN:8217,_ZN7testing8internal15TestFactoryImplI31esSenialTEST_duracionBorde_TestEC1Ev
FN:8217,_ZN7testing8internal15TestFactoryImplI32esSenialTEST_secuenciaVacia_TestEC2Ev
FN:8217,_ZN7testing8internal15TestFactoryImplI36esSenialTEST_profundidadValida2_TestED1Ev
FN:8217,_ZN7testing8internal15TestFactoryImplI36esSenialTEST_frecuenciaInvalida_TestED0Ev
FN:8217,_ZN7testing8internal15TestFactoryImplI45esSenialTEST_profundidadInvalidaNegativa_TestEC2Ev
FN:8217,_ZN7testing8internal15TestFactoryImplI33esSenialTEST_muestrasEnRango_TestED2Ev
FN:8217,_ZN7testing8internal15TestFactoryImplI31esSenialTEST_duracionBorde_TestED1Ev
FN:8217,_ZN7testing8internal15TestFactoryImplI38esSenialTEST_frecuenciaIgualACero_TestED2Ev
FN:8217,_ZN7testing8internal15TestFactoryImplI42esSenialTEST_secuenciaDeSolo1Elemento_TestEC1Ev
FN:8217,_ZN7testing8internal15TestFactoryImplI42esSenialTEST_secuenciaDeSolo1Elemento_TestED0Ev
FN:8217,_ZN7testing8internal15TestFactoryImplI38esSenialTEST_frecuenciaIgualACero_TestED1Ev
FN:8217,_ZN7testing8internal15TestFactoryImplI36esSenialTEST_profundidadValida4_TestED1Ev
FN:8217,_ZN7testing8internal15TestFactoryImplI32esSenialTEST_duracionValida_TestEC2Ev
FN:8217,_ZN7testing8internal15TestFactoryImplI34esSenialTEST_duracionInvalida_TestED1Ev
FN:8217,_ZN7testing8internal15TestFactoryImplI38esSenialTEST_frecuenciaIgualACero_TestEC1Ev
FN:8217,_ZN7testing8internal15TestFactoryImplI36esSenialTEST_frecuenciaInvalida_TestEC2Ev
FN:8217,_ZN7testing8internal15TestFactoryImplI32esSenialTEST_secuenciaVacia_TestED1Ev
FN:8217,_ZN7testing8internal15TestFactoryImplI36esSenialTEST_profundidadValida3_TestED1Ev
FN:8217,_ZN7testing8internal15TestFactoryImplI36esSenialTEST_frecuenciaInvalida_TestED1Ev
FN:8217,_ZN7testing8internal15TestFactoryImplI34esSenialTEST_frecuenciaValida_TestEC1Ev
FN:8217,_ZN7testing8internal15TestFactoryImplI36esSenialTEST_muestrasNoEnRango1_TestED1Ev
FN:8217,_ZN7testing8internal15TestFactoryImplI39esSenialTEST_profundidadIgualACero_TestED2Ev
FN:8217,_ZN7testing8internal15TestFactoryImplI36esSenialTEST_profundidadValida4_TestED0Ev
FN:8217,_ZN7testing8internal15TestFactoryImplI34esSenialTEST_duracionInvalida_TestED2Ev
FN:8217,_ZN7testing8internal15TestFactoryImplI36esSenialTEST_muestrasNoEnRango1_TestEC2Ev
FN:8217,_ZN7testing8internal15TestFactoryImplI39esSenialTEST_profundidadIgualACero_TestEC1Ev
FN:8217,_ZN7testing8internal15TestFactoryImplI36esSenialTEST_frecuenciaNegativa_TestED1Ev
FN:8217,_ZN7testing8internal15TestFactoryImplI34esSenialTEST_duracionInvalida_TestEC2Ev
FN:8217,_ZN7testing8internal15TestFactoryImplI38esSenialTEST_frecuenciaIgualACero_TestED0Ev
FN:8217,_ZN7testing8internal15TestFactoryImplI34esSenialTEST_duracionInvalida_TestEC1Ev
FN:8217,_ZN7testing8internal15TestFactoryImplI36esSenialTEST_frecuenciaNegativa_TestED2Ev
FN:8217,_ZN7testing8internal15TestFactoryImplI36esSenialTEST_muestrasNoEnRango2_TestED1Ev
FN:8217,_ZN7testing8internal15TestFactoryImplI32esSenialTEST_duracionValida_TestEC1Ev
FN:8217,_ZN7testing8internal15TestFactoryImplI36esSenialTEST_frecuenciaNegativa_TestEC2Ev
FN:8217,_ZN7testing8internal15TestFactoryImplI36esSenialTEST_muestrasNoEnRango2_TestEC1Ev
FN:8217,_ZN7testing8internal15TestFactoryImplI36esSenialTEST_profundidadValida2_TestED2Ev
FN:8217,_ZN7testing8internal15TestFactoryImplI42esSenialTEST_secuenciaDeSolo1Elemento_TestED2Ev
FN:8217,_ZN7testing8internal15TestFactoryImplI34esSenialTEST_frecuenciaValida_TestEC2Ev
FN:8217,_ZN7testing8internal15TestFactoryImplI37esSenialTEST_profundidadInvalida_TestED0Ev
FN:8217,_ZN7testing8internal15TestFactoryImplI36esSenialTEST_profundidadValida1_TestED1Ev
FN:8219,_ZN7testing8internal15TestFactoryImplI36esSenialTEST_profundidadValida4_TestE10CreateTestEv
FN:8219,_ZN7testing8internal15TestFactoryImplI36esSenialTEST_frecuenciaNegativa_TestE10CreateTestEv
FN:8219,_ZN7testing8internal15TestFactoryImplI33esSenialTEST_muestrasEnRango_TestE10CreateTestEv
FN:8219,_ZN7testing8internal15TestFactoryImplI34esSenialTEST_duracionInvalida_TestE10CreateTestEv
FN:8219,_ZN7testing8internal15TestFactoryImplI36esSenialTEST_frecuenciaInvalida_TestE10CreateTestEv
FN:8219,_ZN7testing8internal15TestFactoryImplI31esSenialTEST_duracionBorde_TestE10CreateTestEv
FN:8219,_ZN7testing8internal15TestFactoryImplI37esSenialTEST_profundidadInvalida_TestE10CreateTestEv
FN:8219,_ZN7testing8internal15TestFactoryImplI38esSenialTEST_frecuenciaIgualACero_TestE10CreateTestEv
FN:8219,_ZN7testing8internal15TestFactoryImplI32esSenialTEST_secuenciaVacia_TestE10CreateTestEv
FN:8219,_ZN7testing8internal15TestFactoryImplI36esSenialTEST_muestrasNoEnRango2_TestE10CreateTestEv
FN:8219,_ZN7testing8internal15TestFactoryImplI38esSenialTEST_profundidadInvalida2_TestE10CreateTestEv
FN:8219,_ZN7testing8internal15TestFactoryImplI36esSenialTEST_profundidadValida2_TestE10CreateTestEv
FN:8219,_ZN7testing8internal15TestFactoryImplI42esSenialTEST_secuenciaDeSolo1Elemento_TestE10CreateTestEv
FN:8219,_ZN7testing8internal15TestFactoryImplI36esSenialTEST_profundidadValida3_TestE10CreateTestEv
FN:8219,_ZN7testing8internal15TestFactoryImplI32esSenialTEST_duracionValida_TestE10CreateTestEv
FN:8219,_ZN7testing8internal15TestFactoryImplI36esSenialTEST_muestrasNoEnRango1_TestE10CreateTestEv
FN:8219,_ZN7testing8internal15TestFactoryImplI39esSenialTEST_profundidadIgualACero_TestE10CreateTestEv
FN:8219,_ZN7testing8internal15TestFactoryImplI34esSenialTEST_frecuenciaValida_TestE10CreateTestEv
FN:8219,_ZN7testing8internal15TestFactoryImplI36esSenialTEST_profundidadValida1_TestE10CreateTestEv
FN:8219,_ZN7testing8internal15TestFactoryImplI45esSenialTEST_profundidadInvalidaNegativa_TestE10CreateTestEv
FN:8239,_ZN7testing8internal12CodeLocationD2Ev
FN:8239,_ZN7testing8internal12CodeLocationD1Ev
FN:8240,_ZN7testing8internal12CodeLocationC1ERKNSt3__112basic_stringIcNS2_11char_traitsIcEENS2_9allocatorIcEEEEi
FN:8240,_ZN7testing8internal12CodeLocationC2ERKNSt3__112basic_stringIcNS2_11char_traitsIcEENS2_9allocatorIcEEEEi
FN:18855,_ZN7testing15AssertionResultD1Ev
FN:18855,_ZN7testing15AssertionResultD2Ev
FN:18871,_ZN7testing15AssertionResultC1IbEERKT_PNS_8internal8EnableIfIXntsr8internal21ImplicitlyConvertibleIS2_S0_EE5valueEE4typeE
FN:18871,_ZN7testing15AssertionResultC2IbEERKT_PNS_8internal8EnableIfIXntsr8internal21ImplicitlyConvertibleIS2_S0_EE5valueEE4typeE
FN:18887,_ZNK7testing15AssertionResultcvbEv
FN:18988,_ZN7testing4Test13SetUpTestCaseEv
FN:18996,_ZN7testing4Test16TearDownTestCaseEv
FN:19073,_ZN7testing4Test5SetupEv
FNDA:0,_ZN7testing8internal10scoped_ptrINSt3__112basic_stringIcNS2_11char_traitsIcEENS2_9allocatorIcEEEEEC1EPS8_
FNDA:0,_ZN7testing8internal10scoped_ptrINSt3__112basic_stringIcNS2_11char_traitsIcEENS2_9allocatorIcEEEEEC2EPS8_
FNDA:0,_ZN7testing8internal10scoped_ptrINSt3__118basic_stringstreamIcNS2_11char_traitsIcEENS2_9allocatorIcEEEEED1Ev
FNDA:0,_ZN7testing8internal10scoped_ptrINSt3__118basic_stringstreamIcNS2_11char_traitsIcEENS2_9allocatorIcEEEEED2Ev
FNDA:0,_ZN7testing8internal10scoped_ptrINSt3__112basic_stringIcNS2_11char_traitsIcEENS2_9allocatorIcEEEEED1Ev
FNDA:0,_ZN7testing8internal10scoped_ptrINSt3__112basic_stringIcNS2_11char_traitsIcEENS2_9allocatorIcEEEEED2Ev
FNDA:0,_ZN7testing8internal10scoped_ptrINSt3__118basic_stringstreamIcNS2_11char_traitsIcEENS2_9allocatorIcEEEEE5resetEPS8_
FNDA:0,_ZN7testing8internal10scoped_ptrINSt3__112basic_stringIcNS2_11char_traitsIcEENS2_9allocatorIcEEEEE5resetEPS8_
FNDA:0,_ZN7testing7MessageD1Ev
FNDA:0,_ZN7testing7MessageD2Ev
FNDA:0,_ZN7testing8internal15TestFactoryBaseD1Ev
FNDA:0,_ZN7testing8internal15TestFactoryBaseD0Ev
FNDA:0,_ZN7testing8internal15TestFactoryBaseD2Ev
FNDA:0,_ZN7testing8internal15TestFactoryBaseC2Ev
FNDA:4,_ZN7testing8internal15TestFactoryImplI34esSenialTEST_frecuenciaValida_TestEC1Ev
FNDA:4,_ZN7testing8internal15TestFactoryImplI36esSenialTEST_frecuenciaInvalida_TestEC1Ev
FNDA:4,_ZN7testing8internal15TestFactoryImplI36esSenialTEST_frecuenciaNegativa_TestEC1Ev
FNDA:4,_ZN7testing8internal15TestFactoryImplI38esSenialTEST_frecuenciaIgualACero_TestEC1Ev
FNDA:4,_ZN7testing8internal15TestFactoryImplI33esSenialTEST_muestrasEnRango_TestEC1Ev
FNDA:4,_ZN7testing8internal15TestFactoryImplI36esSenialTEST_muestrasNoEnRango1_TestEC1Ev
FNDA:4,_ZN7testing8internal15TestFactoryImplI36esSenialTEST_muestrasNoEnRango2_TestEC1Ev
FNDA:4,_ZN7testing8internal15TestFactoryImplI36esSenialTEST_profundidadValida1_TestEC1Ev
FNDA:4,_ZN7testing8internal15TestFactoryImplI36esSenialTEST_profundidadValida2_TestEC1Ev
FNDA:4,_ZN7testing8internal15TestFactoryImplI36esSenialTEST_profundidadValida3_TestEC1Ev
FNDA:4,_ZN7testing8internal15TestFactoryImplI36esSenialTEST_profundidadValida4_TestEC1Ev
FNDA:4,_ZN7testing8internal15TestFactoryImplI37esSenialTEST_profundidadInvalida_TestEC1Ev
FNDA:4,_ZN7testing8internal15TestFactoryImplI38esSenialTEST_profundidadInvalida2_TestEC1Ev
FNDA:4,_ZN7testing8internal15TestFactoryImplI45esSenialTEST_profundidadInvalidaNegativa_TestEC1Ev
FNDA:4,_ZN7testing8internal15TestFactoryImplI39esSenialTEST_profundidadIgualACero_TestEC1Ev
FNDA:4,_ZN7testing8internal15TestFactoryImplI32esSenialTEST_duracionValida_TestEC1Ev
FNDA:4,_ZN7testing8internal15TestFactoryImplI31esSenialTEST_duracionBorde_TestEC1Ev
FNDA:4,_ZN7testing8internal15TestFactoryImplI34esSenialTEST_duracionInvalida_TestEC1Ev
FNDA:4,_ZN7testing8internal15TestFactoryImplI32esSenialTEST_secuenciaVacia_TestEC1Ev
FNDA:4,_ZN7testing8internal15TestFactoryImplI42esSenialTEST_secuenciaDeSolo1Elemento_TestEC1Ev
FNDA:4,_ZN7testing8internal15TestFactoryImplI34esSenialTEST_frecuenciaValida_TestEC2Ev
FNDA:4,_ZN7testing8internal15TestFactoryImplI34esSenialTEST_frecuenciaValida_TestED1Ev
FNDA:4,_ZN7testing8internal15TestFactoryImplI34esSenialTEST_frecuenciaValida_TestED0Ev
FNDA:4,_ZN7testing8internal15TestFactoryImplI34esSenialTEST_frecuenciaValida_TestED2Ev
FNDA:4,_ZN7testing8internal15TestFactoryImplI36esSenialTEST_frecuenciaInvalida_TestEC2Ev
FNDA:4,_ZN7testing8internal15TestFactoryImplI36esSenialTEST_frecuenciaInvalida_TestED1Ev
FNDA:4,_ZN7testing8internal15TestFactoryImplI36esSenialTEST_frecuenciaInvalida_TestED0Ev
FNDA:4,_ZN7testing8internal15TestFactoryImplI36esSenialTEST_frecuenciaInvalida_TestED2Ev
FNDA:4,_ZN7testing8internal15TestFactoryImplI36esSenialTEST_frecuenciaNegativa_TestEC2Ev
FNDA:4,_ZN7testing8internal15TestFactoryImplI36esSenialTEST_frecuenciaNegativa_TestED1Ev
FNDA:4,_ZN7testing8internal15TestFactoryImplI36esSenialTEST_frecuenciaNegativa_TestED0Ev
FNDA:4,_ZN7testing8internal15TestFactoryImplI36esSenialTEST_frecuenciaNegativa_TestED2Ev
FNDA:4,_ZN7testing8internal15TestFactoryImplI38esSenialTEST_frecuenciaIgualACero_TestEC2Ev
FNDA:4,_ZN7testing8internal15TestFactoryImplI38esSenialTEST_frecuenciaIgualACero_TestED1Ev
FNDA:4,_ZN7testing8internal15TestFactoryImplI38esSenialTEST_frecuenciaIgualACero_TestED0Ev
FNDA:4,_ZN7testing8internal15TestFactoryImplI38esSenialTEST_frecuenciaIgualACero_TestED2Ev
FNDA:4,_ZN7testing8internal15TestFactoryImplI33esSenialTEST_muestrasEnRango_TestEC2Ev
FNDA:4,_ZN7testing8internal15TestFactoryImplI33esSenialTEST_muestrasEnRango_TestED1Ev
FNDA:4,_ZN7testing8internal15TestFactoryImplI33esSenialTEST_muestrasEnRango_TestED0Ev
FNDA:4,_ZN7testing8internal15TestFactoryImplI33esSenialTEST_muestrasEnRango_TestED2Ev
FNDA:4,_ZN7testing8internal15TestFactoryImplI36esSenialTEST_muestrasNoEnRango1_TestEC2Ev
FNDA:4,_ZN7testing8internal15TestFactoryImplI36esSenialTEST_muestrasNoEnRango1_TestED1Ev
FNDA:4,_ZN7testing8internal15TestFactoryImplI36esSenialTEST_muestrasNoEnRango1_TestED0Ev
FNDA:4,_ZN7testing8internal15TestFactoryImplI36esSenialTEST_muestrasNoEnRango1_TestED2Ev
FNDA:4,_ZN7testing8internal15TestFactoryImplI36esSenialTEST_muestrasNoEnRango2_TestEC2Ev
FNDA:4,_ZN7testing8internal15TestFactoryImplI36esSenialTEST_muestrasNoEnRango2_TestED1Ev
FNDA:4,_ZN7testing8internal15TestFactoryImplI36esSenialTEST_muestrasNoEnRango2_TestED0Ev
FNDA:4,_ZN7testing8internal15TestFactoryImplI36esSenialTEST_muestrasNoEnRango2_TestED2Ev
FNDA:4,_ZN7testing8internal15TestFactoryImplI36esSenialTEST_profundidadValida1_TestEC2Ev
FNDA:4,_ZN7testing8internal15TestFactoryImplI36esSenialTEST_profundidadValida1_TestED1Ev
FNDA:4,_ZN7testing8internal15TestFactoryImplI36esSenialTEST_profundidadValida1_TestED0Ev
FNDA:4,_ZN7testing8internal15TestFactoryImplI36esSenialTEST_profundidadValida1_TestED2Ev
FNDA:4,_ZN7testing8internal15TestFactoryImplI36esSenialTEST_profundidadValida2_TestEC2Ev
FNDA:4,_ZN7testing8internal15TestFactoryImplI36esSenialTEST_profundidadValida2_TestED1Ev
FNDA:4,_ZN7testing8internal15TestFactoryImplI36esSenialTEST_profundidadValida2_TestED0Ev
FNDA:4,_ZN7testing8internal15TestFactoryImplI36esSenialTEST_profundidadValida2_TestED2Ev
FNDA:4,_ZN7testing8internal15TestFactoryImplI36esSenialTEST_profundidadValida3_TestEC2Ev
FNDA:4,_ZN7testing8internal15TestFactoryImplI36esSenialTEST_profundidadValida3_TestED1Ev
FNDA:4,_ZN7testing8internal15TestFactoryImplI36esSenialTEST_profundidadValida3_TestED0Ev
FNDA:4,_ZN7testing8internal15TestFactoryImplI36esSenialTEST_profundidadValida3_TestED2Ev
FNDA:4,_ZN7testing8internal15TestFactoryImplI36esSenialTEST_profundidadValida4_TestEC2Ev
FNDA:4,_ZN7testing8internal15TestFactoryImplI36esSenialTEST_profundidadValida4_TestED1Ev
FNDA:4,_ZN7testing8internal15TestFactoryImplI36esSenialTEST_profundidadValida4_TestED0Ev
FNDA:4,_ZN7testing8internal15TestFactoryImplI36esSenialTEST_profundidadValida4_TestED2Ev
FNDA:4,_ZN7testing8internal15TestFactoryImplI37esSenialTEST_profundidadInvalida_TestEC2Ev
FNDA:4,_ZN7testing8internal15TestFactoryImplI37esSenialTEST_profundidadInvalida_TestED1Ev
FNDA:4,_ZN7testing8internal15TestFactoryImplI37esSenialTEST_profundidadInvalida_TestED0Ev
FNDA:4,_ZN7testing8internal15TestFactoryImplI37esSenialTEST_profundidadInvalida_TestED2Ev
FNDA:4,_ZN7testing8internal15TestFactoryImplI38esSenialTEST_profundidadInvalida2_TestEC2Ev
FNDA:4,_ZN7testing8internal15TestFactoryImplI38esSenialTEST_profundidadInvalida2_TestED1Ev
FNDA:4,_ZN7testing8internal15TestFactoryImplI38esSenialTEST_profundidadInvalida2_TestED0Ev
FNDA:4,_ZN7testing8internal15TestFactoryImplI38esSenialTEST_profundidadInvalida2_TestED2Ev
FNDA:4,_ZN7testing8internal15TestFactoryImplI45esSenialTEST_profundidadInvalidaNegativa_TestEC2Ev
FNDA:4,_ZN7testing8internal15TestFactoryImplI45esSenialTEST_profundidadInvalidaNegativa_TestED1Ev
FNDA:4,_ZN7testing8internal15TestFactoryImplI45esSenialTEST_profundidadInvalidaNegativa_TestED0Ev
FNDA:4,_ZN7testing8internal15TestFactoryImplI45esSenialTEST_profundidadInvalidaNegativa_TestED2Ev
FNDA:4,_ZN7testing8internal15TestFactoryImplI39esSenialTEST_profundidadIgualACero_TestEC2Ev
FNDA:4,_ZN7testing8internal15TestFactoryImplI39esSenialTEST_profundidadIgualACero_TestED1Ev
FNDA:4,_ZN7testing8internal15TestFactoryImplI39esSenialTEST_profundidadIgualACero_TestED0Ev
FNDA:4,_ZN7testing8internal15TestFactoryImplI39esSenialTEST_profundidadIgualACero_TestED2Ev
FNDA:4,_ZN7testing8internal15TestFactoryImplI32esSenialTEST_duracionValida_TestEC2Ev
FNDA:4,_ZN7testing8internal15TestFactoryImplI32esSenialTEST_duracionValida_TestED1Ev
FNDA:4,_ZN7testing8internal15TestFactoryImplI32esSenialTEST_duracionValida_TestED0Ev
FNDA:4,_ZN7testing8internal15TestFactoryImplI32esSenialTEST_duracionValida_TestED2Ev
FNDA:4,_ZN7testing8internal15TestFactoryImplI31esSenialTEST_duracionBorde_TestEC2Ev
FNDA:4,_ZN7testing8internal15TestFactoryImplI31esSenialTEST_duracionBorde_TestED1Ev
FNDA:4,_ZN7testing8internal15TestFactoryImplI31esSenialTEST_duracionBorde_TestED0Ev
FNDA:4,_ZN7testing8internal15TestFactoryImplI31esSenialTEST_duracionBorde_TestED2Ev
FNDA:4,_ZN7testing8internal15TestFactoryImplI34esSenialTEST_duracionInvalida_TestEC2Ev
FNDA:4,_ZN7testing8internal15TestFactoryImplI34esSenialTEST_duracionInvalida_TestED1Ev
FNDA:4,_ZN7testing8internal15TestFactoryImplI34esSenialTEST_duracionInvalida_TestED0Ev
FNDA:4,_ZN7testing8internal15TestFactoryImplI34esSenialTEST_duracionInvalida_TestED2Ev
FNDA:4,_ZN7testing8internal15TestFactoryImplI32esSenialTEST_secuenciaVacia_TestEC2Ev
FNDA:4,_ZN7testing8internal15TestFactoryImplI32esSenialTEST_secuenciaVacia_TestED1Ev
FNDA:4,_ZN7testing8internal15TestFactoryImplI32esSenialTEST_secuenciaVacia_TestED0Ev
FNDA:4,_ZN7testing8internal15TestFactoryImplI32esSenialTEST_secuenciaVacia_TestED2Ev
FNDA:4,_ZN7testing8internal15TestFactoryImplI42esSenialTEST_secuenciaDeSolo1Elemento_TestEC2Ev
FNDA:4,_ZN7testing8internal15TestFactoryImplI42esSenialTEST_secuenciaDeSolo1Elemento_TestED1Ev
FNDA:4,_ZN7testing8internal15TestFactoryImplI42esSenialTEST_secuenciaDeSolo1Elemento_TestED0Ev
FNDA:4,_ZN7testing8internal15TestFactoryImplI42esSenialTEST_secuenciaDeSolo1Elemento_TestED2Ev
FNDA:4,_ZN7testing8internal15TestFactoryImplI34esSenialTEST_frecuenciaValida_TestE10CreateTestEv
FNDA:4,_ZN7testing8internal15TestFactoryImplI36esSenialTEST_frecuenciaInvalida_TestE10CreateTestEv
FNDA:4,_ZN7testing8internal15TestFactoryImplI36esSenialTEST_frecuenciaNegativa_TestE10CreateTestEv
FNDA:4,_ZN7testing8internal15TestFactoryImplI38esSenialTEST_frecuenciaIgualACero_TestE10CreateTestEv
FNDA:4,_ZN7testing8internal15TestFactoryImplI33esSenialTEST_muestrasEnRango_TestE10CreateTestEv
FNDA:4,_ZN7testing8internal15TestFactoryImplI36esSenialTEST_muestrasNoEnRango1_TestE10CreateTestEv
FNDA:4,_ZN7testing8internal15TestFactoryImplI36esSenialTEST_muestrasNoEnRango2_TestE10CreateTestEv
FNDA:4,_ZN7testing8internal15TestFactoryImplI36esSenialTEST_profundidadValida1_TestE10CreateTestEv
FNDA:4,_ZN7testing8internal15TestFactoryImplI36esSenialTEST_profundidadValida2_TestE10CreateTestEv
FNDA:4,_ZN7testing8internal15TestFactoryImplI36esSenialTEST_profundidadValida3_TestE10CreateTestEv
FNDA:4,_ZN7testing8internal15TestFactoryImplI36esSenialTEST_profundidadValida4_TestE10CreateTestEv
FNDA:4,_ZN7testing8internal15TestFactoryImplI37esSenialTEST_profundidadInvalida_TestE10CreateTestEv
FNDA:4,_ZN7testing8internal15TestFactoryImplI38esSenialTEST_profundidadInvalida2_TestE10CreateTestEv
FNDA:4,_ZN7testing8internal15TestFactoryImplI45esSenialTEST_profundidadInvalidaNegativa_TestE10CreateTestEv
FNDA:4,_ZN7testing8internal15TestFactoryImplI39esSenialTEST_profundidadIgualACero_TestE10CreateTestEv
FNDA:4,_ZN7testing8internal15TestFactoryImplI32esSenialTEST_duracionValida_TestE10CreateTestEv
FNDA:4,_ZN7testing8internal15TestFactoryImplI31esSenialTEST_duracionBorde_TestE10CreateTestEv
FNDA:4,_ZN7testing8internal15TestFactoryImplI34esSenialTEST_duracionInvalida_TestE10CreateTestEv
FNDA:4,_ZN7testing8internal15TestFactoryImplI32esSenialTEST_secuenciaVacia_TestE10CreateTestEv
FNDA:4,_ZN7testing8internal15TestFactoryImplI42esSenialTEST_secuenciaDeSolo1Elemento_TestE10CreateTestEv
FNDA:0,_ZN7testing8internal12CodeLocationD1Ev
FNDA:0,_ZN7testing8internal12CodeLocationD2Ev
FNDA:0,_ZN7testing8internal12CodeLocationC1ERKNSt3__112basic_stringIcNS2_11char_traitsIcEENS2_9allocatorIcEEEEi
FNDA:0,_ZN7testing8internal12CodeLocationC2ERKNSt3__112basic_stringIcNS2_11char_traitsIcEENS2_9allocatorIcEEEEi
FNDA:0,_ZN7testing15AssertionResultD1Ev
FNDA:0,_ZN7testing15AssertionResultD2Ev
FNDA:0,_ZN7testing15AssertionResultC1IbEERKT_PNS_8internal8EnableIfIXntsr8internal21ImplicitlyConvertibleIS2_S0_EE5valueEE4typeE
FNDA:0,_ZN7testing15AssertionResultC2IbEERKT_PNS_8internal8EnableIfIXntsr8internal21ImplicitlyConvertibleIS2_S0_EE5valueEE4typeE
FNDA:0,_ZNK7testing15AssertionResultcvbEv
FNDA:0,_ZN7testing4Test13SetUpTestCaseEv
FNDA:0,_ZN7testing4Test16TearDownTestCaseEv
FNDA:0,_ZN7testing4Test5SetupEv
FNF:146
FNH:120
DA:2394,0
DA:2395,0
DA:2407,0
DA:2408,0
DA:2409,0
DA:2410,0
DA:2411,0
DA:2412,0
DA:2413,0
DA:2414,0
DA:3935,0
DA:8201,0
DA:8208,0
DA:8217,400
DA:8219,80
DA:8239,0
DA:8240,0
DA:18855,0
DA:18871,0
DA:18876,0
DA:18887,0
DA:18988,0
DA:18996,0
DA:19073,0
LF:24
LH:2
end_of_record
SF:/Users/usuario/Desktop/LabAlgo1/tp2/reunionesRemotas/tests/esSenial.cpp
FN:8,_ZN34esSenialTEST_frecuenciaValida_TestD1Ev
FN:8,_ZN34esSenialTEST_frecuenciaValida_TestD2Ev
FN:8,_ZN34esSenialTEST_frecuenciaValida_TestC1Ev
FN:8,__cxx_global_var_init
FN:8,_ZN34esSenialTEST_frecuenciaValida_Test8TestBodyEv
FN:8,_ZN34esSenialTEST_frecuenciaValida_TestC2Ev
FN:8,_ZN34esSenialTEST_frecuenciaValida_TestD0Ev
FN:16,__cxx_global_var_init.6
FN:16,_ZN36esSenialTEST_frecuenciaInvalida_TestC1Ev
FN:16,_ZN36esSenialTEST_frecuenciaInvalida_TestD0Ev
FN:16,_ZN36esSenialTEST_frecuenciaInvalida_TestD1Ev
FN:16,_ZN36esSenialTEST_frecuenciaInvalida_TestD2Ev
FN:16,_ZN36esSenialTEST_frecuenciaInvalida_TestC2Ev
FN:16,_ZN36esSenialTEST_frecuenciaInvalida_Test8TestBodyEv
FN:24,_ZN36esSenialTEST_frecuenciaNegativa_TestD0Ev
FN:24,_ZN36esSenialTEST_frecuenciaNegativa_Test8TestBodyEv
FN:24,_ZN36esSenialTEST_frecuenciaNegativa_TestD1Ev
FN:24,_ZN36esSenialTEST_frecuenciaNegativa_TestD2Ev
FN:24,_ZN36esSenialTEST_frecuenciaNegativa_TestC2Ev
FN:24,_ZN36esSenialTEST_frecuenciaNegativa_TestC1Ev
FN:24,__cxx_global_var_init.9
FN:32,_ZN38esSenialTEST_frecuenciaIgualACero_TestD0Ev
FN:32,_ZN38esSenialTEST_frecuenciaIgualACero_TestD2Ev
FN:32,_ZN38esSenialTEST_frecuenciaIgualACero_TestD1Ev
FN:32,_ZN38esSenialTEST_frecuenciaIgualACero_Test8TestBodyEv
FN:32,__cxx_global_var_init.12
FN:32,_ZN38esSenialTEST_frecuenciaIgualACero_TestC2Ev
FN:32,_ZN38esSenialTEST_frecuenciaIgualACero_TestC1Ev
FN:40,_ZN33esSenialTEST_muestrasEnRango_TestC2Ev
FN:40,__cxx_global_var_init.15
FN:40,_ZN33esSenialTEST_muestrasEnRango_TestC1Ev
FN:40,_ZN33esSenialTEST_muestrasEnRango_Test8TestBodyEv
FN:40,_ZN33esSenialTEST_muestrasEnRango_TestD0Ev
FN:40,_ZN33esSenialTEST_muestrasEnRango_TestD1Ev
FN:40,_ZN33esSenialTEST_muestrasEnRango_TestD2Ev
FN:48,_ZN36esSenialTEST_muestrasNoEnRango1_TestD2Ev
FN:48,__cxx_global_var_init.18
FN:48,_ZN36esSenialTEST_muestrasNoEnRango1_TestD1Ev
FN:48,_ZN36esSenialTEST_muestrasNoEnRango1_TestD0Ev
FN:48,_ZN36esSenialTEST_muestrasNoEnRango1_TestC1Ev
FN:48,_ZN36esSenialTEST_muestrasNoEnRango1_TestC2Ev
FN:48,_ZN36esSenialTEST_muestrasNoEnRango1_Test8TestBodyEv
FN:56,_ZN36esSenialTEST_muestrasNoEnRango2_TestC2Ev
FN:56,__cxx_global_var_init.21
FN:56,_ZN36esSenialTEST_muestrasNoEnRango2_TestD2Ev
FN:56,_ZN36esSenialTEST_muestrasNoEnRango2_TestD1Ev
FN:56,_ZN36esSenialTEST_muestrasNoEnRango2_TestC1Ev
FN:56,_ZN36esSenialTEST_muestrasNoEnRango2_Test8TestBodyEv
FN:56,_ZN36esSenialTEST_muestrasNoEnRango2_TestD0Ev
FN:64,__cxx_global_var_init.24
FN:64,_ZN36esSenialTEST_profundidadValida1_Test8TestBodyEv
FN:64,_ZN36esSenialTEST_profundidadValida1_TestD0Ev
FN:64,_ZN36esSenialTEST_profundidadValida1_TestC2Ev
FN:64,_ZN36esSenialTEST_profundidadValida1_TestD1Ev
FN:64,_ZN36esSenialTEST_profundidadValida1_TestC1Ev
FN:64,_ZN36esSenialTEST_profundidadValida1_TestD2Ev
FN:72,_ZN36esSenialTEST_profundidadValida2_TestD0Ev
FN:72,_ZN36esSenialTEST_profundidadValida2_TestD2Ev
FN:72,_ZN36esSenialTEST_profundidadValida2_TestC2Ev
FN:72,_ZN36esSenialTEST_profundidadValida2_TestC1Ev
FN:72,__cxx_global_var_init.27
FN:72,_ZN36esSenialTEST_profundidadValida2_Test8TestBodyEv
FN:72,_ZN36esSenialTEST_profundidadValida2_TestD1Ev
FN:80,_ZN36esSenialTEST_profundidadValida3_TestC1Ev
FN:80,_ZN36esSenialTEST_profundidadValida3_Test8TestBodyEv
FN:80,_ZN36esSenialTEST_profundidadValida3_TestD0Ev
FN:80,_ZN36esSenialTEST_profundidadValida3_TestC2Ev
FN:80,_ZN36esSenialTEST_profundidadValida3_TestD2Ev
FN:80,__cxx_global_var_init.30
FN:80,_ZN36esSenialTEST_profundidadValida3_TestD1Ev
FN:88,_ZN36esSenialTEST_profundidadValida4_TestC2Ev
FN:88,__cxx_global_var_init.33
FN:88,_ZN36esSenialTEST_profundidadValida4_TestD1Ev
FN:88,_ZN36esSenialTEST_profundidadValida4_TestD2Ev
FN:88,_ZN36esSenialTEST_profundidadValida4_Test8TestBodyEv
FN:88,_ZN36esSenialTEST_profundidadValida4_TestC1Ev
FN:88,_ZN36esSenialTEST_profundidadValida4_TestD0Ev
FN:97,_ZN37esSenialTEST_profundidadInvalida_TestC2Ev
FN:97,__cxx_global_var_init.36
FN:97,_ZN37esSenialTEST_profundidadInvalida_TestD2Ev
FN:97,_ZN37esSenialTEST_profundidadInvalida_TestC1Ev
FN:97,_ZN37esSenialTEST_profundidadInvalida_TestD1Ev
FN:97,_ZN37esSenialTEST_profundidadInvalida_TestD0Ev
FN:97,_ZN37esSenialTEST_profundidadInvalida_Test8TestBodyEv
FN:105,_ZN38esSenialTEST_profundidadInvalida2_Test8TestBodyEv
FN:105,_ZN38esSenialTEST_profundidadInvalida2_TestD0Ev
FN:105,_ZN38esSenialTEST_profundidadInvalida2_TestD2Ev
FN:105,__cxx_global_var_init.39
FN:105,_ZN38esSenialTEST_profundidadInvalida2_TestC1Ev
FN:105,_ZN38esSenialTEST_profundidadInvalida2_TestC2Ev
FN:105,_ZN38esSenialTEST_profundidadInvalida2_TestD1Ev
FN:114,__cxx_global_var_init.42
FN:114,_ZN45esSenialTEST_profundidadInvalidaNegativa_TestD0Ev
FN:114,_ZN45esSenialTEST_profundidadInvalidaNegativa_Test8TestBodyEv
FN:114,_ZN45esSenialTEST_profundidadInvalidaNegativa_TestD1Ev
FN:114,_ZN45esSenialTEST_profundidadInvalidaNegativa_TestC2Ev
FN:114,_ZN45esSenialTEST_profundidadInvalidaNegativa_TestD2Ev
FN:114,_ZN45esSenialTEST_profundidadInvalidaNegativa_TestC1Ev
FN:122,_ZN39esSenialTEST_profundidadIgualACero_TestD0Ev
FN:122,_ZN39esSenialTEST_profundidadIgualACero_TestD2Ev
FN:122,_ZN39esSenialTEST_profundidadIgualACero_TestC2Ev
FN:122,_ZN39esSenialTEST_profundidadIgualACero_Test8TestBodyEv
FN:122,_ZN39esSenialTEST_profundidadIgualACero_TestD1Ev
FN:122,_ZN39esSenialTEST_profundidadIgualACero_TestC1Ev
FN:122,__cxx_global_var_init.45
FN:130,_ZN32esSenialTEST_duracionValida_TestD0Ev
FN:130,_ZN32esSenialTEST_duracionValida_TestC2Ev
FN:130,_ZN32esSenialTEST_duracionValida_TestD1Ev
FN:130,_ZN32esSenialTEST_duracionValida_TestC1Ev
FN:130,_ZN32esSenialTEST_duracionValida_TestD2Ev
FN:130,__cxx_global_var_init.48
FN:130,_ZN32esSenialTEST_duracionValida_Test8TestBodyEv
FN:138,_ZN31esSenialTEST_duracionBorde_TestD2Ev
FN:138,_ZN31esSenialTEST_duracionBorde_Test8TestBodyEv
FN:138,_ZN31esSenialTEST_duracionBorde_TestD1Ev
FN:138,_ZN31esSenialTEST_duracionBorde_TestD0Ev
FN:138,_ZN31esSenialTEST_duracionBorde_TestC2Ev
FN:138,_ZN31esSenialTEST_duracionBorde_TestC1Ev
FN:138,__cxx_global_var_init.51
FN:146,__cxx_global_var_init.54
FN:146,_ZN34esSenialTEST_duracionInvalida_TestD2Ev
FN:146,_ZN34esSenialTEST_duracionInvalida_TestD1Ev
FN:146,_ZN34esSenialTEST_duracionInvalida_TestD0Ev
FN:146,_ZN34esSenialTEST_duracionInvalida_Test8TestBodyEv
FN:146,_ZN34esSenialTEST_duracionInvalida_TestC2Ev
FN:146,_ZN34esSenialTEST_duracionInvalida_TestC1Ev
FN:154,_ZN32esSenialTEST_secuenciaVacia_TestD2Ev
FN:154,__cxx_global_var_init.57
FN:154,_ZN32esSenialTEST_secuenciaVacia_Test8TestBodyEv
FN:154,_ZN32esSenialTEST_secuenciaVacia_TestC2Ev
FN:154,_ZN32esSenialTEST_secuenciaVacia_TestC1Ev
FN:154,_ZN32esSenialTEST_secuenciaVacia_TestD1Ev
FN:154,_ZN32esSenialTEST_secuenciaVacia_TestD0Ev
FN:162,_ZN42esSenialTEST_secuenciaDeSolo1Elemento_TestC1Ev
FN:162,_ZN42esSenialTEST_secuenciaDeSolo1Elemento_TestC2Ev
FN:162,_ZN42esSenialTEST_secuenciaDeSolo1Elemento_TestD2Ev
FN:162,_ZN42esSenialTEST_secuenciaDeSolo1Elemento_Test8TestBodyEv
FN:162,_ZN42esSenialTEST_secuenciaDeSolo1Elemento_TestD1Ev
FN:162,_ZN42esSenialTEST_secuenciaDeSolo1Elemento_TestD0Ev
FN:162,__cxx_global_var_init.59
FNDA:4,__cxx_global_var_init
FNDA:4,_ZN34esSenialTEST_frecuenciaValida_Test8TestBodyEv
FNDA:4,_ZN34esSenialTEST_frecuenciaValida_TestD1Ev
FNDA:4,_ZN34esSenialTEST_frecuenciaValida_TestD0Ev
FNDA:4,_ZN34esSenialTEST_frecuenciaValida_TestC1Ev
FNDA:4,_ZN34esSenialTEST_frecuenciaValida_TestC2Ev
FNDA:4,_ZN34esSenialTEST_frecuenciaValida_TestD2Ev
FNDA:4,__cxx_global_var_init.6
FNDA:4,_ZN36esSenialTEST_frecuenciaInvalida_Test8TestBodyEv
FNDA:4,_ZN36esSenialTEST_frecuenciaInvalida_TestD1Ev
FNDA:4,_ZN36esSenialTEST_frecuenciaInvalida_TestD0Ev
FNDA:4,_ZN36esSenialTEST_frecuenciaInvalida_TestC1Ev
FNDA:4,_ZN36esSenialTEST_frecuenciaInvalida_TestC2Ev
FNDA:4,_ZN36esSenialTEST_frecuenciaInvalida_TestD2Ev
FNDA:4,__cxx_global_var_init.9
FNDA:4,_ZN36esSenialTEST_frecuenciaNegativa_Test8TestBodyEv
FNDA:4,_ZN36esSenialTEST_frecuenciaNegativa_TestD1Ev
FNDA:4,_ZN36esSenialTEST_frecuenciaNegativa_TestD0Ev
FNDA:4,_ZN36esSenialTEST_frecuenciaNegativa_TestC1Ev
FNDA:4,_ZN36esSenialTEST_frecuenciaNegativa_TestC2Ev
FNDA:4,_ZN36esSenialTEST_frecuenciaNegativa_TestD2Ev
FNDA:4,__cxx_global_var_init.12
FNDA:4,_ZN38esSenialTEST_frecuenciaIgualACero_Test8TestBodyEv
FNDA:4,_ZN38esSenialTEST_frecuenciaIgualACero_TestD1Ev
FNDA:4,_ZN38esSenialTEST_frecuenciaIgualACero_TestD0Ev
FNDA:4,_ZN38esSenialTEST_frecuenciaIgualACero_TestC1Ev
FNDA:4,_ZN38esSenialTEST_frecuenciaIgualACero_TestC2Ev
FNDA:4,_ZN38esSenialTEST_frecuenciaIgualACero_TestD2Ev
FNDA:4,__cxx_global_var_init.15
FNDA:4,_ZN33esSenialTEST_muestrasEnRango_Test8TestBodyEv
FNDA:4,_ZN33esSenialTEST_muestrasEnRango_TestD1Ev
FNDA:4,_ZN33esSenialTEST_muestrasEnRango_TestD0Ev
FNDA:4,_ZN33esSenialTEST_muestrasEnRango_TestC1Ev
FNDA:4,_ZN33esSenialTEST_muestrasEnRango_TestC2Ev
FNDA:4,_ZN33esSenialTEST_muestrasEnRango_TestD2Ev
FNDA:4,__cxx_global_var_init.18
FNDA:4,_ZN36esSenialTEST_muestrasNoEnRango1_Test8TestBodyEv
FNDA:4,_ZN36esSenialTEST_muestrasNoEnRango1_TestD1Ev
FNDA:4,_ZN36esSenialTEST_muestrasNoEnRango1_TestD0Ev
FNDA:4,_ZN36esSenialTEST_muestrasNoEnRango1_TestC1Ev
FNDA:4,_ZN36esSenialTEST_muestrasNoEnRango1_TestC2Ev
FNDA:4,_ZN36esSenialTEST_muestrasNoEnRango1_TestD2Ev
FNDA:4,__cxx_global_var_init.21
FNDA:4,_ZN36esSenialTEST_muestrasNoEnRango2_Test8TestBodyEv
FNDA:4,_ZN36esSenialTEST_muestrasNoEnRango2_TestD1Ev
FNDA:4,_ZN36esSenialTEST_muestrasNoEnRango2_TestD0Ev
FNDA:4,_ZN36esSenialTEST_muestrasNoEnRango2_TestC1Ev
FNDA:4,_ZN36esSenialTEST_muestrasNoEnRango2_TestC2Ev
FNDA:4,_ZN36esSenialTEST_muestrasNoEnRango2_TestD2Ev
FNDA:4,__cxx_global_var_init.24
FNDA:4,_ZN36esSenialTEST_profundidadValida1_Test8TestBodyEv
FNDA:4,_ZN36esSenialTEST_profundidadValida1_TestD1Ev
FNDA:4,_ZN36esSenialTEST_profundidadValida1_TestD0Ev
FNDA:4,_ZN36esSenialTEST_profundidadValida1_TestC1Ev
FNDA:4,_ZN36esSenialTEST_profundidadValida1_TestC2Ev
FNDA:4,_ZN36esSenialTEST_profundidadValida1_TestD2Ev
FNDA:4,__cxx_global_var_init.27
FNDA:4,_ZN36esSenialTEST_profundidadValida2_Test8TestBodyEv
FNDA:4,_ZN36esSenialTEST_profundidadValida2_TestD1Ev
FNDA:4,_ZN36esSenialTEST_profundidadValida2_TestD0Ev
FNDA:4,_ZN36esSenialTEST_profundidadValida2_TestC1Ev
FNDA:4,_ZN36esSenialTEST_profundidadValida2_TestC2Ev
FNDA:4,_ZN36esSenialTEST_profundidadValida2_TestD2Ev
FNDA:4,__cxx_global_var_init.30
FNDA:4,_ZN36esSenialTEST_profundidadValida3_Test8TestBodyEv
FNDA:4,_ZN36esSenialTEST_profundidadValida3_TestD1Ev
FNDA:4,_ZN36esSenialTEST_profundidadValida3_TestD0Ev
FNDA:4,_ZN36esSenialTEST_profundidadValida3_TestC1Ev
FNDA:4,_ZN36esSenialTEST_profundidadValida3_TestC2Ev
FNDA:4,_ZN36esSenialTEST_profundidadValida3_TestD2Ev
FNDA:4,__cxx_global_var_init.33
FNDA:4,_ZN36esSenialTEST_profundidadValida4_Test8TestBodyEv
FNDA:4,_ZN36esSenialTEST_profundidadValida4_TestD1Ev
FNDA:4,_ZN36esSenialTEST_profundidadValida4_TestD0Ev
FNDA:4,_ZN36esSenialTEST_profundidadValida4_TestC1Ev
FNDA:4,_ZN36esSenialTEST_profundidadValida4_TestC2Ev
FNDA:4,_ZN36esSenialTEST_profundidadValida4_TestD2Ev
FNDA:4,__cxx_global_var_init.36
FNDA:4,_ZN37esSenialTEST_profundidadInvalida_Test8TestBodyEv
FNDA:4,_ZN37esSenialTEST_profundidadInvalida_TestD1Ev
FNDA:4,_ZN37esSenialTEST_profundidadInvalida_TestD0Ev
FNDA:4,_ZN37esSenialTEST_profundidadInvalida_TestC1Ev
FNDA:4,_ZN37esSenialTEST_profundidadInvalida_TestC2Ev
FNDA:4,_ZN37esSenialTEST_profundidadInvalida_TestD2Ev
FNDA:4,__cxx_global_var_init.39
FNDA:4,_ZN38esSenialTEST_profundidadInvalida2_Test8TestBodyEv
FNDA:4,_ZN38esSenialTEST_profundidadInvalida2_TestD1Ev
FNDA:4,_ZN38esSenialTEST_profundidadInvalida2_TestD0Ev
FNDA:4,_ZN38esSenialTEST_profundidadInvalida2_TestC1Ev
FNDA:4,_ZN38esSenialTEST_profundidadInvalida2_TestC2Ev
FNDA:4,_ZN38esSenialTEST_profundidadInvalida2_TestD2Ev
FNDA:4,__cxx_global_var_init.42
FNDA:4,_ZN45esSenialTEST_profundidadInvalidaNegativa_Test8TestBodyEv
FNDA:4,_ZN45esSenialTEST_profundidadInvalidaNegativa_TestD1Ev
FNDA:4,_ZN45esSenialTEST_profundidadInvalidaNegativa_TestD0Ev
FNDA:4,_ZN45esSenialTEST_profundidadInvalidaNegativa_TestC1Ev
FNDA:4,_ZN45esSenialTEST_profundidadInvalidaNegativa_TestC2Ev
FNDA:4,_ZN45esSenialTEST_profundidadInvalidaNegativa_TestD2Ev
FNDA:4,__cxx_global_var_init.45
FNDA:4,_ZN39esSenialTEST_profundidadIgualACero_Test8TestBodyEv
FNDA:4,_ZN39esSenialTEST_profundidadIgualACero_TestD1Ev
FNDA:4,_ZN39esSenialTEST_profundidadIgualACero_TestD0Ev
FNDA:4,_ZN39esSenialTEST_profundidadIgualACero_TestC1Ev
FNDA:4,_ZN39esSenialTEST_profundidadIgualACero_TestC2Ev
FNDA:4,_ZN39esSenialTEST_profundidadIgualACero_TestD2Ev
FNDA:4,__cxx_global_var_init.48
FNDA:4,_ZN32esSenialTEST_duracionValida_Test8TestBodyEv
FNDA:4,_ZN32esSenialTEST_duracionValida_TestD1Ev
FNDA:4,_ZN32esSenialTEST_duracionValida_TestD0Ev
FNDA:4,_ZN32esSenialTEST_duracionValida_TestC1Ev
FNDA:4,_ZN32esSenialTEST_duracionValida_TestC2Ev
FNDA:4,_ZN32esSenialTEST_duracionValida_TestD2Ev
FNDA:4,__cxx_global_var_init.51
FNDA:4,_ZN31esSenialTEST_duracionBorde_Test8TestBodyEv
FNDA:4,_ZN31esSenialTEST_duracionBorde_TestD1Ev
FNDA:4,_ZN31esSenialTEST_duracionBorde_TestD0Ev
FNDA:4,_ZN31esSenialTEST_duracionBorde_TestC1Ev
FNDA:4,_ZN31esSenialTEST_duracionBorde_TestC2Ev
FNDA:4,_ZN31esSenialTEST_duracionBorde_TestD2Ev
FNDA:4,__cxx_global_var_init.54
FNDA:4,_ZN34esSenialTEST_duracionInvalida_Test8TestBodyEv
FNDA:4,_ZN34esSenialTEST_duracionInvalida_TestD1Ev
FNDA:4,_ZN34esSenialTEST_duracionInvalida_TestD0Ev
FNDA:4,_ZN34esSenialTEST_duracionInvalida_TestC1Ev
FNDA:4,_ZN34esSenialTEST_duracionInvalida_TestC2Ev
FNDA:4,_ZN34esSenialTEST_duracionInvalida_TestD2Ev
FNDA:4,__cxx_global_var_init.57
FNDA:4,_ZN32esSenialTEST_secuenciaVacia_Test8TestBodyEv
FNDA:4,_ZN32esSenialTEST_secuenciaVacia_TestD1Ev
FNDA:4,_ZN32esSenialTEST_secuenciaVacia_TestD0Ev
FNDA:4,_ZN32esSenialTEST_secuenciaVacia_TestC1Ev
FNDA:4,_ZN32esSenialTEST_secuenciaVacia_TestC2Ev
FNDA:4,_ZN32esSenialTEST_secuenciaVacia_TestD2Ev
FNDA:4,__cxx_global_var_init.59
FNDA:4,_ZN42esSenialTEST_secuenciaDeSolo1Elemento_Test8TestBodyEv
FNDA:4,_ZN42esSenialTEST_secuenciaDeSolo1Elemento_TestD1Ev
FNDA:4,_ZN42esSenialTEST_secuenciaDeSolo1Elemento_TestD0Ev
FNDA:4,_ZN42esSenialTEST_secuenciaDeSolo1Elemento_TestC1Ev
FNDA:4,_ZN42esSenialTEST_secuenciaDeSolo1Elemento_TestC2Ev
FNDA:4,_ZN42esSenialTEST_secuenciaDeSolo1Elemento_TestD2Ev
FNF:140
FNH:140
DA:8,28
DA:9,4
DA:10,4
DA:11,4
DA:13,4
DA:14,4
DA:16,28
DA:17,4
DA:18,4
DA:19,4
DA:21,4
DA:22,4
DA:24,28
DA:25,4
DA:26,4
DA:27,4
DA:29,4
DA:30,4
DA:32,28
DA:33,4
DA:34,4
DA:35,4
DA:37,4
DA:38,4
DA:40,28
DA:41,4
DA:42,4
DA:43,4
DA:45,4
DA:46,4
DA:48,28
DA:49,4
DA:50,4
DA:51,4
DA:53,4
DA:54,4
DA:56,28
DA:57,4
DA:58,4
DA:59,4
DA:61,4
DA:62,4
DA:64,28
DA:65,4
DA:66,4
DA:67,4
DA:69,4
DA:70,4
DA:72,28
DA:73,4
DA:74,4
DA:75,4
DA:77,4
DA:78,4
DA:80,28
DA:81,4
DA:82,4
DA:83,4
DA:85,4
DA:86,4
DA:88,28
DA:90,4
DA:91,4
DA:92,4
DA:94,4
DA:95,4
DA:97,28
DA:98,4
DA:99,4
DA:100,4
DA:102,4
DA:103,4
DA:105,28
DA:107,4
DA:108,4
DA:109,4
DA:111,4
DA:112,4
DA:114,28
DA:115,4
DA:116,4
DA:117,4
DA:119,4
DA:120,4
DA:122,28
DA:123,4
DA:124,4
DA:125,4
DA:127,4
DA:128,4
DA:130,28
DA:131,4
DA:132,4
DA:133,4
DA:135,4
DA:136,4
DA:138,28
DA:139,4
DA:140,4
DA:141,4
DA:143,4
DA:144,4
DA:146,28
DA:147,4
DA:148,4
DA:149,4
DA:151,4
DA:152,4
DA:154,28
DA:155,4
DA:156,4
DA:157,4
DA:159,4
DA:160,4
DA:162,28
DA:163,4
DA:164,4
DA:165,4
DA:167,4
DA:168,4
LF:120
LH:120
end_of_record
TN:
SF:/Library/Developer/CommandLineTools/usr/include/c++/v1/__string
FN:218,_ZNSt3__111char_traitsIcE6lengthEPKc
FNDA:0,_ZNSt3__111char_traitsIcE6lengthEPKc
FNF:1
FNH:0
DA:218,0
LF:1
LH:0
end_of_record
SF:/Library/Developer/CommandLineTools/usr/include/c++/v1/algorithm
FN:716,_ZNKSt3__16__lessImmEclERKmS3_
FN:2454,_ZNSt3__1L3minImNS_6__lessImmEEEERKT_S5_S5_T0_
FN:2462,_ZNSt3__1L3minImEERKT_S3_S3_
FNDA:0,_ZNKSt3__16__lessImmEclERKmS3_
FNDA:0,_ZNSt3__1L3minImNS_6__lessImmEEEERKT_S5_S5_T0_
FNDA:0,_ZNSt3__1L3minImEERKT_S3_S3_
FNF:3
FNH:0
DA:716,0
DA:2454,0
DA:2456,0
DA:2462,0
DA:2464,0
LF:5
LH:0
end_of_record
SF:/Library/Developer/CommandLineTools/usr/include/c++/v1/initializer_list
FN:85,_ZNKSt16initializer_listIiE4sizeEv
FN:85,_ZNKSt16initializer_listINSt3__14pairINS0_6vectorIiNS0_9allocatorIiEEEEiEEE4sizeEv
FN:89,_ZNKSt16initializer_listINSt3__14pairINS0_6vectorIiNS0_9allocatorIiEEEEiEEE5beginEv
FN:89,_ZNKSt16initializer_listIiE5beginEv
FN:93,_ZNKSt16initializer_listINSt3__14pairINS0_6vectorIiNS0_9allocatorIiEEEEiEEE3endEv
FN:93,_ZNKSt16initializer_listIiE3endEv
FNDA:420,_ZNKSt16initializer_listIiE4sizeEv
FNDA:192,_ZNKSt16initializer_listINSt3__14pairINS0_6vectorIiNS0_9allocatorIiEEEEiEEE4sizeEv
FNDA:140,_ZNKSt16initializer_listIiE5beginEv
FNDA:64,_ZNKSt16initializer_listINSt3__14pairINS0_6vectorIiNS0_9allocatorIiEEEEiEEE5beginEv
FNDA:140,_ZNKSt16initializer_listIiE3endEv
FNDA:64,_ZNKSt16initializer_listINSt3__14pairINS0_6vectorIiNS0_9allocatorIiEEEEiEEE3endEv
FNF:6
FNH:6
DA:85,612
DA:89,204
DA:93,204
LF:3
LH:3
end_of_record
SF:/Library/Developer/CommandLineTools/usr/include/c++/v1/limits
FN:215,_ZNSt3__123__libcpp_numeric_limitsIlLb1EE3maxEv
FN:452,_ZNSt3__114numeric_limitsIlE3maxEv
FNDA:0,_ZNSt3__123__libcpp_numeric_limitsIlLb1EE3maxEv
FNDA:0,_ZNSt3__114numeric_limitsIlE3maxEv
FNF:2
FNH:0
DA:215,0
DA:452,0
LF:2
LH:0
end_of_record
SF:/Library/Developer/CommandLineTools/usr/include/c++/v1/memory
FN:1106,_ZNSt3__1L16__to_raw_pointerINS_4pairINS_6vectorIiNS_9allocatorIiEEEEiEEEEPT_S8_
FN:1106,_ZNSt3__1L16__to_raw_pointerIiEEPT_S2_
FN:1546,_ZNSt3__116allocator_traitsINS_9allocatorINS_4pairINS_6vectorIiNS1_IiEEEEiEEEEE8allocateERS7_m
FN:1546,_ZNSt3__116allocator_traitsINS_9allocatorIiEEE8allocateERS2_m
FN:1554,_ZNSt3__116allocator_traitsINS_9allocatorINS_4pairINS_6vectorIiNS1_IiEEEEiEEEEE10deallocateERS7_PS6_m
FN:1554,_ZNSt3__116allocator_traitsINS_9allocatorIiEEE10deallocateERS2_Pim
FN:1560,_ZNSt3__116allocator_traitsINS_9allocatorINS_4pairINS_6vectorIiNS1_IiEEEEiEEEEE9constructIS6_JRS6_EEEvRS7_PT_DpOT0_
FN:1560,_ZNSt3__116allocator_traitsINS_9allocatorINS_4pairINS_6vectorIiNS1_IiEEEEiEEEEE9constructIS6_JRKS6_EEEvRS7_PT_DpOT0_
FN:1595,_ZNSt3__116allocator_traitsINS_9allocatorINS_4pairINS_6vectorIiNS1_IiEEEEiEEEEE7destroyIS6_EEvRS7_PT_
FN:1595,_ZNSt3__116allocator_traitsINS_9allocatorIiEEE7destroyIiEEvRS2_PT_
FN:1599,_ZNSt3__116allocator_traitsINS_9allocatorINS_4pairINS_6vectorIiNS1_IiEEEEiEEEEE8max_sizeERKS7_
FN:1599,_ZNSt3__116allocator_traitsINS_9allocatorIiEEE8max_sizeERKS2_
FN:1604,_ZNSt3__116allocator_traitsINS_9allocatorIiEEE37select_on_container_copy_constructionERKS2_
FN:1604,_ZNSt3__116allocator_traitsINS_9allocatorINS_4pairINS_6vectorIiNS1_IiEEEEiEEEEE37select_on_container_copy_constructionERKS7_
FN:1643,_ZNSt3__116allocator_traitsINS_9allocatorINS_4pairINS_6vectorIiNS1_IiEEEEiEEEEE25__construct_range_forwardIPS6_SA_EEvRS7_T_SC_RT0_
FN:1643,_ZNSt3__116allocator_traitsINS_9allocatorINS_4pairINS_6vectorIiNS1_IiEEEEiEEEEE25__construct_range_forwardIPKS6_PS6_EEvRS7_T_SE_RT0_
FN:1662,_ZNSt3__116allocator_traitsINS_9allocatorIiEEE25__construct_range_forwardIKiiiiEENS_9enable_ifIXaaaasr31is_trivially_move_constructibleIT0_EE5valuesr7is_sameIT1_T2_EE5valueooL_ZNS_17integral_constantIbLb1EE5valueEEntsr15__has_constructIS2_PS7_RT_EE5valueEvE4typeERS2_PSD_SI_RSC_
FN:1662,_ZNSt3__116allocator_traitsINS_9allocatorIiEEE25__construct_range_forwardIiiiiEENS_9enable_ifIXaaaasr31is_trivially_move_constructibleIT0_EE5valuesr7is_sameIT1_T2_EE5valueooL_ZNS_17integral_constantIbLb1EE5valueEEntsr15__has_constructIS2_PS6_RT_EE5valueEvE4typeERS2_PSC_SH_RSB_
FN:1717,_ZNSt3__116allocator_traitsINS_9allocatorINS_4pairINS_6vectorIiNS1_IiEEEEiEEEEE11__constructIS6_JRKS6_EEEvNS_17integral_constantIbLb1EEERS7_PT_DpOT0_
FN:1717,_ZNSt3__116allocator_traitsINS_9allocatorINS_4pairINS_6vectorIiNS1_IiEEEEiEEEEE11__constructIS6_JRS6_EEEvNS_17integral_constantIbLb1EEERS7_PT_DpOT0_
FN:1742,_ZNSt3__116allocator_traitsINS_9allocatorINS_4pairINS_6vectorIiNS1_IiEEEEiEEEEE9__destroyIS6_EEvNS_17integral_constantIbLb1EEERS7_PT_
FN:1742,_ZNSt3__116allocator_traitsINS_9allocatorIiEEE9__destroyIiEEvNS_17integral_constantIbLb1EEERS2_PT_
FN:1752,_ZNSt3__116allocator_traitsINS_9allocatorIiEEE10__max_sizeENS_17integral_constantIbLb1EEERKS2_
FN:1752,_ZNSt3__116allocator_traitsINS_9allocatorINS_4pairINS_6vectorIiNS1_IiEEEEiEEEEE10__max_sizeENS_17integral_constantIbLb1EEERKS7_
FN:1764,_ZNSt3__116allocator_traitsINS_9allocatorINS_4pairINS_6vectorIiNS1_IiEEEEiEEEEE39__select_on_container_copy_constructionENS_17integral_constantIbLb0EEERKS7_
FN:1764,_ZNSt3__116allocator_traitsINS_9allocatorIiEEE39__select_on_container_copy_constructionENS_17integral_constantIbLb0EEERKS2_
FN:1798,_ZNSt3__19allocatorIiEC2Ev
FN:1798,_ZNSt3__19allocatorINS_4pairINS_6vectorIiNS0_IiEEEEiEEEC2Ev
FN:1798,_ZNSt3__19allocatorIcEC2Ev
FN:1809,_ZNSt3__19allocatorINS_4pairINS_6vectorIiNS0_IiEEEEiEEE8allocateEmPKv
FN:1809,_ZNSt3__19allocatorIiE8allocateEmPKv
FN:1816,_ZNSt3__19allocatorIiE10deallocateEPim
FN:1816,_ZNSt3__19allocatorINS_4pairINS_6vectorIiNS0_IiEEEEiEEE10deallocateEPS5_m
FN:1818,_ZNKSt3__19allocatorIiE8max_sizeEv
FN:1818,_ZNKSt3__19allocatorINS_4pairINS_6vectorIiNS0_IiEEEEiEEE8max_sizeEv
FN:1824,_ZNSt3__19allocatorINS_4pairINS_6vectorIiNS0_IiEEEEiEEE9constructIS5_JRKS5_EEEvPT_DpOT0_
FN:1824,_ZNSt3__19allocatorINS_4pairINS_6vectorIiNS0_IiEEEEiEEE9constructIS5_JRS5_EEEvPT_DpOT0_
FN:1881,_ZNSt3__19allocatorINS_4pairINS_6vectorIiNS0_IiEEEEiEEE7destroyEPS5_
FN:1881,_ZNSt3__19allocatorIiE7destroyEPi
FN:2140,_ZNSt3__122__compressed_pair_elemINS_12basic_stringIcNS_11char_traitsIcEENS_9allocatorIcEEE5__repELi0ELb0EEC2Ev
FN:2147,_ZNSt3__122__compressed_pair_elemIPNS_4pairINS_6vectorIiNS_9allocatorIiEEEEiEELi0ELb0EEC2IDnvEEOT_
FN:2147,_ZNSt3__122__compressed_pair_elemIPiLi0ELb0EEC2IDnvEEOT_
FN:2163,_ZNSt3__122__compressed_pair_elemIPiLi0ELb0EE5__getEv
FN:2163,_ZNSt3__122__compressed_pair_elemIPNS_4pairINS_6vectorIiNS_9allocatorIiEEEEiEELi0ELb0EE5__getEv
FN:2165,_ZNKSt3__122__compressed_pair_elemIPNS_4pairINS_6vectorIiNS_9allocatorIiEEEEiEELi0ELb0EE5__getEv
FN:2165,_ZNKSt3__122__compressed_pair_elemIPiLi0ELb0EE5__getEv
FN:2179,_ZNSt3__122__compressed_pair_elemINS_9allocatorINS_4pairINS_6vectorIiNS1_IiEEEEiEEEELi1ELb1EEC2Ev
FN:2179,_ZNSt3__122__compressed_pair_elemINS_9allocatorIcEELi1ELb1EEC2Ev
FN:2179,_ZNSt3__122__compressed_pair_elemINS_9allocatorIiEELi1ELb1EEC2Ev
FN:2186,_ZNSt3__122__compressed_pair_elemINS_9allocatorIiEELi1ELb1EEC2IS2_vEEOT_
FN:2186,_ZNSt3__122__compressed_pair_elemINS_9allocatorINS_4pairINS_6vectorIiNS1_IiEEEEiEEEELi1ELb1EEC2IS7_vEEOT_
FN:2202,_ZNSt3__122__compressed_pair_elemINS_9allocatorINS_4pairINS_6vectorIiNS1_IiEEEEiEEEELi1ELb1EE5__getEv
FN:2202,_ZNSt3__122__compressed_pair_elemINS_9allocatorIiEELi1ELb1EE5__getEv
FN:2204,_ZNKSt3__122__compressed_pair_elemINS_9allocatorINS_4pairINS_6vectorIiNS1_IiEEEEiEEEELi1ELb1EE5__getEv
FN:2204,_ZNKSt3__122__compressed_pair_elemINS_9allocatorIiEELi1ELb1EE5__getEv
FN:2234,_ZNSt3__117__compressed_pairINS_12basic_stringIcNS_11char_traitsIcEENS_9allocatorIcEEE5__repES5_EC1ILb1EvEEv
FN:2234,_ZNSt3__117__compressed_pairINS_12basic_stringIcNS_11char_traitsIcEENS_9allocatorIcEEE5__repES5_EC2ILb1EvEEv
FN:2240,_ZNSt3__117__compressed_pairIPNS_4pairINS_6vectorIiNS_9allocatorIiEEEEiEENS3_IS6_EEEC1IDnLb1EEEOT_
FN:2240,_ZNSt3__117__compressed_pairIPiNS_9allocatorIiEEEC2IDnLb1EEEOT_
FN:2240,_ZNSt3__117__compressed_pairIPNS_4pairINS_6vectorIiNS_9allocatorIiEEEEiEENS3_IS6_EEEC2IDnLb1EEEOT_
FN:2240,_ZNSt3__117__compressed_pairIPiNS_9allocatorIiEEEC1IDnLb1EEEOT_
FN:2250,_ZNSt3__117__compressed_pairIPNS_4pairINS_6vectorIiNS_9allocatorIiEEEEiEENS3_IS6_EEEC2IDnS8_EEOT_OT0_
FN:2250,_ZNSt3__117__compressed_pairIPNS_4pairINS_6vectorIiNS_9allocatorIiEEEEiEENS3_IS6_EEEC1IDnS8_EEOT_OT0_
FN:2250,_ZNSt3__117__compressed_pairIPiNS_9allocatorIiEEEC2IDnS3_EEOT_OT0_
FN:2250,_ZNSt3__117__compressed_pairIPiNS_9allocatorIiEEEC1IDnS3_EEOT_OT0_
FN:2279,_ZNSt3__117__compressed_pairIPNS_4pairINS_6vectorIiNS_9allocatorIiEEEEiEENS3_IS6_EEE5firstEv
FN:2279,_ZNSt3__117__compressed_pairIPiNS_9allocatorIiEEE5firstEv
FN:2284,_ZNKSt3__117__compressed_pairIPiNS_9allocatorIiEEE5firstEv
FN:2284,_ZNKSt3__117__compressed_pairIPNS_4pairINS_6vectorIiNS_9allocatorIiEEEEiEENS3_IS6_EEE5firstEv
FN:2289,_ZNSt3__117__compressed_pairIPNS_4pairINS_6vectorIiNS_9allocatorIiEEEEiEENS3_IS6_EEE6secondEv
FN:2289,_ZNSt3__117__compressed_pairIPiNS_9allocatorIiEEE6secondEv
FN:2294,_ZNKSt3__117__compressed_pairIPNS_4pairINS_6vectorIiNS_9allocatorIiEEEEiEENS3_IS6_EEE6secondEv
FN:2294,_ZNKSt3__117__compressed_pairIPiNS_9allocatorIiEEE6secondEv
FNDA:576,_ZNSt3__1L16__to_raw_pointerIiEEPT_S2_
FNDA:512,_ZNSt3__1L16__to_raw_pointerINS_4pairINS_6vectorIiNS_9allocatorIiEEEEiEEEEPT_S8_
FNDA:0,_ZNSt3__116allocator_traitsINS_9allocatorIiEEE8allocateERS2_m
FNDA:0,_ZNSt3__116allocator_traitsINS_9allocatorINS_4pairINS_6vectorIiNS1_IiEEEEiEEEEE8allocateERS7_m
FNDA:0,_ZNSt3__116allocator_traitsINS_9allocatorIiEEE10deallocateERS2_Pim
FNDA:0,_ZNSt3__116allocator_traitsINS_9allocatorINS_4pairINS_6vectorIiNS1_IiEEEEiEEEEE10deallocateERS7_PS6_m
FNDA:0,_ZNSt3__116allocator_traitsINS_9allocatorINS_4pairINS_6vectorIiNS1_IiEEEEiEEEEE9constructIS6_JRKS6_EEEvRS7_PT_DpOT0_
FNDA:0,_ZNSt3__116allocator_traitsINS_9allocatorINS_4pairINS_6vectorIiNS1_IiEEEEiEEEEE9constructIS6_JRS6_EEEvRS7_PT_DpOT0_
FNDA:0,_ZNSt3__116allocator_traitsINS_9allocatorIiEEE7destroyIiEEvRS2_PT_
FNDA:0,_ZNSt3__116allocator_traitsINS_9allocatorINS_4pairINS_6vectorIiNS1_IiEEEEiEEEEE7destroyIS6_EEvRS7_PT_
FNDA:0,_ZNSt3__116allocator_traitsINS_9allocatorIiEEE8max_sizeERKS2_
FNDA:0,_ZNSt3__116allocator_traitsINS_9allocatorINS_4pairINS_6vectorIiNS1_IiEEEEiEEEEE8max_sizeERKS7_
FNDA:0,_ZNSt3__116allocator_traitsINS_9allocatorIiEEE37select_on_container_copy_constructionERKS2_
FNDA:0,_ZNSt3__116allocator_traitsINS_9allocatorINS_4pairINS_6vectorIiNS1_IiEEEEiEEEEE37select_on_container_copy_constructionERKS7_
FNDA:0,_ZNSt3__116allocator_traitsINS_9allocatorINS_4pairINS_6vectorIiNS1_IiEEEEiEEEEE25__construct_range_forwardIPKS6_PS6_EEvRS7_T_SE_RT0_
FNDA:0,_ZNSt3__116allocator_traitsINS_9allocatorINS_4pairINS_6vectorIiNS1_IiEEEEiEEEEE25__construct_range_forwardIPS6_SA_EEvRS7_T_SC_RT0_
FNDA:0,_ZNSt3__116allocator_traitsINS_9allocatorIiEEE25__construct_range_forwardIKiiiiEENS_9enable_ifIXaaaasr31is_trivially_move_constructibleIT0_EE5valuesr7is_sameIT1_T2_EE5valueooL_ZNS_17integral_constantIbLb1EE5valueEEntsr15__has_constructIS2_PS7_RT_EE5valueEvE4typeERS2_PSD_SI_RSC_
FNDA:0,_ZNSt3__116allocator_traitsINS_9allocatorIiEEE25__construct_range_forwardIiiiiEENS_9enable_ifIXaaaasr31is_trivially_move_constructibleIT0_EE5valuesr7is_sameIT1_T2_EE5valueooL_ZNS_17integral_constantIbLb1EE5valueEEntsr15__has_constructIS2_PS6_RT_EE5valueEvE4typeERS2_PSC_SH_RSB_
FNDA:0,_ZNSt3__116allocator_traitsINS_9allocatorINS_4pairINS_6vectorIiNS1_IiEEEEiEEEEE11__constructIS6_JRKS6_EEEvNS_17integral_constantIbLb1EEERS7_PT_DpOT0_
FNDA:0,_ZNSt3__116allocator_traitsINS_9allocatorINS_4pairINS_6vectorIiNS1_IiEEEEiEEEEE11__constructIS6_JRS6_EEEvNS_17integral_constantIbLb1EEERS7_PT_DpOT0_
FNDA:0,_ZNSt3__116allocator_traitsINS_9allocatorIiEEE9__destroyIiEEvNS_17integral_constantIbLb1EEERS2_PT_
FNDA:0,_ZNSt3__116allocator_traitsINS_9allocatorINS_4pairINS_6vectorIiNS1_IiEEEEiEEEEE9__destroyIS6_EEvNS_17integral_constantIbLb1EEERS7_PT_
FNDA:0,_ZNSt3__116allocator_traitsINS_9allocatorIiEEE10__max_sizeENS_17integral_constantIbLb1EEERKS2_
FNDA:0,_ZNSt3__116allocator_traitsINS_9allocatorINS_4pairINS_6vectorIiNS1_IiEEEEiEEEEE10__max_sizeENS_17integral_constantIbLb1EEERKS7_
FNDA:0,_ZNSt3__116allocator_traitsINS_9allocatorIiEEE39__select_on_container_copy_constructionENS_17integral_constantIbLb0EEERKS2_
FNDA:0,_ZNSt3__116allocator_traitsINS_9allocatorINS_4pairINS_6vectorIiNS1_IiEEEEiEEEEE39__select_on_container_copy_constructionENS_17integral_constantIbLb0EEERKS7_
FNDA:32,_ZNSt3__19allocatorIcEC2Ev
FNDA:144,_ZNSt3__19allocatorIiEC2Ev
FNDA:64,_ZNSt3__19allocatorINS_4pairINS_6vectorIiNS0_IiEEEEiEEEC2Ev
FNDA:0,_ZNSt3__19allocatorIiE8allocateEmPKv
FNDA:0,_ZNSt3__19allocatorINS_4pairINS_6vectorIiNS0_IiEEEEiEEE8allocateEmPKv
FNDA:0,_ZNSt3__19allocatorIiE10deallocateEPim
FNDA:0,_ZNSt3__19allocatorINS_4pairINS_6vectorIiNS0_IiEEEEiEEE10deallocateEPS5_m
FNDA:0,_ZNKSt3__19allocatorIiE8max_sizeEv
FNDA:0,_ZNKSt3__19allocatorINS_4pairINS_6vectorIiNS0_IiEEEEiEEE8max_sizeEv
FNDA:0,_ZNSt3__19allocatorINS_4pairINS_6vectorIiNS0_IiEEEEiEEE9constructIS5_JRKS5_EEEvPT_DpOT0_
FNDA:0,_ZNSt3__19allocatorINS_4pairINS_6vectorIiNS0_IiEEEEiEEE9constructIS5_JRS5_EEEvPT_DpOT0_
FNDA:0,_ZNSt3__19allocatorIiE7destroyEPi
FNDA:0,_ZNSt3__19allocatorINS_4pairINS_6vectorIiNS0_IiEEEEiEEE7destroyEPS5_
FNDA:32,_ZNSt3__122__compressed_pair_elemINS_12basic_stringIcNS_11char_traitsIcEENS_9allocatorIcEEE5__repELi0ELb0EEC2Ev
FNDA:144,_ZNSt3__122__compressed_pair_elemIPiLi0ELb0EEC2IDnvEEOT_
FNDA:64,_ZNSt3__122__compressed_pair_elemIPNS_4pairINS_6vectorIiNS_9allocatorIiEEEEiEELi0ELb0EEC2IDnvEEOT_
FNDA:0,_ZNSt3__122__compressed_pair_elemIPiLi0ELb0EE5__getEv
FNDA:0,_ZNSt3__122__compressed_pair_elemIPNS_4pairINS_6vectorIiNS_9allocatorIiEEEEiEELi0ELb0EE5__getEv
FNDA:288,_ZNKSt3__122__compressed_pair_elemIPiLi0ELb0EE5__getEv
FNDA:256,_ZNKSt3__122__compressed_pair_elemIPNS_4pairINS_6vectorIiNS_9allocatorIiEEEEiEELi0ELb0EE5__getEv
FNDA:32,_ZNSt3__122__compressed_pair_elemINS_9allocatorIcEELi1ELb1EEC2Ev
FNDA:144,_ZNSt3__122__compressed_pair_elemINS_9allocatorIiEELi1ELb1EEC2Ev
FNDA:64,_ZNSt3__122__compressed_pair_elemINS_9allocatorINS_4pairINS_6vectorIiNS1_IiEEEEiEEEELi1ELb1EEC2Ev
FNDA:0,_ZNSt3__122__compressed_pair_elemINS_9allocatorIiEELi1ELb1EEC2IS2_vEEOT_
FNDA:0,_ZNSt3__122__compressed_pair_elemINS_9allocatorINS_4pairINS_6vectorIiNS1_IiEEEEiEEEELi1ELb1EEC2IS7_vEEOT_
FNDA:0,_ZNSt3__122__compressed_pair_elemINS_9allocatorIiEELi1ELb1EE5__getEv
FNDA:0,_ZNSt3__122__compressed_pair_elemINS_9allocatorINS_4pairINS_6vectorIiNS1_IiEEEEiEEEELi1ELb1EE5__getEv
FNDA:0,_ZNKSt3__122__compressed_pair_elemINS_9allocatorIiEELi1ELb1EE5__getEv
FNDA:0,_ZNKSt3__122__compressed_pair_elemINS_9allocatorINS_4pairINS_6vectorIiNS1_IiEEEEiEEEELi1ELb1EE5__getEv
FNDA:32,_ZNSt3__117__compressed_pairINS_12basic_stringIcNS_11char_traitsIcEENS_9allocatorIcEEE5__repES5_EC1ILb1EvEEv
FNDA:32,_ZNSt3__117__compressed_pairINS_12basic_stringIcNS_11char_traitsIcEENS_9allocatorIcEEE5__repES5_EC2ILb1EvEEv
FNDA:144,_ZNSt3__117__compressed_pairIPiNS_9allocatorIiEEEC1IDnLb1EEEOT_
FNDA:144,_ZNSt3__117__compressed_pairIPiNS_9allocatorIiEEEC2IDnLb1EEEOT_
FNDA:64,_ZNSt3__117__compressed_pairIPNS_4pairINS_6vectorIiNS_9allocatorIiEEEEiEENS3_IS6_EEEC1IDnLb1EEEOT_
FNDA:64,_ZNSt3__117__compressed_pairIPNS_4pairINS_6vectorIiNS_9allocatorIiEEEEiEENS3_IS6_EEEC2IDnLb1EEEOT_
FNDA:0,_ZNSt3__117__compressed_pairIPiNS_9allocatorIiEEEC1IDnS3_EEOT_OT0_
FNDA:0,_ZNSt3__117__compressed_pairIPiNS_9allocatorIiEEEC2IDnS3_EEOT_OT0_
FNDA:0,_ZNSt3__117__compressed_pairIPNS_4pairINS_6vectorIiNS_9allocatorIiEEEEiEENS3_IS6_EEEC1IDnS8_EEOT_OT0_
FNDA:0,_ZNSt3__117__compressed_pairIPNS_4pairINS_6vectorIiNS_9allocatorIiEEEEiEENS3_IS6_EEEC2IDnS8_EEOT_OT0_
FNDA:0,_ZNSt3__117__compressed_pairIPiNS_9allocatorIiEEE5firstEv
FNDA:0,_ZNSt3__117__compressed_pairIPNS_4pairINS_6vectorIiNS_9allocatorIiEEEEiEENS3_IS6_EEE5firstEv
FNDA:288,_ZNKSt3__117__compressed_pairIPiNS_9allocatorIiEEE5firstEv
FNDA:256,_ZNKSt3__117__compressed_pairIPNS_4pairINS_6vectorIiNS_9allocatorIiEEEEiEENS3_IS6_EEE5firstEv
FNDA:0,_ZNSt3__117__compressed_pairIPiNS_9allocatorIiEEE6secondEv
FNDA:0,_ZNSt3__117__compressed_pairIPNS_4pairINS_6vectorIiNS_9allocatorIiEEEEiEENS3_IS6_EEE6secondEv
FNDA:0,_ZNKSt3__117__compressed_pairIPiNS_9allocatorIiEEE6secondEv
FNDA:0,_ZNKSt3__117__compressed_pairIPNS_4pairINS_6vectorIiNS_9allocatorIiEEEEiEENS3_IS6_EEE6secondEv
FNF:73
FNH:21
DA:1106,1088
DA:1108,1088
DA:1546,0
DA:1547,0
DA:1554,0
DA:1555,0
DA:1560,0
DA:1561,0
DA:1562,0
DA:1595,0
DA:1596,0
DA:1599,0
DA:1600,0
DA:1604,0
DA:1605,0
DA:1606,0
DA:1607,0
DA:1643,0
DA:1645,0
DA:1646,0
DA:1647,0
DA:1662,0
DA:1664,0
DA:1665,0
DA:1667,0
DA:1668,0
DA:1669,0
DA:1670,0
DA:1717,0
DA:1718,0
DA:1742,0
DA:1743,0
DA:1752,0
DA:1753,0
DA:1764,0
DA:1765,0
DA:1798,240
DA:1809,0
DA:1811,0
DA:1812,0
DA:1814,0
DA:1816,0
DA:1817,0
DA:1818,0
DA:1819,0
DA:1824,0
DA:1826,0
DA:1827,0
DA:1881,0
DA:2140,32
DA:2147,208
DA:2148,208
DA:2150,208
DA:2163,0
DA:2165,544
DA:2179,240
DA:2186,0
DA:2187,0
DA:2188,0
DA:2202,0
DA:2204,0
DA:2234,64
DA:2240,416
DA:2241,416
DA:2250,0
DA:2251,0
DA:2279,0
DA:2280,0
DA:2284,544
DA:2285,544
DA:2289,0
DA:2290,0
DA:2294,0
DA:2295,0
LF:74
LH:14
end_of_record
SF:/Library/Developer/CommandLineTools/usr/include/c++/v1/new
FN:223,_ZNSt3__1L17__libcpp_allocateEmm
FN:245,_ZNSt3__117_DeallocateCaller33__do_deallocate_handle_size_alignEPvmm
FN:275,_ZNSt3__117_DeallocateCaller27__do_deallocate_handle_sizeEPvm
FN:316,_ZNSt3__117_DeallocateCaller9__do_callEPv
FN:325,_ZNSt3__1L19__libcpp_deallocateEPvmm
FNDA:0,_ZNSt3__1L17__libcpp_allocateEmm
FNDA:0,_ZNSt3__117_DeallocateCaller33__do_deallocate_handle_size_alignEPvmm
FNDA:0,_ZNSt3__117_DeallocateCaller27__do_deallocate_handle_sizeEPvm
FNDA:0,_ZNSt3__117_DeallocateCaller9__do_callEPv
FNDA:0,_ZNSt3__1L19__libcpp_deallocateEPvmm
FNF:5
FNH:0
DA:223,0
DA:239,0
DA:245,0
DA:248,0
DA:275,0
DA:278,0
DA:316,0
DA:320,0
DA:325,0
DA:326,0
DA:327,0
LF:11
LH:0
end_of_record
SF:/Library/Developer/CommandLineTools/usr/include/c++/v1/stdexcept
FN:136,_ZNSt12length_errorC1EPKc
FN:136,_ZNSt12length_errorC2EPKc
FN:222,_ZNSt3__1L20__throw_length_errorEPKc
FNDA:0,_ZNSt12length_errorC1EPKc
FNDA:0,_ZNSt12length_errorC2EPKc
FNDA:0,_ZNSt3__1L20__throw_length_errorEPKc
FNF:3
FNH:0
DA:136,0
DA:222,0
DA:225,0
DA:230,0
LF:4
LH:0
end_of_record
SF:/Library/Developer/CommandLineTools/usr/include/c++/v1/string
FN:818,_ZNSt3__112basic_stringIcNS_11char_traitsIcEENS_9allocatorIcEEEC1IDnEEPKc
FN:818,_ZNSt3__112basic_stringIcNS_11char_traitsIcEENS_9allocatorIcEEEC2IDnEEPKc
FNDA:32,_ZNSt3__112basic_stringIcNS_11char_traitsIcEENS_9allocatorIcEEEC1IDnEEPKc
FNDA:32,_ZNSt3__112basic_stringIcNS_11char_traitsIcEENS_9allocatorIcEEEC2IDnEEPKc
FNF:2
FNH:2
DA:818,64
DA:820,32
DA:824,64
LF:3
LH:3
end_of_record
SF:/Library/Developer/CommandLineTools/usr/include/c++/v1/type_traits
FN:2310,_ZNSt3__1L4moveIRNS_9allocatorINS_4pairINS_6vectorIiNS1_IiEEEEiEEEEEEONS_16remove_referenceIT_E4typeEOSA_
FN:2310,_ZNSt3__1L4moveIRNS_9allocatorIiEEEEONS_16remove_referenceIT_E4typeEOS5_
FN:2319,_ZNSt3__1L7forwardINS_9allocatorIiEEEEOT_RNS_16remove_referenceIS3_E4typeE
FN:2319,_ZNSt3__1L7forwardINS_9allocatorINS_4pairINS_6vectorIiNS1_IiEEEEiEEEEEEOT_RNS_16remove_referenceIS8_E4typeE
FN:2319,_ZNSt3__1L7forwardIRKNS_4pairINS_6vectorIiNS_9allocatorIiEEEEiEEEEOT_RNS_16remove_referenceIS9_E4typeE
FN:2319,_ZNSt3__1L7forwardIDnEEOT_RNS_16remove_referenceIS1_E4typeE
FN:2319,_ZNSt3__1L7forwardIRNS_6vectorIiNS_9allocatorIiEEEEEEOT_RNS_16remove_referenceIS6_E4typeE
FN:2319,_ZNSt3__1L7forwardIRNS_4pairINS_6vectorIiNS_9allocatorIiEEEEiEEEEOT_RNS_16remove_referenceIS8_E4typeE
FN:2319,_ZNSt3__1L7forwardIiEEOT_RNS_16remove_referenceIS1_E4typeE
FNDA:0,_ZNSt3__1L4moveIRNS_9allocatorIiEEEEONS_16remove_referenceIT_E4typeEOS5_
FNDA:0,_ZNSt3__1L4moveIRNS_9allocatorINS_4pairINS_6vectorIiNS1_IiEEEEiEEEEEEONS_16remove_referenceIT_E4typeEOSA_
FNDA:416,_ZNSt3__1L7forwardIDnEEOT_RNS_16remove_referenceIS1_E4typeE
FNDA:576,_ZNSt3__1L7forwardIRNS_6vectorIiNS_9allocatorIiEEEEEEOT_RNS_16remove_referenceIS6_E4typeE
FNDA:576,_ZNSt3__1L7forwardIiEEOT_RNS_16remove_referenceIS1_E4typeE
FNDA:0,_ZNSt3__1L7forwardINS_9allocatorIiEEEEOT_RNS_16remove_referenceIS3_E4typeE
FNDA:0,_ZNSt3__1L7forwardIRKNS_4pairINS_6vectorIiNS_9allocatorIiEEEEiEEEEOT_RNS_16remove_referenceIS9_E4typeE
FNDA:0,_ZNSt3__1L7forwardINS_9allocatorINS_4pairINS_6vectorIiNS1_IiEEEEiEEEEEEOT_RNS_16remove_referenceIS8_E4typeE
FNDA:0,_ZNSt3__1L7forwardIRNS_4pairINS_6vectorIiNS_9allocatorIiEEEEiEEEEOT_RNS_16remove_referenceIS8_E4typeE
FNF:9
FNH:3
DA:2310,0
DA:2313,0
DA:2319,1568
DA:2321,1568
LF:4
LH:2
end_of_record
SF:/Library/Developer/CommandLineTools/usr/include/c++/v1/utility
FN:316,_ZNSt3__14pairINS_6vectorIiNS_9allocatorIiEEEEiED2Ev
FN:316,_ZNSt3__14pairINS_6vectorIiNS_9allocatorIiEEEEiED1Ev
FN:328,_ZNSt3__14pairINS_6vectorIiNS_9allocatorIiEEEEiEC2ERKS5_
FN:328,_ZNSt3__14pairINS_6vectorIiNS_9allocatorIiEEEEiEC1ERKS5_
FN:448,_ZNSt3__14pairINS_6vectorIiNS_9allocatorIiEEEEiEC2IRS4_iLb0EEEOT_OT0_
FN:448,_ZNSt3__14pairINS_6vectorIiNS_9allocatorIiEEEEiEC1IRS4_iLb0EEEOT_OT0_
FN:668,_ZNSt3__1L9make_pairIRNS_6vectorIiNS_9allocatorIiEEEEiEENS_4pairINS_18__unwrap_ref_decayIT_E4typeENS7_IT0_E4typeEEEOS8_OSB_
FNDA:0,_ZNSt3__14pairINS_6vectorIiNS_9allocatorIiEEEEiED1Ev
FNDA:0,_ZNSt3__14pairINS_6vectorIiNS_9allocatorIiEEEEiED2Ev
FNDA:0,_ZNSt3__14pairINS_6vectorIiNS_9allocatorIiEEEEiEC1ERKS5_
FNDA:0,_ZNSt3__14pairINS_6vectorIiNS_9allocatorIiEEEEiEC2ERKS5_
FNDA:288,_ZNSt3__14pairINS_6vectorIiNS_9allocatorIiEEEEiEC1IRS4_iLb0EEEOT_OT0_
FNDA:288,_ZNSt3__14pairINS_6vectorIiNS_9allocatorIiEEEEiEC2IRS4_iLb0EEEOT_OT0_
FNDA:288,_ZNSt3__1L9make_pairIRNS_6vectorIiNS_9allocatorIiEEEEiEENS_4pairINS_18__unwrap_ref_decayIT_E4typeENS7_IT0_E4typeEEEOS8_OSB_
FNF:7
FNH:3
DA:316,0
DA:328,0
DA:448,576
DA:451,576
DA:668,288
DA:670,288
DA:671,288
LF:7
LH:5
end_of_record
SF:/Library/Developer/CommandLineTools/usr/include/c++/v1/vector
FN:304,_ZNSt3__120__vector_base_commonILb1EEC2Ev
FN:348,_ZNSt3__113__vector_baseIiNS_9allocatorIiEEE7__allocEv
FN:348,_ZNSt3__113__vector_baseINS_4pairINS_6vectorIiNS_9allocatorIiEEEEiEENS3_IS6_EEE7__allocEv
FN:351,_ZNKSt3__113__vector_baseINS_4pairINS_6vectorIiNS_9allocatorIiEEEEiEENS3_IS6_EEE7__allocEv
FN:351,_ZNKSt3__113__vector_baseIiNS_9allocatorIiEEE7__allocEv
FN:354,_ZNSt3__113__vector_baseINS_4pairINS_6vectorIiNS_9allocatorIiEEEEiEENS3_IS6_EEE9__end_capEv
FN:354,_ZNSt3__113__vector_baseIiNS_9allocatorIiEEE9__end_capEv
FN:357,_ZNKSt3__113__vector_baseINS_4pairINS_6vectorIiNS_9allocatorIiEEEEiEENS3_IS6_EEE9__end_capEv
FN:357,_ZNKSt3__113__vector_baseIiNS_9allocatorIiEEE9__end_capEv
FN:370,_ZNSt3__113__vector_baseINS_4pairINS_6vectorIiNS_9allocatorIiEEEEiEENS3_IS6_EEE5clearEv
FN:370,_ZNSt3__113__vector_baseIiNS_9allocatorIiEEE5clearEv
FN:372,_ZNKSt3__113__vector_baseIiNS_9allocatorIiEEE8capacityEv
FN:372,_ZNKSt3__113__vector_baseINS_4pairINS_6vectorIiNS_9allocatorIiEEEEiEENS3_IS6_EEE8capacityEv
FN:423,_ZNSt3__113__vector_baseIiNS_9allocatorIiEEE17__destruct_at_endEPi
FN:423,_ZNSt3__113__vector_baseINS_4pairINS_6vectorIiNS_9allocatorIiEEEEiEENS3_IS6_EEE17__destruct_at_endEPS6_
FN:433,_ZNSt3__113__vector_baseIiNS_9allocatorIiEEEC2Ev
FN:433,_ZNSt3__113__vector_baseINS_4pairINS_6vectorIiNS_9allocatorIiEEEEiEENS3_IS6_EEEC2Ev
FN:453,_ZNSt3__113__vector_baseIiNS_9allocatorIiEEEC2EOS2_
FN:453,_ZNSt3__113__vector_baseINS_4pairINS_6vectorIiNS_9allocatorIiEEEEiEENS3_IS6_EEEC2EOS7_
FN:460,_ZNSt3__113__vector_baseINS_4pairINS_6vectorIiNS_9allocatorIiEEEEiEENS3_IS6_EEED2Ev
FN:460,_ZNSt3__113__vector_baseIiNS_9allocatorIiEEED2Ev
FN:496,_ZNSt3__16vectorIiNS_9allocatorIiEEEC2Ev
FN:496,_ZNSt3__16vectorIiNS_9allocatorIiEEEC1Ev
FN:550,_ZNSt3__16vectorINS_4pairINS0_IiNS_9allocatorIiEEEEiEENS2_IS5_EEED2Ev
FN:550,_ZNSt3__16vectorIiNS_9allocatorIiEEED1Ev
FN:550,_ZNSt3__16vectorIiNS_9allocatorIiEEED2Ev
FN:550,_ZNSt3__16vectorINS_4pairINS0_IiNS_9allocatorIiEEEEiEENS2_IS5_EEED1Ev
FN:656,_ZNKSt3__16vectorIiNS_9allocatorIiEEE4sizeEv
FN:656,_ZNKSt3__16vectorINS_4pairINS0_IiNS_9allocatorIiEEEEiEENS2_IS5_EEE4sizeEv
FN:659,_ZNKSt3__16vectorINS_4pairINS0_IiNS_9allocatorIiEEEEiEENS2_IS5_EEE8capacityEv
FN:659,_ZNKSt3__16vectorIiNS_9allocatorIiEEE8capacityEv
FN:698,_ZNKSt3__16vectorINS_4pairINS0_IiNS_9allocatorIiEEEEiEENS2_IS5_EEE4dataEv
FN:698,_ZNKSt3__16vectorIiNS_9allocatorIiEEE4dataEv
FN:862,_ZNKSt3__16vectorIiNS_9allocatorIiEEE31__annotate_contiguous_containerEPKvS5_S5_S5_
FN:862,_ZNKSt3__16vectorINS_4pairINS0_IiNS_9allocatorIiEEEEiEENS2_IS5_EEE31__annotate_contiguous_containerEPKvS9_S9_S9_
FN:866,_ZNKSt3__16vectorIiNS_9allocatorIiEEE14__annotate_newEm
FN:866,_ZNKSt3__16vectorINS_4pairINS0_IiNS_9allocatorIiEEEEiEENS2_IS5_EEE14__annotate_newEm
FN:872,_ZNKSt3__16vectorIiNS_9allocatorIiEEE17__annotate_deleteEv
FN:872,_ZNKSt3__16vectorINS_4pairINS0_IiNS_9allocatorIiEEEEiEENS2_IS5_EEE17__annotate_deleteEv
FN:910,_ZNSt3__16vectorIiNS_9allocatorIiEEE24__RAII_IncreaseAnnotatorC1ERKS3_m
FN:910,_ZNSt3__16vectorIiNS_9allocatorIiEEE24__RAII_IncreaseAnnotatorC2ERKS3_m
FN:910,_ZNSt3__16vectorINS_4pairINS0_IiNS_9allocatorIiEEEEiEENS2_IS5_EEE24__RAII_IncreaseAnnotatorC2ERKS7_m
FN:910,_ZNSt3__16vectorINS_4pairINS0_IiNS_9allocatorIiEEEEiEENS2_IS5_EEE24__RAII_IncreaseAnnotatorC1ERKS7_m
FN:911,_ZNSt3__16vectorIiNS_9allocatorIiEEE24__RAII_IncreaseAnnotator6__doneEv
FN:911,_ZNSt3__16vectorINS_4pairINS0_IiNS_9allocatorIiEEEEiEENS2_IS5_EEE24__RAII_IncreaseAnnotator6__doneEv
FN:973,_ZNSt3__16vectorINS_4pairINS0_IiNS_9allocatorIiEEEEiEENS2_IS5_EEE11__vallocateEm
FN:973,_ZNSt3__16vectorIiNS_9allocatorIiEEE11__vallocateEm
FN:996,_ZNKSt3__16vectorIiNS_9allocatorIiEEE8max_sizeEv
FN:996,_ZNKSt3__16vectorINS_4pairINS0_IiNS_9allocatorIiEEEEiEENS2_IS5_EEE8max_sizeEv
FN:1066,_ZNSt3__16vectorIiNS_9allocatorIiEEE18__construct_at_endIPiEENS_9enable_ifIXsr21__is_forward_iteratorIT_EE5valueEvE4typeES7_S7_m
FN:1066,_ZNSt3__16vectorINS_4pairINS0_IiNS_9allocatorIiEEEEiEENS2_IS5_EEE18__construct_at_endIPKS5_EENS_9enable_ifIXsr21__is_forward_iteratorIT_EE5valueEvE4typeESC_SC_m
FN:1066,_ZNSt3__16vectorIiNS_9allocatorIiEEE18__construct_at_endIPKiEENS_9enable_ifIXsr21__is_forward_iteratorIT_EE5valueEvE4typeES8_S8_m
FN:1066,_ZNSt3__16vectorINS_4pairINS0_IiNS_9allocatorIiEEEEiEENS2_IS5_EEE18__construct_at_endIPS5_EENS_9enable_ifIXsr21__is_forward_iteratorIT_EE5valueEvE4typeESB_SB_m
FN:1243,_ZNSt3__16vectorINS_4pairINS0_IiNS_9allocatorIiEEEEiEENS2_IS5_EEEC1ERKS7_
FN:1243,_ZNSt3__16vectorIiNS_9allocatorIiEEEC2ERKS3_
FN:1243,_ZNSt3__16vectorIiNS_9allocatorIiEEEC1ERKS3_
FN:1243,_ZNSt3__16vectorINS_4pairINS0_IiNS_9allocatorIiEEEEiEENS2_IS5_EEEC2ERKS7_
FN:1321,_ZNSt3__16vectorIiNS_9allocatorIiEEEC1ESt16initializer_listIiE
FN:1321,_ZNSt3__16vectorINS_4pairINS0_IiNS_9allocatorIiEEEEiEENS2_IS5_EEEC1ESt16initializer_listIS5_E
FN:1321,_ZNSt3__16vectorIiNS_9allocatorIiEEEC2ESt16initializer_listIiE
FN:1321,_ZNSt3__16vectorINS_4pairINS0_IiNS_9allocatorIiEEEEiEENS2_IS5_EEEC2ESt16initializer_listIS5_E
FNDA:208,_ZNSt3__120__vector_base_commonILb1EEC2Ev
FNDA:0,_ZNSt3__113__vector_baseIiNS_9allocatorIiEEE7__allocEv
FNDA:0,_ZNSt3__113__vector_baseINS_4pairINS_6vectorIiNS_9allocatorIiEEEEiEENS3_IS6_EEE7__allocEv
FNDA:0,_ZNKSt3__113__vector_baseIiNS_9allocatorIiEEE7__allocEv
FNDA:0,_ZNKSt3__113__vector_baseINS_4pairINS_6vectorIiNS_9allocatorIiEEEEiEENS3_IS6_EEE7__allocEv
FNDA:0,_ZNSt3__113__vector_baseIiNS_9allocatorIiEEE9__end_capEv
FNDA:0,_ZNSt3__113__vector_baseINS_4pairINS_6vectorIiNS_9allocatorIiEEEEiEENS3_IS6_EEE9__end_capEv
FNDA:288,_ZNKSt3__113__vector_baseIiNS_9allocatorIiEEE9__end_capEv
FNDA:256,_ZNKSt3__113__vector_baseINS_4pairINS_6vectorIiNS_9allocatorIiEEEEiEENS3_IS6_EEE9__end_capEv
FNDA:0,_ZNSt3__113__vector_baseIiNS_9allocatorIiEEE5clearEv
FNDA:0,_ZNSt3__113__vector_baseINS_4pairINS_6vectorIiNS_9allocatorIiEEEEiEENS3_IS6_EEE5clearEv
FNDA:288,_ZNKSt3__113__vector_baseIiNS_9allocatorIiEEE8capacityEv
FNDA:256,_ZNKSt3__113__vector_baseINS_4pairINS_6vectorIiNS_9allocatorIiEEEEiEENS3_IS6_EEE8capacityEv
FNDA:0,_ZNSt3__113__vector_baseIiNS_9allocatorIiEEE17__destruct_at_endEPi
FNDA:0,_ZNSt3__113__vector_baseINS_4pairINS_6vectorIiNS_9allocatorIiEEEEiEENS3_IS6_EEE17__destruct_at_endEPS6_
FNDA:144,_ZNSt3__113__vector_baseIiNS_9allocatorIiEEEC2Ev
FNDA:64,_ZNSt3__113__vector_baseINS_4pairINS_6vectorIiNS_9allocatorIiEEEEiEENS3_IS6_EEEC2Ev
FNDA:0,_ZNSt3__113__vector_baseIiNS_9allocatorIiEEEC2EOS2_
FNDA:0,_ZNSt3__113__vector_baseINS_4pairINS_6vectorIiNS_9allocatorIiEEEEiEENS3_IS6_EEEC2EOS7_
FNDA:0,_ZNSt3__113__vector_baseIiNS_9allocatorIiEEED2Ev
FNDA:0,_ZNSt3__113__vector_baseINS_4pairINS_6vectorIiNS_9allocatorIiEEEEiEENS3_IS6_EEED2Ev
FNDA:4,_ZNSt3__16vectorIiNS_9allocatorIiEEEC1Ev
FNDA:4,_ZNSt3__16vectorIiNS_9allocatorIiEEEC2Ev
FNDA:128,_ZNSt3__16vectorINS_4pairINS0_IiNS_9allocatorIiEEEEiEENS2_IS5_EEED1Ev
FNDA:144,_ZNSt3__16vectorIiNS_9allocatorIiEEED1Ev
FNDA:144,_ZNSt3__16vectorIiNS_9allocatorIiEEED2Ev
FNDA:128,_ZNSt3__16vectorINS_4pairINS0_IiNS_9allocatorIiEEEEiEENS2_IS5_EEED2Ev
FNDA:144,_ZNKSt3__16vectorIiNS_9allocatorIiEEE4sizeEv
FNDA:128,_ZNKSt3__16vectorINS_4pairINS0_IiNS_9allocatorIiEEEEiEENS2_IS5_EEE4sizeEv
FNDA:288,_ZNKSt3__16vectorIiNS_9allocatorIiEEE8capacityEv
FNDA:256,_ZNKSt3__16vectorINS_4pairINS0_IiNS_9allocatorIiEEEEiEENS2_IS5_EEE8capacityEv
FNDA:576,_ZNKSt3__16vectorIiNS_9allocatorIiEEE4dataEv
FNDA:512,_ZNKSt3__16vectorINS_4pairINS0_IiNS_9allocatorIiEEEEiEENS2_IS5_EEE4dataEv
FNDA:144,_ZNKSt3__16vectorIiNS_9allocatorIiEEE31__annotate_contiguous_containerEPKvS5_S5_S5_
FNDA:128,_ZNKSt3__16vectorINS_4pairINS0_IiNS_9allocatorIiEEEEiEENS2_IS5_EEE31__annotate_contiguous_containerEPKvS9_S9_S9_
FNDA:0,_ZNKSt3__16vectorIiNS_9allocatorIiEEE14__annotate_newEm
FNDA:0,_ZNKSt3__16vectorINS_4pairINS0_IiNS_9allocatorIiEEEEiEENS2_IS5_EEE14__annotate_newEm
FNDA:144,_ZNKSt3__16vectorIiNS_9allocatorIiEEE17__annotate_deleteEv
FNDA:128,_ZNKSt3__16vectorINS_4pairINS0_IiNS_9allocatorIiEEEEiEENS2_IS5_EEE17__annotate_deleteEv
FNDA:0,_ZNSt3__16vectorIiNS_9allocatorIiEEE24__RAII_IncreaseAnnotatorC1ERKS3_m
FNDA:0,_ZNSt3__16vectorIiNS_9allocatorIiEEE24__RAII_IncreaseAnnotatorC2ERKS3_m
FNDA:0,_ZNSt3__16vectorINS_4pairINS0_IiNS_9allocatorIiEEEEiEENS2_IS5_EEE24__RAII_IncreaseAnnotatorC1ERKS7_m
FNDA:0,_ZNSt3__16vectorINS_4pairINS0_IiNS_9allocatorIiEEEEiEENS2_IS5_EEE24__RAII_IncreaseAnnotatorC2ERKS7_m
FNDA:0,_ZNSt3__16vectorIiNS_9allocatorIiEEE24__RAII_IncreaseAnnotator6__doneEv
FNDA:0,_ZNSt3__16vectorINS_4pairINS0_IiNS_9allocatorIiEEEEiEENS2_IS5_EEE24__RAII_IncreaseAnnotator6__doneEv
FNDA:0,_ZNSt3__16vectorIiNS_9allocatorIiEEE11__vallocateEm
FNDA:0,_ZNSt3__16vectorINS_4pairINS0_IiNS_9allocatorIiEEEEiEENS2_IS5_EEE11__vallocateEm
FNDA:0,_ZNKSt3__16vectorIiNS_9allocatorIiEEE8max_sizeEv
FNDA:0,_ZNKSt3__16vectorINS_4pairINS0_IiNS_9allocatorIiEEEEiEENS2_IS5_EEE8max_sizeEv
FNDA:0,_ZNSt3__16vectorIiNS_9allocatorIiEEE18__construct_at_endIPKiEENS_9enable_ifIXsr21__is_forward_iteratorIT_EE5valueEvE4typeES8_S8_m
FNDA:0,_ZNSt3__16vectorIiNS_9allocatorIiEEE18__construct_at_endIPiEENS_9enable_ifIXsr21__is_forward_iteratorIT_EE5valueEvE4typeES7_S7_m
FNDA:0,_ZNSt3__16vectorINS_4pairINS0_IiNS_9allocatorIiEEEEiEENS2_IS5_EEE18__construct_at_endIPKS5_EENS_9enable_ifIXsr21__is_forward_iteratorIT_EE5valueEvE4typeESC_SC_m
FNDA:0,_ZNSt3__16vectorINS_4pairINS0_IiNS_9allocatorIiEEEEiEENS2_IS5_EEE18__construct_at_endIPS5_EENS_9enable_ifIXsr21__is_forward_iteratorIT_EE5valueEvE4typeESB_SB_m
FNDA:0,_ZNSt3__16vectorINS_4pairINS0_IiNS_9allocatorIiEEEEiEENS2_IS5_EEEC1ERKS7_
FNDA:0,_ZNSt3__16vectorIiNS_9allocatorIiEEEC1ERKS3_
FNDA:0,_ZNSt3__16vectorIiNS_9allocatorIiEEEC2ERKS3_
FNDA:0,_ZNSt3__16vectorINS_4pairINS0_IiNS_9allocatorIiEEEEiEENS2_IS5_EEEC2ERKS7_
FNDA:140,_ZNSt3__16vectorIiNS_9allocatorIiEEEC1ESt16initializer_listIiE
FNDA:64,_ZNSt3__16vectorINS_4pairINS0_IiNS_9allocatorIiEEEEiEENS2_IS5_EEEC1ESt16initializer_listIS5_E
FNDA:140,_ZNSt3__16vectorIiNS_9allocatorIiEEEC2ESt16initializer_listIiE
FNDA:64,_ZNSt3__16vectorINS_4pairINS0_IiNS_9allocatorIiEEEEiEENS2_IS5_EEEC2ESt16initializer_listIS5_E
FNF:61
FNH:27
DA:304,208
DA:348,0
DA:349,0
DA:351,0
DA:352,0
DA:354,0
DA:355,0
DA:357,544
DA:358,544
DA:361,208
DA:365,0
DA:370,0
DA:372,544
DA:373,544
DA:423,0
DA:425,0
DA:426,0
DA:427,0
DA:428,0
DA:429,0
DA:433,208
DA:435,208
DA:436,208
DA:437,208
DA:438,208
DA:439,208
DA:453,0
DA:454,0
DA:455,0
DA:456,0
DA:460,0
DA:462,0
DA:464,0
DA:465,0
DA:466,0
DA:467,0
DA:496,8
DA:497,8
DA:501,8
DA:550,544
DA:551,272
DA:552,272
DA:556,544
DA:565,204
DA:656,272
DA:657,272
DA:659,544
DA:660,544
DA:698,1088
DA:699,1088
DA:862,272
DA:863,272
DA:866,0
DA:867,0
DA:868,0
DA:869,0
DA:872,272
DA:873,544
DA:874,272
DA:875,272
DA:910,0
DA:911,0
DA:973,0
DA:975,0
DA:976,0
DA:977,0
DA:978,0
DA:979,0
DA:980,0
DA:996,0
DA:998,0
DA:999,0
DA:1066,0
DA:1068,0
DA:1069,0
DA:1070,0
DA:1071,0
DA:1072,0
DA:1243,0
DA:1244,0
DA:1245,0
DA:1249,0
DA:1250,0
DA:1252,0
DA:1253,0
DA:1254,0
DA:1255,0
DA:1321,408
DA:1322,408
DA:1326,204
DA:1328,204
DA:1329,204
DA:1330,204
DA:1331,408
LF:94
LH:39
end_of_record
SF:/Users/usuario/Desktop/LabAlgo1/tp2/reunionesRemotas/lib/gtest.h
FN:8201,_ZN7testing8internal15TestFactoryBaseD0Ev
FN:8201,_ZN7testing8internal15TestFactoryBaseD2Ev
FN:8201,_ZN7testing8internal15TestFactoryBaseD1Ev
FN:8208,_ZN7testing8internal15TestFactoryBaseC2Ev
FN:8217,_ZN7testing8internal15TestFactoryImplI31ordenarTEST_ordenarValido3_TestEC2Ev
FN:8217,_ZN7testing8internal15TestFactoryImplI30ordenarTEST_ordenarValido_TestED1Ev
FN:8217,_ZN7testing8internal15TestFactoryImplI31ordenarTEST_ordenarValido6_TestED1Ev
FN:8217,_ZN7testing8internal15TestFactoryImplI31ordenarTEST_ordenarValido4_TestED2Ev
FN:8217,_ZN7testing8internal15TestFactoryImplI31ordenarTEST_ordenarValido8_TestED2Ev
FN:8217,_ZN7testing8internal15TestFactoryImplI31ordenarTEST_ordenarValido6_TestEC1Ev
FN:8217,_ZN7testing8internal15TestFactoryImplI31ordenarTEST_ordenarValido3_TestED0Ev
FN:8217,_ZN7testing8internal15TestFactoryImplI31ordenarTEST_ordenarValido4_TestED1Ev
FN:8217,_ZN7testing8internal15TestFactoryImplI30ordenarTEST_ordenarValido_TestEC1Ev
FN:8217,_ZN7testing8internal15TestFactoryImplI31ordenarTEST_ordenarValido8_TestED0Ev
FN:8217,_ZN7testing8internal15TestFactoryImplI31ordenarTEST_ordenarValido7_TestEC1Ev
FN:8217,_ZN7testing8internal15TestFactoryImplI31ordenarTEST_ordenarValido4_TestEC2Ev
FN:8217,_ZN7testing8internal15TestFactoryImplI31ordenarTEST_ordenarValido5_TestED2Ev
FN:8217,_ZN7testing8internal15TestFactoryImplI31ordenarTEST_ordenarValido6_TestED0Ev
FN:8217,_ZN7testing8internal15TestFactoryImplI31ordenarTEST_ordenarValido6_TestEC2Ev
FN:8217,_ZN7testing8internal15TestFactoryImplI31ordenarTEST_ordenarValido2_TestED1Ev
FN:8217,_ZN7testing8internal15TestFactoryImplI31ordenarTEST_ordenarValido7_TestED2Ev
FN:8217,_ZN7testing8internal15TestFactoryImplI30ordenarTEST_ordenarValido_TestEC2Ev
FN:8217,_ZN7testing8internal15TestFactoryImplI31ordenarTEST_ordenarValido4_TestEC1Ev
FN:8217,_ZN7testing8internal15TestFactoryImplI30ordenarTEST_ordenarValido_TestED0Ev
FN:8217,_ZN7testing8internal15TestFactoryImplI31ordenarTEST_ordenarValido2_TestEC2Ev
FN:8217,_ZN7testing8internal15TestFactoryImplI31ordenarTEST_ordenarValido3_TestEC1Ev
FN:8217,_ZN7testing8internal15TestFactoryImplI31ordenarTEST_ordenarValido2_TestEC1Ev
FN:8217,_ZN7testing8internal15TestFactoryImplI31ordenarTEST_ordenarValido8_TestEC1Ev
FN:8217,_ZN7testing8internal15TestFactoryImplI31ordenarTEST_ordenarValido8_TestEC2Ev
FN:8217,_ZN7testing8internal15TestFactoryImplI31ordenarTEST_ordenarValido6_TestED2Ev
FN:8217,_ZN7testing8internal15TestFactoryImplI31ordenarTEST_ordenarValido7_TestEC2Ev
FN:8217,_ZN7testing8internal15TestFactoryImplI31ordenarTEST_ordenarValido8_TestED1Ev
FN:8217,_ZN7testing8internal15TestFactoryImplI31ordenarTEST_ordenarValido2_TestED0Ev
FN:8217,_ZN7testing8internal15TestFactoryImplI31ordenarTEST_ordenarValido3_TestED2Ev
FN:8217,_ZN7testing8internal15TestFactoryImplI31ordenarTEST_ordenarValido3_TestED1Ev
FN:8217,_ZN7testing8internal15TestFactoryImplI31ordenarTEST_ordenarValido7_TestED1Ev
FN:8217,_ZN7testing8internal15TestFactoryImplI31ordenarTEST_ordenarValido5_TestED0Ev
FN:8217,_ZN7testing8internal15TestFactoryImplI31ordenarTEST_ordenarValido4_TestED0Ev
FN:8217,_ZN7testing8internal15TestFactoryImplI31ordenarTEST_ordenarValido5_TestEC2Ev
FN:8217,_ZN7testing8internal15TestFactoryImplI31ordenarTEST_ordenarValido5_TestEC1Ev
FN:8217,_ZN7testing8internal15TestFactoryImplI31ordenarTEST_ordenarValido5_TestED1Ev
FN:8217,_ZN7testing8internal15TestFactoryImplI31ordenarTEST_ordenarValido2_TestED2Ev
FN:8217,_ZN7testing8internal15TestFactoryImplI31ordenarTEST_ordenarValido7_TestED0Ev
FN:8217,_ZN7testing8internal15TestFactoryImplI30ordenarTEST_ordenarValido_TestED2Ev
FN:8219,_ZN7testing8internal15TestFactoryImplI30ordenarTEST_ordenarValido_TestE10CreateTestEv
FN:8219,_ZN7testing8internal15TestFactoryImplI31ordenarTEST_ordenarValido6_TestE10CreateTestEv
FN:8219,_ZN7testing8internal15TestFactoryImplI31ordenarTEST_ordenarValido5_TestE10CreateTestEv
FN:8219,_ZN7testing8internal15TestFactoryImplI31ordenarTEST_ordenarValido7_TestE10CreateTestEv
FN:8219,_ZN7testing8internal15TestFactoryImplI31ordenarTEST_ordenarValido2_TestE10CreateTestEv
FN:8219,_ZN7testing8internal15TestFactoryImplI31ordenarTEST_ordenarValido3_TestE10CreateTestEv
FN:8219,_ZN7testing8internal15TestFactoryImplI31ordenarTEST_ordenarValido4_TestE10CreateTestEv
FN:8219,_ZN7testing8internal15TestFactoryImplI31ordenarTEST_ordenarValido8_TestE10CreateTestEv
FN:8239,_ZN7testing8internal12CodeLocationD2Ev
FN:8239,_ZN7testing8internal12CodeLocationD1Ev
FN:8240,_ZN7testing8internal12CodeLocationC1ERKNSt3__112basic_stringIcNS2_11char_traitsIcEENS2_9allocatorIcEEEEi
FN:8240,_ZN7testing8internal12CodeLocationC2ERKNSt3__112basic_stringIcNS2_11char_traitsIcEENS2_9allocatorIcEEEEi
FN:18988,_ZN7testing4Test13SetUpTestCaseEv
FN:18996,_ZN7testing4Test16TearDownTestCaseEv
FN:19073,_ZN7testing4Test5SetupEv
FNDA:0,_ZN7testing8internal15TestFactoryBaseD1Ev
FNDA:0,_ZN7testing8internal15TestFactoryBaseD0Ev
FNDA:0,_ZN7testing8internal15TestFactoryBaseD2Ev
FNDA:0,_ZN7testing8internal15TestFactoryBaseC2Ev
FNDA:4,_ZN7testing8internal15TestFactoryImplI30ordenarTEST_ordenarValido_TestEC1Ev
FNDA:4,_ZN7testing8internal15TestFactoryImplI31ordenarTEST_ordenarValido2_TestEC1Ev
FNDA:4,_ZN7testing8internal15TestFactoryImplI31ordenarTEST_ordenarValido3_TestEC1Ev
FNDA:4,_ZN7testing8internal15TestFactoryImplI31ordenarTEST_ordenarValido4_TestEC1Ev
FNDA:4,_ZN7testing8internal15TestFactoryImplI31ordenarTEST_ordenarValido5_TestEC1Ev
FNDA:4,_ZN7testing8internal15TestFactoryImplI31ordenarTEST_ordenarValido6_TestEC1Ev
FNDA:4,_ZN7testing8internal15TestFactoryImplI31ordenarTEST_ordenarValido7_TestEC1Ev
FNDA:4,_ZN7testing8internal15TestFactoryImplI31ordenarTEST_ordenarValido8_TestEC1Ev
FNDA:4,_ZN7testing8internal15TestFactoryImplI30ordenarTEST_ordenarValido_TestEC2Ev
FNDA:4,_ZN7testing8internal15TestFactoryImplI30ordenarTEST_ordenarValido_TestED1Ev
FNDA:4,_ZN7testing8internal15TestFactoryImplI30ordenarTEST_ordenarValido_TestED0Ev
FNDA:4,_ZN7testing8internal15TestFactoryImplI30ordenarTEST_ordenarValido_TestED2Ev
FNDA:4,_ZN7testing8internal15TestFactoryImplI31ordenarTEST_ordenarValido2_TestEC2Ev
FNDA:4,_ZN7testing8internal15TestFactoryImplI31ordenarTEST_ordenarValido2_TestED1Ev
FNDA:4,_ZN7testing8internal15TestFactoryImplI31ordenarTEST_ordenarValido2_TestED0Ev
FNDA:4,_ZN7testing8internal15TestFactoryImplI31ordenarTEST_ordenarValido2_TestED2Ev
FNDA:4,_ZN7testing8internal15TestFactoryImplI31ordenarTEST_ordenarValido3_TestEC2Ev
FNDA:4,_ZN7testing8internal15TestFactoryImplI31ordenarTEST_ordenarValido3_TestED1Ev
FNDA:4,_ZN7testing8internal15TestFactoryImplI31ordenarTEST_ordenarValido3_TestED0Ev
FNDA:4,_ZN7testing8internal15TestFactoryImplI31ordenarTEST_ordenarValido3_TestED2Ev
FNDA:4,_ZN7testing8internal15TestFactoryImplI31ordenarTEST_ordenarValido4_TestEC2Ev
FNDA:4,_ZN7testing8internal15TestFactoryImplI31ordenarTEST_ordenarValido4_TestED1Ev
FNDA:4,_ZN7testing8internal15TestFactoryImplI31ordenarTEST_ordenarValido4_TestED0Ev
FNDA:4,_ZN7testing8internal15TestFactoryImplI31ordenarTEST_ordenarValido4_TestED2Ev
FNDA:4,_ZN7testing8internal15TestFactoryImplI31ordenarTEST_ordenarValido5_TestEC2Ev
FNDA:4,_ZN7testing8internal15TestFactoryImplI31ordenarTEST_ordenarValido5_TestED1Ev
FNDA:4,_ZN7testing8internal15TestFactoryImplI31ordenarTEST_ordenarValido5_TestED0Ev
FNDA:4,_ZN7testing8internal15TestFactoryImplI31ordenarTEST_ordenarValido5_TestED2Ev
FNDA:4,_ZN7testing8internal15TestFactoryImplI31ordenarTEST_ordenarValido6_TestEC2Ev
FNDA:4,_ZN7testing8internal15TestFactoryImplI31ordenarTEST_ordenarValido6_TestED1Ev
FNDA:4,_ZN7testing8internal15TestFactoryImplI31ordenarTEST_ordenarValido6_TestED0Ev
FNDA:4,_ZN7testing8internal15TestFactoryImplI31ordenarTEST_ordenarValido6_TestED2Ev
FNDA:4,_ZN7testing8internal15TestFactoryImplI31ordenarTEST_ordenarValido7_TestEC2Ev
FNDA:4,_ZN7testing8internal15TestFactoryImplI31ordenarTEST_ordenarValido7_TestED1Ev
FNDA:4,_ZN7testing8internal15TestFactoryImplI31ordenarTEST_ordenarValido7_TestED0Ev
FNDA:4,_ZN7testing8internal15TestFactoryImplI31ordenarTEST_ordenarValido7_TestED2Ev
FNDA:4,_ZN7testing8internal15TestFactoryImplI31ordenarTEST_ordenarValido8_TestEC2Ev
FNDA:4,_ZN7testing8internal15TestFactoryImplI31ordenarTEST_ordenarValido8_TestED1Ev
FNDA:4,_ZN7testing8internal15TestFactoryImplI31ordenarTEST_ordenarValido8_TestED0Ev
FNDA:4,_ZN7testing8internal15TestFactoryImplI31ordenarTEST_ordenarValido8_TestED2Ev
FNDA:4,_ZN7testing8internal15TestFactoryImplI30ordenarTEST_ordenarValido_TestE10CreateTestEv
FNDA:4,_ZN7testing8internal15TestFactoryImplI31ordenarTEST_ordenarValido2_TestE10CreateTestEv
FNDA:4,_ZN7testing8internal15TestFactoryImplI31ordenarTEST_ordenarValido3_TestE10CreateTestEv
FNDA:4,_ZN7testing8internal15TestFactoryImplI31ordenarTEST_ordenarValido4_TestE10CreateTestEv
FNDA:4,_ZN7testing8internal15TestFactoryImplI31ordenarTEST_ordenarValido5_TestE10CreateTestEv
FNDA:4,_ZN7testing8internal15TestFactoryImplI31ordenarTEST_ordenarValido6_TestE10CreateTestEv
FNDA:4,_ZN7testing8internal15TestFactoryImplI31ordenarTEST_ordenarValido7_TestE10CreateTestEv
FNDA:4,_ZN7testing8internal15TestFactoryImplI31ordenarTEST_ordenarValido8_TestE10CreateTestEv
FNDA:0,_ZN7testing8internal12CodeLocationD1Ev
FNDA:0,_ZN7testing8internal12CodeLocationD2Ev
FNDA:0,_ZN7testing8internal12CodeLocationC1ERKNSt3__112basic_stringIcNS2_11char_traitsIcEENS2_9allocatorIcEEEEi
FNDA:0,_ZN7testing8internal12CodeLocationC2ERKNSt3__112basic_stringIcNS2_11char_traitsIcEENS2_9allocatorIcEEEEi
FNDA:0,_ZN7testing4Test13SetUpTestCaseEv
FNDA:0,_ZN7testing4Test16TearDownTestCaseEv
FNDA:0,_ZN7testing4Test5SetupEv
FNF:59
FNH:48
DA:8201,0
DA:8208,0
DA:8217,160
DA:8219,32
DA:8239,0
DA:8240,0
DA:18988,0
DA:18996,0
DA:19073,0
LF:9
LH:2
end_of_record
SF:/Users/usuario/Desktop/LabAlgo1/tp2/reunionesRemotas/tests/ordenar.cpp
FN:8,_ZN30ordenarTEST_ordenarValido_TestC1Ev
FN:8,_ZN30ordenarTEST_ordenarValido_Test8TestBodyEv
FN:8,_ZN30ordenarTEST_ordenarValido_TestD0Ev
FN:8,_ZN30ordenarTEST_ordenarValido_TestC2Ev
FN:8,_ZN30ordenarTEST_ordenarValido_TestD1Ev
FN:8,__cxx_global_var_init
FN:8,_ZN30ordenarTEST_ordenarValido_TestD2Ev
FN:23,__cxx_global_var_init.4
FN:23,_ZN31ordenarTEST_ordenarValido2_TestD1Ev
FN:23,_ZN31ordenarTEST_ordenarValido2_TestC2Ev
FN:23,_ZN31ordenarTEST_ordenarValido2_Test8TestBodyEv
FN:23,_ZN31ordenarTEST_ordenarValido2_TestC1Ev
FN:23,_ZN31ordenarTEST_ordenarValido2_TestD2Ev
FN:23,_ZN31ordenarTEST_ordenarValido2_TestD0Ev
FN:37,_ZN31ordenarTEST_ordenarValido3_TestC2Ev
FN:37,_ZN31ordenarTEST_ordenarValido3_TestD2Ev
FN:37,_ZN31ordenarTEST_ordenarValido3_TestC1Ev
FN:37,_ZN31ordenarTEST_ordenarValido3_Test8TestBodyEv
FN:37,_ZN31ordenarTEST_ordenarValido3_TestD0Ev
FN:37,__cxx_global_var_init.7
FN:37,_ZN31ordenarTEST_ordenarValido3_TestD1Ev
FN:51,_ZN31ordenarTEST_ordenarValido4_Test8TestBodyEv
FN:51,_ZN31ordenarTEST_ordenarValido4_TestD1Ev
FN:51,_ZN31ordenarTEST_ordenarValido4_TestC2Ev
FN:51,_ZN31ordenarTEST_ordenarValido4_TestD0Ev
FN:51,_ZN31ordenarTEST_ordenarValido4_TestD2Ev
FN:51,_ZN31ordenarTEST_ordenarValido4_TestC1Ev
FN:51,__cxx_global_var_init.9
FN:66,_ZN31ordenarTEST_ordenarValido5_TestD0Ev
FN:66,_ZN31ordenarTEST_ordenarValido5_TestD2Ev
FN:66,_ZN31ordenarTEST_ordenarValido5_TestC1Ev
FN:66,_ZN31ordenarTEST_ordenarValido5_TestD1Ev
FN:66,_ZN31ordenarTEST_ordenarValido5_Test8TestBodyEv
FN:66,_ZN31ordenarTEST_ordenarValido5_TestC2Ev
FN:66,__cxx_global_var_init.13
FN:90,_ZN31ordenarTEST_ordenarValido6_Test8TestBodyEv
FN:90,_ZN31ordenarTEST_ordenarValido6_TestC1Ev
FN:90,_ZN31ordenarTEST_ordenarValido6_TestD2Ev
FN:90,_ZN31ordenarTEST_ordenarValido6_TestC2Ev
FN:90,_ZN31ordenarTEST_ordenarValido6_TestD1Ev
FN:90,__cxx_global_var_init.22
FN:90,_ZN31ordenarTEST_ordenarValido6_TestD0Ev
FN:113,_ZN31ordenarTEST_ordenarValido7_Test8TestBodyEv
FN:113,_ZN31ordenarTEST_ordenarValido7_TestD0Ev
FN:113,_ZN31ordenarTEST_ordenarValido7_TestD1Ev
FN:113,_ZN31ordenarTEST_ordenarValido7_TestC2Ev
FN:113,_ZN31ordenarTEST_ordenarValido7_TestC1Ev
FN:113,__cxx_global_var_init.31
FN:113,_ZN31ordenarTEST_ordenarValido7_TestD2Ev
FN:137,_ZN31ordenarTEST_ordenarValido8_TestD0Ev
FN:137,_ZN31ordenarTEST_ordenarValido8_TestC1Ev
FN:137,_ZN31ordenarTEST_ordenarValido8_TestD2Ev
FN:137,__cxx_global_var_init.41
FN:137,_ZN31ordenarTEST_ordenarValido8_TestD1Ev
FN:137,_ZN31ordenarTEST_ordenarValido8_TestC2Ev
FN:137,_ZN31ordenarTEST_ordenarValido8_Test8TestBodyEv
FNDA:4,__cxx_global_var_init
FNDA:4,_ZN30ordenarTEST_ordenarValido_Test8TestBodyEv
FNDA:4,_ZN30ordenarTEST_ordenarValido_TestD1Ev
FNDA:4,_ZN30ordenarTEST_ordenarValido_TestD0Ev
FNDA:4,_ZN30ordenarTEST_ordenarValido_TestC1Ev
FNDA:4,_ZN30ordenarTEST_ordenarValido_TestC2Ev
FNDA:4,_ZN30ordenarTEST_ordenarValido_TestD2Ev
FNDA:4,__cxx_global_var_init.4
FNDA:4,_ZN31ordenarTEST_ordenarValido2_Test8TestBodyEv
FNDA:4,_ZN31ordenarTEST_ordenarValido2_TestD1Ev
FNDA:4,_ZN31ordenarTEST_ordenarValido2_TestD0Ev
FNDA:4,_ZN31ordenarTEST_ordenarValido2_TestC1Ev
FNDA:4,_ZN31ordenarTEST_ordenarValido2_TestC2Ev
FNDA:4,_ZN31ordenarTEST_ordenarValido2_TestD2Ev
FNDA:4,__cxx_global_var_init.7
FNDA:4,_ZN31ordenarTEST_ordenarValido3_Test8TestBodyEv
FNDA:4,_ZN31ordenarTEST_ordenarValido3_TestD1Ev
FNDA:4,_ZN31ordenarTEST_ordenarValido3_TestD0Ev
FNDA:4,_ZN31ordenarTEST_ordenarValido3_TestC1Ev
FNDA:4,_ZN31ordenarTEST_ordenarValido3_TestC2Ev
FNDA:4,_ZN31ordenarTEST_ordenarValido3_TestD2Ev
FNDA:4,__cxx_global_var_init.9
FNDA:4,_ZN31ordenarTEST_ordenarValido4_Test8TestBodyEv
FNDA:4,_ZN31ordenarTEST_ordenarValido4_TestD1Ev
FNDA:4,_ZN31ordenarTEST_ordenarValido4_TestD0Ev
FNDA:4,_ZN31ordenarTEST_ordenarValido4_TestC1Ev
FNDA:4,_ZN31ordenarTEST_ordenarValido4_TestC2Ev
FNDA:4,_ZN31ordenarTEST_ordenarValido4_TestD2Ev
FNDA:4,__cxx_global_var_init.13
FNDA:4,_ZN31ordenarTEST_ordenarValido5_Test8TestBodyEv
FNDA:4,_ZN31ordenarTEST_ordenarValido5_TestD1Ev
FNDA:4,_ZN31ordenarTEST_ordenarValido5_TestD0Ev
FNDA:4,_ZN31ordenarTEST_ordenarValido5_TestC1Ev
FNDA:4,_ZN31ordenarTEST_ordenarValido5_TestC2Ev
FNDA:4,_ZN31ordenarTEST_ordenarValido5_TestD2Ev
FNDA:4,__cxx_global_var_init.22
FNDA:4,_ZN31ordenarTEST_ordenarValido6_Test8TestBodyEv
FNDA:4,_ZN31ordenarTEST_ordenarValido6_TestD1Ev
FNDA:4,_ZN31ordenarTEST_ordenarValido6_TestD0Ev
FNDA:4,_ZN31ordenarTEST_ordenarValido6_TestC1Ev
FNDA:4,_ZN31ordenarTEST_ordenarValido6_TestC2Ev
FNDA:4,_ZN31ordenarTEST_ordenarValido6_TestD2Ev
FNDA:4,__cxx_global_var_init.31
FNDA:4,_ZN31ordenarTEST_ordenarValido7_Test8TestBodyEv
FNDA:4,_ZN31ordenarTEST_ordenarValido7_TestD1Ev
FNDA:4,_ZN31ordenarTEST_ordenarValido7_TestD0Ev
FNDA:4,_ZN31ordenarTEST_ordenarValido7_TestC1Ev
FNDA:4,_ZN31ordenarTEST_ordenarValido7_TestC2Ev
FNDA:4,_ZN31ordenarTEST_ordenarValido7_TestD2Ev
FNDA:4,__cxx_global_var_init.41
FNDA:4,_ZN31ordenarTEST_ordenarValido8_Test8TestBodyEv
FNDA:4,_ZN31ordenarTEST_ordenarValido8_TestD1Ev
FNDA:4,_ZN31ordenarTEST_ordenarValido8_TestD0Ev
FNDA:4,_ZN31ordenarTEST_ordenarValido8_TestC1Ev
FNDA:4,_ZN31ordenarTEST_ordenarValido8_TestC2Ev
FNDA:4,_ZN31ordenarTEST_ordenarValido8_TestD2Ev
FNF:56
FNH:56
DA:8,28
DA:10,4
DA:11,4
DA:12,8
DA:13,4
DA:14,4
DA:16,8
DA:18,4
DA:20,4
DA:21,4
DA:23,28
DA:25,4
DA:26,4
DA:27,4
DA:28,4
DA:30,4
DA:32,4
DA:34,4
DA:35,4
DA:37,28
DA:39,4
DA:40,4
DA:41,4
DA:42,4
DA:44,4
DA:46,4
DA:48,4
DA:49,4
DA:51,28
DA:53,4
DA:54,4
DA:55,8
DA:56,4
DA:57,4
DA:59,8
DA:61,4
DA:63,4
DA:64,4
DA:66,28
DA:68,4
DA:69,4
DA:70,4
DA:71,4
DA:72,4
DA:73,4
DA:74,4
DA:77,28
DA:78,4
DA:79,4
DA:80,4
DA:82,28
DA:83,4
DA:85,4
DA:87,4
DA:88,4
DA:90,28
DA:92,4
DA:93,4
DA:94,4
DA:95,4
DA:96,4
DA:97,4
DA:98,4
DA:100,28
DA:101,4
DA:102,4
DA:103,4
DA:105,28
DA:106,4
DA:108,4
DA:110,4
DA:111,4
DA:113,28
DA:115,4
DA:116,4
DA:117,4
DA:118,4
DA:119,4
DA:120,4
DA:121,4
DA:122,4
DA:124,32
DA:125,4
DA:126,4
DA:127,4
DA:129,32
DA:130,4
DA:132,4
DA:134,4
DA:135,4
DA:137,28
DA:139,4
DA:140,4
DA:141,4
DA:142,4
DA:143,4
DA:144,4
DA:145,4
DA:146,4
DA:148,32
DA:149,4
DA:150,4
DA:151,4
DA:153,32
DA:154,4
DA:156,4
DA:158,4
DA:159,4
LF:108
LH:108
end_of_record
TN:
SF:/Library/Developer/CommandLineTools/usr/include/c++/v1/__string
FN:218,_ZNSt3__111char_traitsIcE6lengthEPKc
FNDA:0,_ZNSt3__111char_traitsIcE6lengthEPKc
FNF:1
FNH:0
DA:218,0
LF:1
LH:0
end_of_record
SF:/Library/Developer/CommandLineTools/usr/include/c++/v1/algorithm
FN:716,_ZNKSt3__16__lessImmEclERKmS3_
FN:2454,_ZNSt3__1L3minImNS_6__lessImmEEEERKT_S5_S5_T0_
FN:2462,_ZNSt3__1L3minImEERKT_S3_S3_
FNDA:0,_ZNKSt3__16__lessImmEclERKmS3_
FNDA:0,_ZNSt3__1L3minImNS_6__lessImmEEEERKT_S5_S5_T0_
FNDA:0,_ZNSt3__1L3minImEERKT_S3_S3_
FNF:3
FNH:0
DA:716,0
DA:2454,0
DA:2456,0
DA:2462,0
DA:2464,0
LF:5
LH:0
end_of_record
SF:/Library/Developer/CommandLineTools/usr/include/c++/v1/initializer_list
FN:85,_ZNKSt16initializer_listIiE4sizeEv
FN:89,_ZNKSt16initializer_listIiE5beginEv
FN:93,_ZNKSt16initializer_listIiE3endEv
FNDA:72,_ZNKSt16initializer_listIiE4sizeEv
FNDA:24,_ZNKSt16initializer_listIiE5beginEv
FNDA:24,_ZNKSt16initializer_listIiE3endEv
FNF:3
FNH:3
DA:85,72
DA:89,24
DA:93,24
LF:3
LH:3
end_of_record
SF:/Library/Developer/CommandLineTools/usr/include/c++/v1/limits
FN:215,_ZNSt3__123__libcpp_numeric_limitsIlLb1EE3maxEv
FN:452,_ZNSt3__114numeric_limitsIlE3maxEv
FNDA:0,_ZNSt3__123__libcpp_numeric_limitsIlLb1EE3maxEv
FNDA:0,_ZNSt3__114numeric_limitsIlE3maxEv
FNF:2
FNH:0
DA:215,0
DA:452,0
LF:2
LH:0
end_of_record
SF:/Library/Developer/CommandLineTools/usr/include/c++/v1/memory
FN:1106,_ZNSt3__1L16__to_raw_pointerIiEEPT_S2_
FN:1546,_ZNSt3__116allocator_traitsINS_9allocatorIiEEE8allocateERS2_m
FN:1554,_ZNSt3__116allocator_traitsINS_9allocatorIiEEE10deallocateERS2_Pim
FN:1595,_ZNSt3__116allocator_traitsINS_9allocatorIiEEE7destroyIiEEvRS2_PT_
FN:1599,_ZNSt3__116allocator_traitsINS_9allocatorIiEEE8max_sizeERKS2_
FN:1604,_ZNSt3__116allocator_traitsINS_9allocatorIiEEE37select_on_container_copy_constructionERKS2_
FN:1662,_ZNSt3__116allocator_traitsINS_9allocatorIiEEE25__construct_range_forwardIiiiiEENS_9enable_ifIXaaaasr31is_trivially_move_constructibleIT0_EE5valuesr7is_sameIT1_T2_EE5valueooL_ZNS_17integral_constantIbLb1EE5valueEEntsr15__has_constructIS2_PS6_RT_EE5valueEvE4typeERS2_PSC_SH_RSB_
FN:1662,_ZNSt3__116allocator_traitsINS_9allocatorIiEEE25__construct_range_forwardIKiiiiEENS_9enable_ifIXaaaasr31is_trivially_move_constructibleIT0_EE5valuesr7is_sameIT1_T2_EE5valueooL_ZNS_17integral_constantIbLb1EE5valueEEntsr15__has_constructIS2_PS7_RT_EE5valueEvE4typeERS2_PSD_SI_RSC_
FN:1742,_ZNSt3__116allocator_traitsINS_9allocatorIiEEE9__destroyIiEEvNS_17integral_constantIbLb1EEERS2_PT_
FN:1752,_ZNSt3__116allocator_traitsINS_9allocatorIiEEE10__max_sizeENS_17integral_constantIbLb1EEERKS2_
FN:1764,_ZNSt3__116allocator_traitsINS_9allocatorIiEEE39__select_on_container_copy_constructionENS_17integral_constantIbLb0EEERKS2_
FN:1798,_ZNSt3__19allocatorIcEC2Ev
FN:1798,_ZNSt3__19allocatorIiEC2Ev
FN:1809,_ZNSt3__19allocatorIiE8allocateEmPKv
FN:1816,_ZNSt3__19allocatorIiE10deallocateEPim
FN:1818,_ZNKSt3__19allocatorIiE8max_sizeEv
FN:1881,_ZNSt3__19allocatorIiE7destroyEPi
FN:2140,_ZNSt3__122__compressed_pair_elemINS_12basic_stringIcNS_11char_traitsIcEENS_9allocatorIcEEE5__repELi0ELb0EEC2Ev
FN:2147,_ZNSt3__122__compressed_pair_elemIPiLi0ELb0EEC2IDnvEEOT_
FN:2163,_ZNSt3__122__compressed_pair_elemIPiLi0ELb0EE5__getEv
FN:2165,_ZNKSt3__122__compressed_pair_elemIPiLi0ELb0EE5__getEv
FN:2179,_ZNSt3__122__compressed_pair_elemINS_9allocatorIiEELi1ELb1EEC2Ev
FN:2179,_ZNSt3__122__compressed_pair_elemINS_9allocatorIcEELi1ELb1EEC2Ev
FN:2186,_ZNSt3__122__compressed_pair_elemINS_9allocatorIiEELi1ELb1EEC2IS2_vEEOT_
FN:2202,_ZNSt3__122__compressed_pair_elemINS_9allocatorIiEELi1ELb1EE5__getEv
FN:2204,_ZNKSt3__122__compressed_pair_elemINS_9allocatorIiEELi1ELb1EE5__getEv
FN:2234,_ZNSt3__117__compressed_pairINS_12basic_stringIcNS_11char_traitsIcEENS_9allocatorIcEEE5__repES5_EC2ILb1EvEEv
FN:2234,_ZNSt3__117__compressed_pairINS_12basic_stringIcNS_11char_traitsIcEENS_9allocatorIcEEE5__repES5_EC1ILb1EvEEv
FN:2240,_ZNSt3__117__compressed_pairIPiNS_9allocatorIiEEEC1IDnLb1EEEOT_
FN:2240,_ZNSt3__117__compressed_pairIPiNS_9allocatorIiEEEC2IDnLb1EEEOT_
FN:2250,_ZNSt3__117__compressed_pairIPiNS_9allocatorIiEEEC1IDnS3_EEOT_OT0_
FN:2250,_ZNSt3__117__compressed_pairIPiNS_9allocatorIiEEEC2IDnS3_EEOT_OT0_
FN:2279,_ZNSt3__117__compressed_pairIPiNS_9allocatorIiEEE5firstEv
FN:2284,_ZNKSt3__117__compressed_pairIPiNS_9allocatorIiEEE5firstEv
FN:2289,_ZNSt3__117__compressed_pairIPiNS_9allocatorIiEEE6secondEv
FN:2294,_ZNKSt3__117__compressed_pairIPiNS_9allocatorIiEEE6secondEv
FNDA:192,_ZNSt3__1L16__to_raw_pointerIiEEPT_S2_
FNDA:0,_ZNSt3__116allocator_traitsINS_9allocatorIiEEE8allocateERS2_m
FNDA:0,_ZNSt3__116allocator_traitsINS_9allocatorIiEEE10deallocateERS2_Pim
FNDA:0,_ZNSt3__116allocator_traitsINS_9allocatorIiEEE7destroyIiEEvRS2_PT_
FNDA:0,_ZNSt3__116allocator_traitsINS_9allocatorIiEEE8max_sizeERKS2_
FNDA:0,_ZNSt3__116allocator_traitsINS_9allocatorIiEEE37select_on_container_copy_constructionERKS2_
FNDA:0,_ZNSt3__116allocator_traitsINS_9allocatorIiEEE25__construct_range_forwardIKiiiiEENS_9enable_ifIXaaaasr31is_trivially_move_constructibleIT0_EE5valuesr7is_sameIT1_T2_EE5valueooL_ZNS_17integral_constantIbLb1EE5valueEEntsr15__has_constructIS2_PS7_RT_EE5valueEvE4typeERS2_PSD_SI_RSC_
FNDA:0,_ZNSt3__116allocator_traitsINS_9allocatorIiEEE25__construct_range_forwardIiiiiEENS_9enable_ifIXaaaasr31is_trivially_move_constructibleIT0_EE5valuesr7is_sameIT1_T2_EE5valueooL_ZNS_17integral_constantIbLb1EE5valueEEntsr15__has_constructIS2_PS6_RT_EE5valueEvE4typeERS2_PSC_SH_RSB_
FNDA:0,_ZNSt3__116allocator_traitsINS_9allocatorIiEEE9__destroyIiEEvNS_17integral_constantIbLb1EEERS2_PT_
FNDA:0,_ZNSt3__116allocator_traitsINS_9allocatorIiEEE10__max_sizeENS_17integral_constantIbLb1EEERKS2_
FNDA:0,_ZNSt3__116allocator_traitsINS_9allocatorIiEEE39__select_on_container_copy_constructionENS_17integral_constantIbLb0EEERKS2_
FNDA:12,_ZNSt3__19allocatorIcEC2Ev
FNDA:24,_ZNSt3__19allocatorIiEC2Ev
FNDA:0,_ZNSt3__19allocatorIiE8allocateEmPKv
FNDA:0,_ZNSt3__19allocatorIiE10deallocateEPim
FNDA:0,_ZNKSt3__19allocatorIiE8max_sizeEv
FNDA:0,_ZNSt3__19allocatorIiE7destroyEPi
FNDA:12,_ZNSt3__122__compressed_pair_elemINS_12basic_stringIcNS_11char_traitsIcEENS_9allocatorIcEEE5__repELi0ELb0EEC2Ev
FNDA:24,_ZNSt3__122__compressed_pair_elemIPiLi0ELb0EEC2IDnvEEOT_
FNDA:0,_ZNSt3__122__compressed_pair_elemIPiLi0ELb0EE5__getEv
FNDA:96,_ZNKSt3__122__compressed_pair_elemIPiLi0ELb0EE5__getEv
FNDA:12,_ZNSt3__122__compressed_pair_elemINS_9allocatorIcEELi1ELb1EEC2Ev
FNDA:24,_ZNSt3__122__compressed_pair_elemINS_9allocatorIiEELi1ELb1EEC2Ev
FNDA:0,_ZNSt3__122__compressed_pair_elemINS_9allocatorIiEELi1ELb1EEC2IS2_vEEOT_
FNDA:0,_ZNSt3__122__compressed_pair_elemINS_9allocatorIiEELi1ELb1EE5__getEv
FNDA:0,_ZNKSt3__122__compressed_pair_elemINS_9allocatorIiEELi1ELb1EE5__getEv
FNDA:12,_ZNSt3__117__compressed_pairINS_12basic_stringIcNS_11char_traitsIcEENS_9allocatorIcEEE5__repES5_EC1ILb1EvEEv
FNDA:12,_ZNSt3__117__compressed_pairINS_12basic_stringIcNS_11char_traitsIcEENS_9allocatorIcEEE5__repES5_EC2ILb1EvEEv
FNDA:24,_ZNSt3__117__compressed_pairIPiNS_9allocatorIiEEEC1IDnLb1EEEOT_
FNDA:24,_ZNSt3__117__compressed_pairIPiNS_9allocatorIiEEEC2IDnLb1EEEOT_
FNDA:0,_ZNSt3__117__compressed_pairIPiNS_9allocatorIiEEEC1IDnS3_EEOT_OT0_
FNDA:0,_ZNSt3__117__compressed_pairIPiNS_9allocatorIiEEEC2IDnS3_EEOT_OT0_
FNDA:0,_ZNSt3__117__compressed_pairIPiNS_9allocatorIiEEE5firstEv
FNDA:96,_ZNKSt3__117__compressed_pairIPiNS_9allocatorIiEEE5firstEv
FNDA:0,_ZNSt3__117__compressed_pairIPiNS_9allocatorIiEEE6secondEv
FNDA:0,_ZNKSt3__117__compressed_pairIPiNS_9allocatorIiEEE6secondEv
FNF:36
FNH:13
DA:1106,192
DA:1108,192
DA:1546,0
DA:1547,0
DA:1554,0
DA:1555,0
DA:1595,0
DA:1596,0
DA:1599,0
DA:1600,0
DA:1604,0
DA:1605,0
DA:1606,0
DA:1607,0
DA:1662,0
DA:1664,0
DA:1665,0
DA:1667,0
DA:1668,0
DA:1669,0
DA:1670,0
DA:1742,0
DA:1743,0
DA:1752,0
DA:1753,0
DA:1764,0
DA:1765,0
DA:1798,36
DA:1809,0
DA:1811,0
DA:1812,0
DA:1814,0
DA:1816,0
DA:1817,0
DA:1818,0
DA:1819,0
DA:1881,0
DA:2140,12
DA:2147,24
DA:2148,24
DA:2150,24
DA:2163,0
DA:2165,96
DA:2179,36
DA:2186,0
DA:2187,0
DA:2188,0
DA:2202,0
DA:2204,0
DA:2234,24
DA:2240,48
DA:2241,48
DA:2250,0
DA:2251,0
DA:2279,0
DA:2280,0
DA:2284,96
DA:2285,96
DA:2289,0
DA:2290,0
DA:2294,0
DA:2295,0
LF:62
LH:14
end_of_record
SF:/Library/Developer/CommandLineTools/usr/include/c++/v1/new
FN:223,_ZNSt3__1L17__libcpp_allocateEmm
FN:245,_ZNSt3__117_DeallocateCaller33__do_deallocate_handle_size_alignEPvmm
FN:275,_ZNSt3__117_DeallocateCaller27__do_deallocate_handle_sizeEPvm
FN:316,_ZNSt3__117_DeallocateCaller9__do_callEPv
FN:325,_ZNSt3__1L19__libcpp_deallocateEPvmm
FNDA:0,_ZNSt3__1L17__libcpp_allocateEmm
FNDA:0,_ZNSt3__117_DeallocateCaller33__do_deallocate_handle_size_alignEPvmm
FNDA:0,_ZNSt3__117_DeallocateCaller27__do_deallocate_handle_sizeEPvm
FNDA:0,_ZNSt3__117_DeallocateCaller9__do_callEPv
FNDA:0,_ZNSt3__1L19__libcpp_deallocateEPvmm
FNF:5
FNH:0
DA:223,0
DA:239,0
DA:245,0
DA:248,0
DA:275,0
DA:278,0
DA:316,0
DA:320,0
DA:325,0
DA:326,0
DA:327,0
LF:11
LH:0
end_of_record
SF:/Library/Developer/CommandLineTools/usr/include/c++/v1/stdexcept
FN:136,_ZNSt12length_errorC2EPKc
FN:136,_ZNSt12length_errorC1EPKc
FN:222,_ZNSt3__1L20__throw_length_errorEPKc
FNDA:0,_ZNSt12length_errorC1EPKc
FNDA:0,_ZNSt12length_errorC2EPKc
FNDA:0,_ZNSt3__1L20__throw_length_errorEPKc
FNF:3
FNH:0
DA:136,0
DA:222,0
DA:225,0
DA:230,0
LF:4
LH:0
end_of_record
SF:/Library/Developer/CommandLineTools/usr/include/c++/v1/string
FN:818,_ZNSt3__112basic_stringIcNS_11char_traitsIcEENS_9allocatorIcEEEC2IDnEEPKc
FN:818,_ZNSt3__112basic_stringIcNS_11char_traitsIcEENS_9allocatorIcEEEC1IDnEEPKc
FNDA:12,_ZNSt3__112basic_stringIcNS_11char_traitsIcEENS_9allocatorIcEEEC1IDnEEPKc
FNDA:12,_ZNSt3__112basic_stringIcNS_11char_traitsIcEENS_9allocatorIcEEEC2IDnEEPKc
FNF:2
FNH:2
DA:818,24
DA:820,12
DA:824,24
LF:3
LH:3
end_of_record
SF:/Library/Developer/CommandLineTools/usr/include/c++/v1/type_traits
FN:2310,_ZNSt3__1L4moveIRNS_9allocatorIiEEEEONS_16remove_referenceIT_E4typeEOS5_
FN:2319,_ZNSt3__1L7forwardINS_9allocatorIiEEEEOT_RNS_16remove_referenceIS3_E4typeE
FN:2319,_ZNSt3__1L7forwardIDnEEOT_RNS_16remove_referenceIS1_E4typeE
FNDA:0,_ZNSt3__1L4moveIRNS_9allocatorIiEEEEONS_16remove_referenceIT_E4typeEOS5_
FNDA:48,_ZNSt3__1L7forwardIDnEEOT_RNS_16remove_referenceIS1_E4typeE
FNDA:0,_ZNSt3__1L7forwardINS_9allocatorIiEEEEOT_RNS_16remove_referenceIS3_E4typeE
FNF:3
FNH:1
DA:2310,0
DA:2313,0
DA:2319,48
DA:2321,48
LF:4
LH:2
end_of_record
SF:/Library/Developer/CommandLineTools/usr/include/c++/v1/vector
FN:304,_ZNSt3__120__vector_base_commonILb1EEC2Ev
FN:348,_ZNSt3__113__vector_baseIiNS_9allocatorIiEEE7__allocEv
FN:351,_ZNKSt3__113__vector_baseIiNS_9allocatorIiEEE7__allocEv
FN:354,_ZNSt3__113__vector_baseIiNS_9allocatorIiEEE9__end_capEv
FN:357,_ZNKSt3__113__vector_baseIiNS_9allocatorIiEEE9__end_capEv
FN:370,_ZNSt3__113__vector_baseIiNS_9allocatorIiEEE5clearEv
FN:372,_ZNKSt3__113__vector_baseIiNS_9allocatorIiEEE8capacityEv
FN:423,_ZNSt3__113__vector_baseIiNS_9allocatorIiEEE17__destruct_at_endEPi
FN:433,_ZNSt3__113__vector_baseIiNS_9allocatorIiEEEC2Ev
FN:453,_ZNSt3__113__vector_baseIiNS_9allocatorIiEEEC2EOS2_
FN:460,_ZNSt3__113__vector_baseIiNS_9allocatorIiEEED2Ev
FN:550,_ZNSt3__16vectorIiNS_9allocatorIiEEED2Ev
FN:550,_ZNSt3__16vectorIiNS_9allocatorIiEEED1Ev
FN:656,_ZNKSt3__16vectorIiNS_9allocatorIiEEE4sizeEv
FN:659,_ZNKSt3__16vectorIiNS_9allocatorIiEEE8capacityEv
FN:698,_ZNKSt3__16vectorIiNS_9allocatorIiEEE4dataEv
FN:862,_ZNKSt3__16vectorIiNS_9allocatorIiEEE31__annotate_contiguous_containerEPKvS5_S5_S5_
FN:866,_ZNKSt3__16vectorIiNS_9allocatorIiEEE14__annotate_newEm
FN:872,_ZNKSt3__16vectorIiNS_9allocatorIiEEE17__annotate_deleteEv
FN:910,_ZNSt3__16vectorIiNS_9allocatorIiEEE24__RAII_IncreaseAnnotatorC1ERKS3_m
FN:910,_ZNSt3__16vectorIiNS_9allocatorIiEEE24__RAII_IncreaseAnnotatorC2ERKS3_m
FN:911,_ZNSt3__16vectorIiNS_9allocatorIiEEE24__RAII_IncreaseAnnotator6__doneEv
FN:973,_ZNSt3__16vectorIiNS_9allocatorIiEEE11__vallocateEm
FN:996,_ZNKSt3__16vectorIiNS_9allocatorIiEEE8max_sizeEv
FN:1066,_ZNSt3__16vectorIiNS_9allocatorIiEEE18__construct_at_endIPiEENS_9enable_ifIXsr21__is_forward_iteratorIT_EE5valueEvE4typeES7_S7_m
FN:1066,_ZNSt3__16vectorIiNS_9allocatorIiEEE18__construct_at_endIPKiEENS_9enable_ifIXsr21__is_forward_iteratorIT_EE5valueEvE4typeES8_S8_m
FN:1243,_ZNSt3__16vectorIiNS_9allocatorIiEEEC2ERKS3_
FN:1243,_ZNSt3__16vectorIiNS_9allocatorIiEEEC1ERKS3_
FN:1321,_ZNSt3__16vectorIiNS_9allocatorIiEEEC1ESt16initializer_listIiE
FN:1321,_ZNSt3__16vectorIiNS_9allocatorIiEEEC2ESt16initializer_listIiE
FNDA:24,_ZNSt3__120__vector_base_commonILb1EEC2Ev
FNDA:0,_ZNSt3__113__vector_baseIiNS_9allocatorIiEEE7__allocEv
FNDA:0,_ZNKSt3__113__vector_baseIiNS_9allocatorIiEEE7__allocEv
FNDA:0,_ZNSt3__113__vector_baseIiNS_9allocatorIiEEE9__end_capEv
FNDA:96,_ZNKSt3__113__vector_baseIiNS_9allocatorIiEEE9__end_capEv
FNDA:0,_ZNSt3__113__vector_baseIiNS_9allocatorIiEEE5clearEv
FNDA:96,_ZNKSt3__113__vector_baseIiNS_9allocatorIiEEE8capacityEv
FNDA:0,_ZNSt3__113__vector_baseIiNS_9allocatorIiEEE17__destruct_at_endEPi
FNDA:24,_ZNSt3__113__vector_baseIiNS_9allocatorIiEEEC2Ev
FNDA:0,_ZNSt3__113__vector_baseIiNS_9allocatorIiEEEC2EOS2_
FNDA:0,_ZNSt3__113__vector_baseIiNS_9allocatorIiEEED2Ev
FNDA:48,_ZNSt3__16vectorIiNS_9allocatorIiEEED1Ev
FNDA:48,_ZNSt3__16vectorIiNS_9allocatorIiEEED2Ev
FNDA:48,_ZNKSt3__16vectorIiNS_9allocatorIiEEE4sizeEv
FNDA:96,_ZNKSt3__16vectorIiNS_9allocatorIiEEE8capacityEv
FNDA:192,_ZNKSt3__16vectorIiNS_9allocatorIiEEE4dataEv
FNDA:48,_ZNKSt3__16vectorIiNS_9allocatorIiEEE31__annotate_contiguous_containerEPKvS5_S5_S5_
FNDA:0,_ZNKSt3__16vectorIiNS_9allocatorIiEEE14__annotate_newEm
FNDA:48,_ZNKSt3__16vectorIiNS_9allocatorIiEEE17__annotate_deleteEv
FNDA:0,_ZNSt3__16vectorIiNS_9allocatorIiEEE24__RAII_IncreaseAnnotatorC1ERKS3_m
FNDA:0,_ZNSt3__16vectorIiNS_9allocatorIiEEE24__RAII_IncreaseAnnotatorC2ERKS3_m
FNDA:0,_ZNSt3__16vectorIiNS_9allocatorIiEEE24__RAII_IncreaseAnnotator6__doneEv
FNDA:0,_ZNSt3__16vectorIiNS_9allocatorIiEEE11__vallocateEm
FNDA:0,_ZNKSt3__16vectorIiNS_9allocatorIiEEE8max_sizeEv
FNDA:0,_ZNSt3__16vectorIiNS_9allocatorIiEEE18__construct_at_endIPKiEENS_9enable_ifIXsr21__is_forward_iteratorIT_EE5valueEvE4typeES8_S8_m
FNDA:0,_ZNSt3__16vectorIiNS_9allocatorIiEEE18__construct_at_endIPiEENS_9enable_ifIXsr21__is_forward_iteratorIT_EE5valueEvE4typeES7_S7_m
FNDA:0,_ZNSt3__16vectorIiNS_9allocatorIiEEEC1ERKS3_
FNDA:0,_ZNSt3__16vectorIiNS_9allocatorIiEEEC2ERKS3_
FNDA:24,_ZNSt3__16vectorIiNS_9allocatorIiEEEC1ESt16initializer_listIiE
FNDA:24,_ZNSt3__16vectorIiNS_9allocatorIiEEEC2ESt16initializer_listIiE
FNF:30
FNH:13
DA:304,24
DA:348,0
DA:349,0
DA:351,0
DA:352,0
DA:354,0
DA:355,0
DA:357,96
DA:358,96
DA:361,24
DA:365,0
DA:370,0
DA:372,96
DA:373,96
DA:423,0
DA:425,0
DA:426,0
DA:427,0
DA:428,0
DA:429,0
DA:433,24
DA:435,24
DA:436,24
DA:437,24
DA:438,24
DA:439,24
DA:453,0
DA:454,0
DA:455,0
DA:456,0
DA:460,0
DA:462,0
DA:464,0
DA:465,0
DA:466,0
DA:467,0
DA:550,96
DA:551,48
DA:552,48
DA:556,96
DA:565,24
DA:656,48
DA:657,48
DA:659,96
DA:660,96
DA:698,192
DA:699,192
DA:862,48
DA:863,48
DA:866,0
DA:867,0
DA:868,0
DA:869,0
DA:872,48
DA:873,96
DA:874,48
DA:875,48
DA:910,0
DA:911,0
DA:973,0
DA:975,0
DA:976,0
DA:977,0
DA:978,0
DA:979,0
DA:980,0
DA:996,0
DA:998,0
DA:999,0
DA:1066,0
DA:1068,0
DA:1069,0
DA:1070,0
DA:1071,0
DA:1072,0
DA:1243,0
DA:1244,0
DA:1245,0
DA:1249,0
DA:1250,0
DA:1252,0
DA:1253,0
DA:1254,0
DA:1255,0
DA:1321,48
DA:1322,48
DA:1326,24
DA:1328,24
DA:1329,24
DA:1330,24
DA:1331,48
LF:91
LH:36
end_of_record
SF:/Users/usuario/Desktop/LabAlgo1/tp2/reunionesRemotas/lib/gtest.h
FN:8201,_ZN7testing8internal15TestFactoryBaseD0Ev
FN:8201,_ZN7testing8internal15TestFactoryBaseD1Ev
FN:8201,_ZN7testing8internal15TestFactoryBaseD2Ev
FN:8208,_ZN7testing8internal15TestFactoryBaseC2Ev
FN:8217,_ZN7testing8internal15TestFactoryImplI53filtradoMedianaTEST_filtradoMedianaListaOrdenada_TestEC2Ev
FN:8217,_ZN7testing8internal15TestFactoryImplI47filtradoMedianaTEST_filtradoMedianaValidos_TestEC2Ev
FN:8217,_ZN7testing8internal15TestFactoryImplI49filtradoMedianaTEST_filtradoMedianaRigualDos_TestEC2Ev
FN:8217,_ZN7testing8internal15TestFactoryImplI47filtradoMedianaTEST_filtradoMedianaValidos_TestEC1Ev
FN:8217,_ZN7testing8internal15TestFactoryImplI53filtradoMedianaTEST_filtradoMedianaListaOrdenada_TestED0Ev
FN:8217,_ZN7testing8internal15TestFactoryImplI49filtradoMedianaTEST_filtradoMedianaRigualDos_TestED1Ev
FN:8217,_ZN7testing8internal15TestFactoryImplI53filtradoMedianaTEST_filtradoMedianaListaOrdenada_TestEC1Ev
FN:8217,_ZN7testing8internal15TestFactoryImplI49filtradoMedianaTEST_filtradoMedianaRigualDos_TestED0Ev
FN:8217,_ZN7testing8internal15TestFactoryImplI49filtradoMedianaTEST_filtradoMedianaRigualDos_TestED2Ev
FN:8217,_ZN7testing8internal15TestFactoryImplI47filtradoMedianaTEST_filtradoMedianaValidos_TestED1Ev
FN:8217,_ZN7testing8internal15TestFactoryImplI47filtradoMedianaTEST_filtradoMedianaValidos_TestED2Ev
FN:8217,_ZN7testing8internal15TestFactoryImplI53filtradoMedianaTEST_filtradoMedianaListaOrdenada_TestED2Ev
FN:8217,_ZN7testing8internal15TestFactoryImplI47filtradoMedianaTEST_filtradoMedianaValidos_TestED0Ev
FN:8217,_ZN7testing8internal15TestFactoryImplI49filtradoMedianaTEST_filtradoMedianaRigualDos_TestEC1Ev
FN:8217,_ZN7testing8internal15TestFactoryImplI53filtradoMedianaTEST_filtradoMedianaListaOrdenada_TestED1Ev
FN:8219,_ZN7testing8internal15TestFactoryImplI47filtradoMedianaTEST_filtradoMedianaValidos_TestE10CreateTestEv
FN:8219,_ZN7testing8internal15TestFactoryImplI49filtradoMedianaTEST_filtradoMedianaRigualDos_TestE10CreateTestEv
FN:8219,_ZN7testing8internal15TestFactoryImplI53filtradoMedianaTEST_filtradoMedianaListaOrdenada_TestE10CreateTestEv
FN:8239,_ZN7testing8internal12CodeLocationD2Ev
FN:8239,_ZN7testing8internal12CodeLocationD1Ev
FN:8240,_ZN7testing8internal12CodeLocationC1ERKNSt3__112basic_stringIcNS2_11char_traitsIcEENS2_9allocatorIcEEEEi
FN:8240,_ZN7testing8internal12CodeLocationC2ERKNSt3__112basic_stringIcNS2_11char_traitsIcEENS2_9allocatorIcEEEEi
FN:18988,_ZN7testing4Test13SetUpTestCaseEv
FN:18996,_ZN7testing4Test16TearDownTestCaseEv
FN:19073,_ZN7testing4Test5SetupEv
FNDA:0,_ZN7testing8internal15TestFactoryBaseD1Ev
FNDA:0,_ZN7testing8internal15TestFactoryBaseD0Ev
FNDA:0,_ZN7testing8internal15TestFactoryBaseD2Ev
FNDA:0,_ZN7testing8internal15TestFactoryBaseC2Ev
FNDA:4,_ZN7testing8internal15TestFactoryImplI47filtradoMedianaTEST_filtradoMedianaValidos_TestEC1Ev
FNDA:4,_ZN7testing8internal15TestFactoryImplI53filtradoMedianaTEST_filtradoMedianaListaOrdenada_TestEC1Ev
FNDA:4,_ZN7testing8internal15TestFactoryImplI49filtradoMedianaTEST_filtradoMedianaRigualDos_TestEC1Ev
FNDA:4,_ZN7testing8internal15TestFactoryImplI47filtradoMedianaTEST_filtradoMedianaValidos_TestEC2Ev
FNDA:4,_ZN7testing8internal15TestFactoryImplI47filtradoMedianaTEST_filtradoMedianaValidos_TestED1Ev
FNDA:4,_ZN7testing8internal15TestFactoryImplI47filtradoMedianaTEST_filtradoMedianaValidos_TestED0Ev
FNDA:4,_ZN7testing8internal15TestFactoryImplI47filtradoMedianaTEST_filtradoMedianaValidos_TestED2Ev
FNDA:4,_ZN7testing8internal15TestFactoryImplI53filtradoMedianaTEST_filtradoMedianaListaOrdenada_TestEC2Ev
FNDA:4,_ZN7testing8internal15TestFactoryImplI53filtradoMedianaTEST_filtradoMedianaListaOrdenada_TestED1Ev
FNDA:4,_ZN7testing8internal15TestFactoryImplI53filtradoMedianaTEST_filtradoMedianaListaOrdenada_TestED0Ev
FNDA:4,_ZN7testing8internal15TestFactoryImplI53filtradoMedianaTEST_filtradoMedianaListaOrdenada_TestED2Ev
FNDA:4,_ZN7testing8internal15TestFactoryImplI49filtradoMedianaTEST_filtradoMedianaRigualDos_TestEC2Ev
FNDA:4,_ZN7testing8internal15TestFactoryImplI49filtradoMedianaTEST_filtradoMedianaRigualDos_TestED1Ev
FNDA:4,_ZN7testing8internal15TestFactoryImplI49filtradoMedianaTEST_filtradoMedianaRigualDos_TestED0Ev
FNDA:4,_ZN7testing8internal15TestFactoryImplI49filtradoMedianaTEST_filtradoMedianaRigualDos_TestED2Ev
FNDA:4,_ZN7testing8internal15TestFactoryImplI47filtradoMedianaTEST_filtradoMedianaValidos_TestE10CreateTestEv
FNDA:4,_ZN7testing8internal15TestFactoryImplI53filtradoMedianaTEST_filtradoMedianaListaOrdenada_TestE10CreateTestEv
FNDA:4,_ZN7testing8internal15TestFactoryImplI49filtradoMedianaTEST_filtradoMedianaRigualDos_TestE10CreateTestEv
FNDA:0,_ZN7testing8internal12CodeLocationD1Ev
FNDA:0,_ZN7testing8internal12CodeLocationD2Ev
FNDA:0,_ZN7testing8internal12CodeLocationC1ERKNSt3__112basic_stringIcNS2_11char_traitsIcEENS2_9allocatorIcEEEEi
FNDA:0,_ZN7testing8internal12CodeLocationC2ERKNSt3__112basic_stringIcNS2_11char_traitsIcEENS2_9allocatorIcEEEEi
FNDA:0,_ZN7testing4Test13SetUpTestCaseEv
FNDA:0,_ZN7testing4Test16TearDownTestCaseEv
FNDA:0,_ZN7testing4Test5SetupEv
FNF:29
FNH:18
DA:8201,0
DA:8208,0
DA:8217,60
DA:8219,12
DA:8239,0
DA:8240,0
DA:18988,0
DA:18996,0
DA:19073,0
LF:9
LH:2
end_of_record
SF:/Users/usuario/Desktop/LabAlgo1/tp2/reunionesRemotas/tests/filtradoMediana.cpp
FN:8,_ZN47filtradoMedianaTEST_filtradoMedianaValidos_Test8TestBodyEv
FN:8,_ZN47filtradoMedianaTEST_filtradoMedianaValidos_TestD2Ev
FN:8,_ZN47filtradoMedianaTEST_filtradoMedianaValidos_TestC2Ev
FN:8,__cxx_global_var_init
FN:8,_ZN47filtradoMedianaTEST_filtradoMedianaValidos_TestC1Ev
FN:8,_ZN47filtradoMedianaTEST_filtradoMedianaValidos_TestD1Ev
FN:8,_ZN47filtradoMedianaTEST_filtradoMedianaValidos_TestD0Ev
FN:22,_ZN53filtradoMedianaTEST_filtradoMedianaListaOrdenada_TestD1Ev
FN:22,_ZN53filtradoMedianaTEST_filtradoMedianaListaOrdenada_Test8TestBodyEv
FN:22,_ZN53filtradoMedianaTEST_filtradoMedianaListaOrdenada_TestD2Ev
FN:22,__cxx_global_var_init.4
FN:22,_ZN53filtradoMedianaTEST_filtradoMedianaListaOrdenada_TestD0Ev
FN:22,_ZN53filtradoMedianaTEST_filtradoMedianaListaOrdenada_TestC1Ev
FN:22,_ZN53filtradoMedianaTEST_filtradoMedianaListaOrdenada_TestC2Ev
FN:37,_ZN49filtradoMedianaTEST_filtradoMedianaRigualDos_TestC1Ev
FN:37,_ZN49filtradoMedianaTEST_filtradoMedianaRigualDos_TestD0Ev
FN:37,_ZN49filtradoMedianaTEST_filtradoMedianaRigualDos_Test8TestBodyEv
FN:37,__cxx_global_var_init.8
FN:37,_ZN49filtradoMedianaTEST_filtradoMedianaRigualDos_TestC2Ev
FN:37,_ZN49filtradoMedianaTEST_filtradoMedianaRigualDos_TestD1Ev
FN:37,_ZN49filtradoMedianaTEST_filtradoMedianaRigualDos_TestD2Ev
FNDA:4,__cxx_global_var_init
FNDA:4,_ZN47filtradoMedianaTEST_filtradoMedianaValidos_Test8TestBodyEv
FNDA:4,_ZN47filtradoMedianaTEST_filtradoMedianaValidos_TestD1Ev
FNDA:4,_ZN47filtradoMedianaTEST_filtradoMedianaValidos_TestD0Ev
FNDA:4,_ZN47filtradoMedianaTEST_filtradoMedianaValidos_TestC1Ev
FNDA:4,_ZN47filtradoMedianaTEST_filtradoMedianaValidos_TestC2Ev
FNDA:4,_ZN47filtradoMedianaTEST_filtradoMedianaValidos_TestD2Ev
FNDA:4,__cxx_global_var_init.4
FNDA:4,_ZN53filtradoMedianaTEST_filtradoMedianaListaOrdenada_Test8TestBodyEv
FNDA:4,_ZN53filtradoMedianaTEST_filtradoMedianaListaOrdenada_TestD1Ev
FNDA:4,_ZN53filtradoMedianaTEST_filtradoMedianaListaOrdenada_TestD0Ev
FNDA:4,_ZN53filtradoMedianaTEST_filtradoMedianaListaOrdenada_TestC1Ev
FNDA:4,_ZN53filtradoMedianaTEST_filtradoMedianaListaOrdenada_TestC2Ev
FNDA:4,_ZN53filtradoMedianaTEST_filtradoMedianaListaOrdenada_TestD2Ev
FNDA:4,__cxx_global_var_init.8
FNDA:4,_ZN49filtradoMedianaTEST_filtradoMedianaRigualDos_Test8TestBodyEv
FNDA:4,_ZN49filtradoMedianaTEST_filtradoMedianaRigualDos_TestD1Ev
FNDA:4,_ZN49filtradoMedianaTEST_filtradoMedianaRigualDos_TestD0Ev
FNDA:4,_ZN49filtradoMedianaTEST_filtradoMedianaRigualDos_TestC1Ev
FNDA:4,_ZN49filtradoMedianaTEST_filtradoMedianaRigualDos_TestC2Ev
FNDA:4,_ZN49filtradoMedianaTEST_filtradoMedianaRigualDos_TestD2Ev
FNF:21
FNH:21
DA:8,28
DA:9,4
DA:11,4
DA:12,4
DA:13,4
DA:15,4
DA:17,4
DA:19,4
DA:20,4
DA:22,28
DA:24,4
DA:26,4
DA:27,4
DA:28,4
DA:30,4
DA:32,4
DA:34,4
DA:35,4
DA:37,28
DA:39,4
DA:41,4
DA:42,4
DA:43,4
DA:45,4
DA:47,4
DA:49,4
DA:50,4
LF:27
LH:27
end_of_record
TN:
SF:/Library/Developer/CommandLineTools/usr/include/c++/v1/__string
FN:218,_ZNSt3__111char_traitsIcE6lengthEPKc
FNDA:0,_ZNSt3__111char_traitsIcE6lengthEPKc
FNF:1
FNH:0
DA:218,0
LF:1
LH:0
end_of_record
SF:/Library/Developer/CommandLineTools/usr/include/c++/v1/algorithm
FN:716,_ZNKSt3__16__lessImmEclERKmS3_
FN:2454,_ZNSt3__1L3minImNS_6__lessImmEEEERKT_S5_S5_T0_
FN:2462,_ZNSt3__1L3minImEERKT_S3_S3_
FNDA:0,_ZNKSt3__16__lessImmEclERKmS3_
FNDA:0,_ZNSt3__1L3minImNS_6__lessImmEEEERKT_S5_S5_T0_
FNDA:0,_ZNSt3__1L3minImEERKT_S3_S3_
FNF:3
FNH:0
DA:716,0
DA:2454,0
DA:2456,0
DA:2462,0
DA:2464,0
LF:5
LH:0
end_of_record
SF:/Library/Developer/CommandLineTools/usr/include/c++/v1/initializer_list
FN:85,_ZNKSt16initializer_listINSt3__14pairINS0_6vectorIiNS0_9allocatorIiEEEEiEEE4sizeEv
FN:85,_ZNKSt16initializer_listIiE4sizeEv
FN:89,_ZNKSt16initializer_listINSt3__14pairINS0_6vectorIiNS0_9allocatorIiEEEEiEEE5beginEv
FN:89,_ZNKSt16initializer_listIiE5beginEv
FN:93,_ZNKSt16initializer_listINSt3__14pairINS0_6vectorIiNS0_9allocatorIiEEEEiEEE3endEv
FN:93,_ZNKSt16initializer_listIiE3endEv
FNDA:264,_ZNKSt16initializer_listIiE4sizeEv
FNDA:192,_ZNKSt16initializer_listINSt3__14pairINS0_6vectorIiNS0_9allocatorIiEEEEiEEE4sizeEv
FNDA:88,_ZNKSt16initializer_listIiE5beginEv
FNDA:64,_ZNKSt16initializer_listINSt3__14pairINS0_6vectorIiNS0_9allocatorIiEEEEiEEE5beginEv
FNDA:88,_ZNKSt16initializer_listIiE3endEv
FNDA:64,_ZNKSt16initializer_listINSt3__14pairINS0_6vectorIiNS0_9allocatorIiEEEEiEEE3endEv
FNF:6
FNH:6
DA:85,456
DA:89,152
DA:93,152
LF:3
LH:3
end_of_record
SF:/Library/Developer/CommandLineTools/usr/include/c++/v1/limits
FN:215,_ZNSt3__123__libcpp_numeric_limitsIlLb1EE3maxEv
FN:452,_ZNSt3__114numeric_limitsIlE3maxEv
FNDA:0,_ZNSt3__123__libcpp_numeric_limitsIlLb1EE3maxEv
FNDA:0,_ZNSt3__114numeric_limitsIlE3maxEv
FNF:2
FNH:0
DA:215,0
DA:452,0
LF:2
LH:0
end_of_record
SF:/Library/Developer/CommandLineTools/usr/include/c++/v1/memory
FN:988,_ZNSt3__114pointer_traitsIPKcE10pointer_toERS1_
FN:1106,_ZNSt3__1L16__to_raw_pointerINS_4pairINS_6vectorIiNS_9allocatorIiEEEEiEEEEPT_S8_
FN:1106,_ZNSt3__1L16__to_raw_pointerIiEEPT_S2_
FN:1106,_ZNSt3__1L16__to_raw_pointerIKcEEPT_S3_
FN:1546,_ZNSt3__116allocator_traitsINS_9allocatorINS_4pairINS_6vectorIiNS1_IiEEEEiEEEEE8allocateERS7_m
FN:1546,_ZNSt3__116allocator_traitsINS_9allocatorIiEEE8allocateERS2_m
FN:1554,_ZNSt3__116allocator_traitsINS_9allocatorINS_4pairINS_6vectorIiNS1_IiEEEEiEEEEE10deallocateERS7_PS6_m
FN:1554,_ZNSt3__116allocator_traitsINS_9allocatorIiEEE10deallocateERS2_Pim
FN:1560,_ZNSt3__116allocator_traitsINS_9allocatorIiEEE9constructIiJRKiEEEvRS2_PT_DpOT0_
FN:1560,_ZNSt3__116allocator_traitsINS_9allocatorINS_4pairINS_6vectorIiNS1_IiEEEEiEEEEE9constructIS6_JRS6_EEEvRS7_PT_DpOT0_
FN:1560,_ZNSt3__116allocator_traitsINS_9allocatorINS_4pairINS_6vectorIiNS1_IiEEEEiEEEEE9constructIS6_JRKS6_EEEvRS7_PT_DpOT0_
FN:1595,_ZNSt3__116allocator_traitsINS_9allocatorIiEEE7destroyIiEEvRS2_PT_
FN:1595,_ZNSt3__116allocator_traitsINS_9allocatorINS_4pairINS_6vectorIiNS1_IiEEEEiEEEEE7destroyIS6_EEvRS7_PT_
FN:1599,_ZNSt3__116allocator_traitsINS_9allocatorIiEEE8max_sizeERKS2_
FN:1599,_ZNSt3__116allocator_traitsINS_9allocatorINS_4pairINS_6vectorIiNS1_IiEEEEiEEEEE8max_sizeERKS7_
FN:1604,_ZNSt3__116allocator_traitsINS_9allocatorINS_4pairINS_6vectorIiNS1_IiEEEEiEEEEE37select_on_container_copy_constructionERKS7_
FN:1604,_ZNSt3__116allocator_traitsINS_9allocatorIiEEE37select_on_container_copy_constructionERKS2_
FN:1643,_ZNSt3__116allocator_traitsINS_9allocatorINS_4pairINS_6vectorIiNS1_IiEEEEiEEEEE25__construct_range_forwardIPKS6_PS6_EEvRS7_T_SE_RT0_
FN:1643,_ZNSt3__116allocator_traitsINS_9allocatorINS_4pairINS_6vectorIiNS1_IiEEEEiEEEEE25__construct_range_forwardIPS6_SA_EEvRS7_T_SC_RT0_
FN:1662,_ZNSt3__116allocator_traitsINS_9allocatorIiEEE25__construct_range_forwardIiiiiEENS_9enable_ifIXaaaasr31is_trivially_move_constructibleIT0_EE5valuesr7is_sameIT1_T2_EE5valueooL_ZNS_17integral_constantIbLb1EE5valueEEntsr15__has_constructIS2_PS6_RT_EE5valueEvE4typeERS2_PSC_SH_RSB_
FN:1662,_ZNSt3__116allocator_traitsINS_9allocatorIiEEE25__construct_range_forwardIKiiiiEENS_9enable_ifIXaaaasr31is_trivially_move_constructibleIT0_EE5valuesr7is_sameIT1_T2_EE5valueooL_ZNS_17integral_constantIbLb1EE5valueEEntsr15__has_constructIS2_PS7_RT_EE5valueEvE4typeERS2_PSD_SI_RSC_
FN:1717,_ZNSt3__116allocator_traitsINS_9allocatorIiEEE11__constructIiJRKiEEEvNS_17integral_constantIbLb1EEERS2_PT_DpOT0_
FN:1717,_ZNSt3__116allocator_traitsINS_9allocatorINS_4pairINS_6vectorIiNS1_IiEEEEiEEEEE11__constructIS6_JRS6_EEEvNS_17integral_constantIbLb1EEERS7_PT_DpOT0_
FN:1717,_ZNSt3__116allocator_traitsINS_9allocatorINS_4pairINS_6vectorIiNS1_IiEEEEiEEEEE11__constructIS6_JRKS6_EEEvNS_17integral_constantIbLb1EEERS7_PT_DpOT0_
FN:1742,_ZNSt3__116allocator_traitsINS_9allocatorINS_4pairINS_6vectorIiNS1_IiEEEEiEEEEE9__destroyIS6_EEvNS_17integral_constantIbLb1EEERS7_PT_
FN:1742,_ZNSt3__116allocator_traitsINS_9allocatorIiEEE9__destroyIiEEvNS_17integral_constantIbLb1EEERS2_PT_
FN:1752,_ZNSt3__116allocator_traitsINS_9allocatorIiEEE10__max_sizeENS_17integral_constantIbLb1EEERKS2_
FN:1752,_ZNSt3__116allocator_traitsINS_9allocatorINS_4pairINS_6vectorIiNS1_IiEEEEiEEEEE10__max_sizeENS_17integral_constantIbLb1EEERKS7_
FN:1764,_ZNSt3__116allocator_traitsINS_9allocatorIiEEE39__select_on_container_copy_constructionENS_17integral_constantIbLb0EEERKS2_
FN:1764,_ZNSt3__116allocator_traitsINS_9allocatorINS_4pairINS_6vectorIiNS1_IiEEEEiEEEEE39__select_on_container_copy_constructionENS_17integral_constantIbLb0EEERKS7_
FN:1798,_ZNSt3__19allocatorIiEC2Ev
FN:1798,_ZNSt3__19allocatorIcEC2Ev
FN:1798,_ZNSt3__19allocatorINS_4pairINS_6vectorIiNS0_IiEEEEiEEEC2Ev
FN:1809,_ZNSt3__19allocatorIiE8allocateEmPKv
FN:1809,_ZNSt3__19allocatorINS_4pairINS_6vectorIiNS0_IiEEEEiEEE8allocateEmPKv
FN:1816,_ZNSt3__19allocatorIiE10deallocateEPim
FN:1816,_ZNSt3__19allocatorINS_4pairINS_6vectorIiNS0_IiEEEEiEEE10deallocateEPS5_m
FN:1818,_ZNKSt3__19allocatorINS_4pairINS_6vectorIiNS0_IiEEEEiEEE8max_sizeEv
FN:1818,_ZNKSt3__19allocatorIiE8max_sizeEv
FN:1824,_ZNSt3__19allocatorINS_4pairINS_6vectorIiNS0_IiEEEEiEEE9constructIS5_JRKS5_EEEvPT_DpOT0_
FN:1824,_ZNSt3__19allocatorIiE9constructIiJRKiEEEvPT_DpOT0_
FN:1824,_ZNSt3__19allocatorINS_4pairINS_6vectorIiNS0_IiEEEEiEEE9constructIS5_JRS5_EEEvPT_DpOT0_
FN:1881,_ZNSt3__19allocatorINS_4pairINS_6vectorIiNS0_IiEEEEiEEE7destroyEPS5_
FN:1881,_ZNSt3__19allocatorIiE7destroyEPi
FN:2140,_ZNSt3__122__compressed_pair_elemINS_12basic_stringIcNS_11char_traitsIcEENS_9allocatorIcEEE5__repELi0ELb0EEC2Ev
FN:2147,_ZNSt3__122__compressed_pair_elemIPNS_4pairINS_6vectorIiNS_9allocatorIiEEEEiEELi0ELb0EEC2IDnvEEOT_
FN:2147,_ZNSt3__122__compressed_pair_elemIPiLi0ELb0EEC2IDnvEEOT_
FN:2163,_ZNSt3__122__compressed_pair_elemIPNS_4pairINS_6vectorIiNS_9allocatorIiEEEEiEELi0ELb0EE5__getEv
FN:2163,_ZNSt3__122__compressed_pair_elemIPiLi0ELb0EE5__getEv
FN:2165,_ZNKSt3__122__compressed_pair_elemINS_12basic_stringIcNS_11char_traitsIcEENS_9allocatorIcEEE5__repELi0ELb0EE5__getEv
FN:2165,_ZNKSt3__122__compressed_pair_elemIPNS_4pairINS_6vectorIiNS_9allocatorIiEEEEiEELi0ELb0EE5__getEv
FN:2165,_ZNKSt3__122__compressed_pair_elemIPiLi0ELb0EE5__getEv
FN:2179,_ZNSt3__122__compressed_pair_elemINS_9allocatorINS_4pairINS_6vectorIiNS1_IiEEEEiEEEELi1ELb1EEC2Ev
FN:2179,_ZNSt3__122__compressed_pair_elemINS_9allocatorIiEELi1ELb1EEC2Ev
FN:2179,_ZNSt3__122__compressed_pair_elemINS_9allocatorIcEELi1ELb1EEC2Ev
FN:2186,_ZNSt3__122__compressed_pair_elemINS_9allocatorIiEELi1ELb1EEC2IS2_vEEOT_
FN:2186,_ZNSt3__122__compressed_pair_elemINS_9allocatorINS_4pairINS_6vectorIiNS1_IiEEEEiEEEELi1ELb1EEC2IS7_vEEOT_
FN:2202,_ZNSt3__122__compressed_pair_elemINS_9allocatorIiEELi1ELb1EE5__getEv
FN:2202,_ZNSt3__122__compressed_pair_elemINS_9allocatorINS_4pairINS_6vectorIiNS1_IiEEEEiEEEELi1ELb1EE5__getEv
FN:2204,_ZNKSt3__122__compressed_pair_elemINS_9allocatorIiEELi1ELb1EE5__getEv
FN:2204,_ZNKSt3__122__compressed_pair_elemINS_9allocatorINS_4pairINS_6vectorIiNS1_IiEEEEiEEEELi1ELb1EE5__getEv
FN:2234,_ZNSt3__117__compressed_pairINS_12basic_stringIcNS_11char_traitsIcEENS_9allocatorIcEEE5__repES5_EC2ILb1EvEEv
FN:2234,_ZNSt3__117__compressed_pairINS_12basic_stringIcNS_11char_traitsIcEENS_9allocatorIcEEE5__repES5_EC1ILb1EvEEv
FN:2240,_ZNSt3__117__compressed_pairIPiNS_9allocatorIiEEEC2IDnLb1EEEOT_
FN:2240,_ZNSt3__117__compressed_pairIPNS_4pairINS_6vectorIiNS_9allocatorIiEEEEiEENS3_IS6_EEEC1IDnLb1EEEOT_
FN:2240,_ZNSt3__117__compressed_pairIPiNS_9allocatorIiEEEC1IDnLb1EEEOT_
FN:2240,_ZNSt3__117__compressed_pairIPNS_4pairINS_6vectorIiNS_9allocatorIiEEEEiEENS3_IS6_EEEC2IDnLb1EEEOT_
FN:2250,_ZNSt3__117__compressed_pairIPNS_4pairINS_6vectorIiNS_9allocatorIiEEEEiEENS3_IS6_EEEC1IDnS8_EEOT_OT0_
FN:2250,_ZNSt3__117__compressed_pairIPiNS_9allocatorIiEEEC2IDnS3_EEOT_OT0_
FN:2250,_ZNSt3__117__compressed_pairIPNS_4pairINS_6vectorIiNS_9allocatorIiEEEEiEENS3_IS6_EEEC2IDnS8_EEOT_OT0_
FN:2250,_ZNSt3__117__compressed_pairIPiNS_9allocatorIiEEEC1IDnS3_EEOT_OT0_
FN:2279,_ZNSt3__117__compressed_pairIPNS_4pairINS_6vectorIiNS_9allocatorIiEEEEiEENS3_IS6_EEE5firstEv
FN:2279,_ZNSt3__117__compressed_pairIPiNS_9allocatorIiEEE5firstEv
FN:2284,_ZNKSt3__117__compressed_pairINS_12basic_stringIcNS_11char_traitsIcEENS_9allocatorIcEEE5__repES5_E5firstEv
FN:2284,_ZNKSt3__117__compressed_pairIPiNS_9allocatorIiEEE5firstEv
FN:2284,_ZNKSt3__117__compressed_pairIPNS_4pairINS_6vectorIiNS_9allocatorIiEEEEiEENS3_IS6_EEE5firstEv
FN:2289,_ZNSt3__117__compressed_pairIPiNS_9allocatorIiEEE6secondEv
FN:2289,_ZNSt3__117__compressed_pairIPNS_4pairINS_6vectorIiNS_9allocatorIiEEEEiEENS3_IS6_EEE6secondEv
FN:2294,_ZNKSt3__117__compressed_pairIPNS_4pairINS_6vectorIiNS_9allocatorIiEEEEiEENS3_IS6_EEE6secondEv
FN:2294,_ZNKSt3__117__compressed_pairIPiNS_9allocatorIiEEE6secondEv
FNDA:0,_ZNSt3__114pointer_traitsIPKcE10pointer_toERS1_
FNDA:0,_ZNSt3__1L16__to_raw_pointerIKcEEPT_S3_
FNDA:496,_ZNSt3__1L16__to_raw_pointerIiEEPT_S2_
FNDA:544,_ZNSt3__1L16__to_raw_pointerINS_4pairINS_6vectorIiNS_9allocatorIiEEEEiEEEEPT_S8_
FNDA:0,_ZNSt3__116allocator_traitsINS_9allocatorIiEEE8allocateERS2_m
FNDA:0,_ZNSt3__116allocator_traitsINS_9allocatorINS_4pairINS_6vectorIiNS1_IiEEEEiEEEEE8allocateERS7_m
FNDA:0,_ZNSt3__116allocator_traitsINS_9allocatorIiEEE10deallocateERS2_Pim
FNDA:0,_ZNSt3__116allocator_traitsINS_9allocatorINS_4pairINS_6vectorIiNS1_IiEEEEiEEEEE10deallocateERS7_PS6_m
FNDA:0,_ZNSt3__116allocator_traitsINS_9allocatorINS_4pairINS_6vectorIiNS1_IiEEEEiEEEEE9constructIS6_JRKS6_EEEvRS7_PT_DpOT0_
FNDA:0,_ZNSt3__116allocator_traitsINS_9allocatorINS_4pairINS_6vectorIiNS1_IiEEEEiEEEEE9constructIS6_JRS6_EEEvRS7_PT_DpOT0_
FNDA:0,_ZNSt3__116allocator_traitsINS_9allocatorIiEEE9constructIiJRKiEEEvRS2_PT_DpOT0_
FNDA:0,_ZNSt3__116allocator_traitsINS_9allocatorIiEEE7destroyIiEEvRS2_PT_
FNDA:0,_ZNSt3__116allocator_traitsINS_9allocatorINS_4pairINS_6vectorIiNS1_IiEEEEiEEEEE7destroyIS6_EEvRS7_PT_
FNDA:0,_ZNSt3__116allocator_traitsINS_9allocatorIiEEE8max_sizeERKS2_
FNDA:0,_ZNSt3__116allocator_traitsINS_9allocatorINS_4pairINS_6vectorIiNS1_IiEEEEiEEEEE8max_sizeERKS7_
FNDA:0,_ZNSt3__116allocator_traitsINS_9allocatorIiEEE37select_on_container_copy_constructionERKS2_
FNDA:0,_ZNSt3__116allocator_traitsINS_9allocatorINS_4pairINS_6vectorIiNS1_IiEEEEiEEEEE37select_on_container_copy_constructionERKS7_
FNDA:0,_ZNSt3__116allocator_traitsINS_9allocatorINS_4pairINS_6vectorIiNS1_IiEEEEiEEEEE25__construct_range_forwardIPKS6_PS6_EEvRS7_T_SE_RT0_
FNDA:0,_ZNSt3__116allocator_traitsINS_9allocatorINS_4pairINS_6vectorIiNS1_IiEEEEiEEEEE25__construct_range_forwardIPS6_SA_EEvRS7_T_SC_RT0_
FNDA:0,_ZNSt3__116allocator_traitsINS_9allocatorIiEEE25__construct_range_forwardIKiiiiEENS_9enable_ifIXaaaasr31is_trivially_move_constructibleIT0_EE5valuesr7is_sameIT1_T2_EE5valueooL_ZNS_17integral_constantIbLb1EE5valueEEntsr15__has_constructIS2_PS7_RT_EE5valueEvE4typeERS2_PSD_SI_RSC_
FNDA:0,_ZNSt3__116allocator_traitsINS_9allocatorIiEEE25__construct_range_forwardIiiiiEENS_9enable_ifIXaaaasr31is_trivially_move_constructibleIT0_EE5valuesr7is_sameIT1_T2_EE5valueooL_ZNS_17integral_constantIbLb1EE5valueEEntsr15__has_constructIS2_PS6_RT_EE5valueEvE4typeERS2_PSC_SH_RSB_
FNDA:0,_ZNSt3__116allocator_traitsINS_9allocatorINS_4pairINS_6vectorIiNS1_IiEEEEiEEEEE11__constructIS6_JRKS6_EEEvNS_17integral_constantIbLb1EEERS7_PT_DpOT0_
FNDA:0,_ZNSt3__116allocator_traitsINS_9allocatorINS_4pairINS_6vectorIiNS1_IiEEEEiEEEEE11__constructIS6_JRS6_EEEvNS_17integral_constantIbLb1EEERS7_PT_DpOT0_
FNDA:0,_ZNSt3__116allocator_traitsINS_9allocatorIiEEE11__constructIiJRKiEEEvNS_17integral_constantIbLb1EEERS2_PT_DpOT0_
FNDA:0,_ZNSt3__116allocator_traitsINS_9allocatorIiEEE9__destroyIiEEvNS_17integral_constantIbLb1EEERS2_PT_
FNDA:0,_ZNSt3__116allocator_traitsINS_9allocatorINS_4pairINS_6vectorIiNS1_IiEEEEiEEEEE9__destroyIS6_EEvNS_17integral_constantIbLb1EEERS7_PT_
FNDA:0,_ZNSt3__116allocator_traitsINS_9allocatorIiEEE10__max_sizeENS_17integral_constantIbLb1EEERKS2_
FNDA:0,_ZNSt3__116allocator_traitsINS_9allocatorINS_4pairINS_6vectorIiNS1_IiEEEEiEEEEE10__max_sizeENS_17integral_constantIbLb1EEERKS7_
FNDA:0,_ZNSt3__116allocator_traitsINS_9allocatorIiEEE39__select_on_container_copy_constructionENS_17integral_constantIbLb0EEERKS2_
FNDA:0,_ZNSt3__116allocator_traitsINS_9allocatorINS_4pairINS_6vectorIiNS1_IiEEEEiEEEEE39__select_on_container_copy_constructionENS_17integral_constantIbLb0EEERKS7_
FNDA:68,_ZNSt3__19allocatorIcEC2Ev
FNDA:88,_ZNSt3__19allocatorIiEC2Ev
FNDA:68,_ZNSt3__19allocatorINS_4pairINS_6vectorIiNS0_IiEEEEiEEEC2Ev
FNDA:0,_ZNSt3__19allocatorIiE8allocateEmPKv
FNDA:0,_ZNSt3__19allocatorINS_4pairINS_6vectorIiNS0_IiEEEEiEEE8allocateEmPKv
FNDA:0,_ZNSt3__19allocatorIiE10deallocateEPim
FNDA:0,_ZNSt3__19allocatorINS_4pairINS_6vectorIiNS0_IiEEEEiEEE10deallocateEPS5_m
FNDA:0,_ZNKSt3__19allocatorIiE8max_sizeEv
FNDA:0,_ZNKSt3__19allocatorINS_4pairINS_6vectorIiNS0_IiEEEEiEEE8max_sizeEv
FNDA:0,_ZNSt3__19allocatorINS_4pairINS_6vectorIiNS0_IiEEEEiEEE9constructIS5_JRKS5_EEEvPT_DpOT0_
FNDA:0,_ZNSt3__19allocatorINS_4pairINS_6vectorIiNS0_IiEEEEiEEE9constructIS5_JRS5_EEEvPT_DpOT0_
FNDA:0,_ZNSt3__19allocatorIiE9constructIiJRKiEEEvPT_DpOT0_
FNDA:0,_ZNSt3__19allocatorIiE7destroyEPi
FNDA:0,_ZNSt3__19allocatorINS_4pairINS_6vectorIiNS0_IiEEEEiEEE7destroyEPS5_
FNDA:68,_ZNSt3__122__compressed_pair_elemINS_12basic_stringIcNS_11char_traitsIcEENS_9allocatorIcEEE5__repELi0ELb0EEC2Ev
FNDA:88,_ZNSt3__122__compressed_pair_elemIPiLi0ELb0EEC2IDnvEEOT_
FNDA:68,_ZNSt3__122__compressed_pair_elemIPNS_4pairINS_6vectorIiNS_9allocatorIiEEEEiEELi0ELb0EEC2IDnvEEOT_
FNDA:0,_ZNSt3__122__compressed_pair_elemIPiLi0ELb0EE5__getEv
FNDA:0,_ZNSt3__122__compressed_pair_elemIPNS_4pairINS_6vectorIiNS_9allocatorIiEEEEiEELi0ELb0EE5__getEv
FNDA:0,_ZNKSt3__122__compressed_pair_elemINS_12basic_stringIcNS_11char_traitsIcEENS_9allocatorIcEEE5__repELi0ELb0EE5__getEv
FNDA:248,_ZNKSt3__122__compressed_pair_elemIPiLi0ELb0EE5__getEv
FNDA:272,_ZNKSt3__122__compressed_pair_elemIPNS_4pairINS_6vectorIiNS_9allocatorIiEEEEiEELi0ELb0EE5__getEv
FNDA:68,_ZNSt3__122__compressed_pair_elemINS_9allocatorIcEELi1ELb1EEC2Ev
FNDA:88,_ZNSt3__122__compressed_pair_elemINS_9allocatorIiEELi1ELb1EEC2Ev
FNDA:68,_ZNSt3__122__compressed_pair_elemINS_9allocatorINS_4pairINS_6vectorIiNS1_IiEEEEiEEEELi1ELb1EEC2Ev
FNDA:0,_ZNSt3__122__compressed_pair_elemINS_9allocatorIiEELi1ELb1EEC2IS2_vEEOT_
FNDA:0,_ZNSt3__122__compressed_pair_elemINS_9allocatorINS_4pairINS_6vectorIiNS1_IiEEEEiEEEELi1ELb1EEC2IS7_vEEOT_
FNDA:0,_ZNSt3__122__compressed_pair_elemINS_9allocatorIiEELi1ELb1EE5__getEv
FNDA:0,_ZNSt3__122__compressed_pair_elemINS_9allocatorINS_4pairINS_6vectorIiNS1_IiEEEEiEEEELi1ELb1EE5__getEv
FNDA:0,_ZNKSt3__122__compressed_pair_elemINS_9allocatorIiEELi1ELb1EE5__getEv
FNDA:0,_ZNKSt3__122__compressed_pair_elemINS_9allocatorINS_4pairINS_6vectorIiNS1_IiEEEEiEEEELi1ELb1EE5__getEv
FNDA:68,_ZNSt3__117__compressed_pairINS_12basic_stringIcNS_11char_traitsIcEENS_9allocatorIcEEE5__repES5_EC1ILb1EvEEv
FNDA:68,_ZNSt3__117__compressed_pairINS_12basic_stringIcNS_11char_traitsIcEENS_9allocatorIcEEE5__repES5_EC2ILb1EvEEv
FNDA:88,_ZNSt3__117__compressed_pairIPiNS_9allocatorIiEEEC1IDnLb1EEEOT_
FNDA:88,_ZNSt3__117__compressed_pairIPiNS_9allocatorIiEEEC2IDnLb1EEEOT_
FNDA:68,_ZNSt3__117__compressed_pairIPNS_4pairINS_6vectorIiNS_9allocatorIiEEEEiEENS3_IS6_EEEC1IDnLb1EEEOT_
FNDA:68,_ZNSt3__117__compressed_pairIPNS_4pairINS_6vectorIiNS_9allocatorIiEEEEiEENS3_IS6_EEEC2IDnLb1EEEOT_
FNDA:0,_ZNSt3__117__compressed_pairIPiNS_9allocatorIiEEEC1IDnS3_EEOT_OT0_
FNDA:0,_ZNSt3__117__compressed_pairIPiNS_9allocatorIiEEEC2IDnS3_EEOT_OT0_
FNDA:0,_ZNSt3__117__compressed_pairIPNS_4pairINS_6vectorIiNS_9allocatorIiEEEEiEENS3_IS6_EEEC1IDnS8_EEOT_OT0_
FNDA:0,_ZNSt3__117__compressed_pairIPNS_4pairINS_6vectorIiNS_9allocatorIiEEEEiEENS3_IS6_EEEC2IDnS8_EEOT_OT0_
FNDA:0,_ZNSt3__117__compressed_pairIPiNS_9allocatorIiEEE5firstEv
FNDA:0,_ZNSt3__117__compressed_pairIPNS_4pairINS_6vectorIiNS_9allocatorIiEEEEiEENS3_IS6_EEE5firstEv
FNDA:0,_ZNKSt3__117__compressed_pairINS_12basic_stringIcNS_11char_traitsIcEENS_9allocatorIcEEE5__repES5_E5firstEv
FNDA:248,_ZNKSt3__117__compressed_pairIPiNS_9allocatorIiEEE5firstEv
FNDA:272,_ZNKSt3__117__compressed_pairIPNS_4pairINS_6vectorIiNS_9allocatorIiEEEEiEENS3_IS6_EEE5firstEv
FNDA:0,_ZNSt3__117__compressed_pairIPiNS_9allocatorIiEEE6secondEv
FNDA:0,_ZNSt3__117__compressed_pairIPNS_4pairINS_6vectorIiNS_9allocatorIiEEEEiEENS3_IS6_EEE6secondEv
FNDA:0,_ZNKSt3__117__compressed_pairIPiNS_9allocatorIiEEE6secondEv
FNDA:0,_ZNKSt3__117__compressed_pairIPNS_4pairINS_6vectorIiNS_9allocatorIiEEEEiEENS3_IS6_EEE6secondEv
FNF:80
FNH:21
DA:988,0
DA:990,0
DA:1106,1040
DA:1108,1040
DA:1546,0
DA:1547,0
DA:1554,0
DA:1555,0
DA:1560,0
DA:1561,0
DA:1562,0
DA:1595,0
DA:1596,0
DA:1599,0
DA:1600,0
DA:1604,0
DA:1605,0
DA:1606,0
DA:1607,0
DA:1643,0
DA:1645,0
DA:1646,0
DA:1647,0
DA:1662,0
DA:1664,0
DA:1665,0
DA:1667,0
DA:1668,0
DA:1669,0
DA:1670,0
DA:1717,0
DA:1718,0
DA:1742,0
DA:1743,0
DA:1752,0
DA:1753,0
DA:1764,0
DA:1765,0
DA:1798,224
DA:1809,0
DA:1811,0
DA:1812,0
DA:1814,0
DA:1816,0
DA:1817,0
DA:1818,0
DA:1819,0
DA:1824,0
DA:1826,0
DA:1827,0
DA:1881,0
DA:2140,68
DA:2147,156
DA:2148,156
DA:2150,156
DA:2163,0
DA:2165,520
DA:2179,224
DA:2186,0
DA:2187,0
DA:2188,0
DA:2202,0
DA:2204,0
DA:2234,136
DA:2240,312
DA:2241,312
DA:2250,0
DA:2251,0
DA:2279,0
DA:2280,0
DA:2284,520
DA:2285,520
DA:2289,0
DA:2290,0
DA:2294,0
DA:2295,0
LF:76
LH:14
end_of_record
SF:/Library/Developer/CommandLineTools/usr/include/c++/v1/new
FN:223,_ZNSt3__1L17__libcpp_allocateEmm
FN:245,_ZNSt3__117_DeallocateCaller33__do_deallocate_handle_size_alignEPvmm
FN:275,_ZNSt3__117_DeallocateCaller27__do_deallocate_handle_sizeEPvm
FN:316,_ZNSt3__117_DeallocateCaller9__do_callEPv
FN:325,_ZNSt3__1L19__libcpp_deallocateEPvmm
FNDA:0,_ZNSt3__1L17__libcpp_allocateEmm
FNDA:0,_ZNSt3__117_DeallocateCaller33__do_deallocate_handle_size_alignEPvmm
FNDA:0,_ZNSt3__117_DeallocateCaller27__do_deallocate_handle_sizeEPvm
FNDA:0,_ZNSt3__117_DeallocateCaller9__do_callEPv
FNDA:0,_ZNSt3__1L19__libcpp_deallocateEPvmm
FNF:5
FNH:0
DA:223,0
DA:239,0
DA:245,0
DA:248,0
DA:275,0
DA:278,0
DA:316,0
DA:320,0
DA:325,0
DA:326,0
DA:327,0
LF:11
LH:0
end_of_record
SF:/Library/Developer/CommandLineTools/usr/include/c++/v1/stdexcept
FN:136,_ZNSt12length_errorC1EPKc
FN:136,_ZNSt12length_errorC2EPKc
FN:222,_ZNSt3__1L20__throw_length_errorEPKc
FNDA:0,_ZNSt12length_errorC1EPKc
FNDA:0,_ZNSt12length_errorC2EPKc
FNDA:0,_ZNSt3__1L20__throw_length_errorEPKc
FNF:3
FNH:0
DA:136,0
DA:222,0
DA:225,0
DA:230,0
LF:4
LH:0
end_of_record
SF:/Library/Developer/CommandLineTools/usr/include/c++/v1/string
FN:818,_ZNSt3__112basic_stringIcNS_11char_traitsIcEENS_9allocatorIcEEEC1IDnEEPKc
FN:818,_ZNSt3__112basic_stringIcNS_11char_traitsIcEENS_9allocatorIcEEEC2IDnEEPKc
FN:1241,_ZNKSt3__112basic_stringIcNS_11char_traitsIcEENS_9allocatorIcEEE5c_strEv
FN:1243,_ZNKSt3__112basic_stringIcNS_11char_traitsIcEENS_9allocatorIcEEE4dataEv
FN:1420,_ZNKSt3__112basic_stringIcNS_11char_traitsIcEENS_9allocatorIcEEE9__is_longEv
FN:1502,_ZNKSt3__112basic_stringIcNS_11char_traitsIcEENS_9allocatorIcEEE18__get_long_pointerEv
FN:1508,_ZNKSt3__112basic_stringIcNS_11char_traitsIcEENS_9allocatorIcEEE19__get_short_pointerEv
FN:1514,_ZNKSt3__112basic_stringIcNS_11char_traitsIcEENS_9allocatorIcEEE13__get_pointerEv
FNDA:68,_ZNSt3__112basic_stringIcNS_11char_traitsIcEENS_9allocatorIcEEEC1IDnEEPKc
FNDA:68,_ZNSt3__112basic_stringIcNS_11char_traitsIcEENS_9allocatorIcEEEC2IDnEEPKc
FNDA:0,_ZNKSt3__112basic_stringIcNS_11char_traitsIcEENS_9allocatorIcEEE5c_strEv
FNDA:0,_ZNKSt3__112basic_stringIcNS_11char_traitsIcEENS_9allocatorIcEEE4dataEv
FNDA:0,_ZNKSt3__112basic_stringIcNS_11char_traitsIcEENS_9allocatorIcEEE9__is_longEv
FNDA:0,_ZNKSt3__112basic_stringIcNS_11char_traitsIcEENS_9allocatorIcEEE18__get_long_pointerEv
FNDA:0,_ZNKSt3__112basic_stringIcNS_11char_traitsIcEENS_9allocatorIcEEE19__get_short_pointerEv
FNDA:0,_ZNKSt3__112basic_stringIcNS_11char_traitsIcEENS_9allocatorIcEEE13__get_pointerEv
FNF:8
FNH:2
DA:818,136
DA:820,68
DA:824,136
DA:1241,0
DA:1243,0
DA:1420,0
DA:1421,0
DA:1502,0
DA:1503,0
DA:1508,0
DA:1509,0
DA:1514,0
DA:1515,0
LF:13
LH:3
end_of_record
SF:/Library/Developer/CommandLineTools/usr/include/c++/v1/type_traits
FN:454,_ZNSt3__1L9addressofIKcEEPT_RS2_
FN:2310,_ZNSt3__1L4moveIRNS_9allocatorINS_4pairINS_6vectorIiNS1_IiEEEEiEEEEEEONS_16remove_referenceIT_E4typeEOSA_
FN:2310,_ZNSt3__1L4moveIRNS_9allocatorIiEEEEONS_16remove_referenceIT_E4typeEOS5_
FN:2319,_ZNSt3__1L7forwardINS_9allocatorINS_4pairINS_6vectorIiNS1_IiEEEEiEEEEEEOT_RNS_16remove_referenceIS8_E4typeE
FN:2319,_ZNSt3__1L7forwardINS_9allocatorIiEEEEOT_RNS_16remove_referenceIS3_E4typeE
FN:2319,_ZNSt3__1L7forwardIRKNS_4pairINS_6vectorIiNS_9allocatorIiEEEEiEEEEOT_RNS_16remove_referenceIS9_E4typeE
FN:2319,_ZNSt3__1L7forwardIDnEEOT_RNS_16remove_referenceIS1_E4typeE
FN:2319,_ZNSt3__1L7forwardIRNS_6vectorIiNS_9allocatorIiEEEEEEOT_RNS_16remove_referenceIS6_E4typeE
FN:2319,_ZNSt3__1L7forwardIRNS_4pairINS_6vectorIiNS_9allocatorIiEEEEiEEEEOT_RNS_16remove_referenceIS8_E4typeE
FN:2319,_ZNSt3__1L7forwardIiEEOT_RNS_16remove_referenceIS1_E4typeE
FN:2319,_ZNSt3__1L7forwardIRKiEEOT_RNS_16remove_referenceIS3_E4typeE
FNDA:0,_ZNSt3__1L9addressofIKcEEPT_RS2_
FNDA:0,_ZNSt3__1L4moveIRNS_9allocatorIiEEEEONS_16remove_referenceIT_E4typeEOS5_
FNDA:0,_ZNSt3__1L4moveIRNS_9allocatorINS_4pairINS_6vectorIiNS1_IiEEEEiEEEEEEONS_16remove_referenceIT_E4typeEOSA_
FNDA:312,_ZNSt3__1L7forwardIDnEEOT_RNS_16remove_referenceIS1_E4typeE
FNDA:280,_ZNSt3__1L7forwardIRNS_6vectorIiNS_9allocatorIiEEEEEEOT_RNS_16remove_referenceIS6_E4typeE
FNDA:280,_ZNSt3__1L7forwardIiEEOT_RNS_16remove_referenceIS1_E4typeE
FNDA:0,_ZNSt3__1L7forwardINS_9allocatorIiEEEEOT_RNS_16remove_referenceIS3_E4typeE
FNDA:0,_ZNSt3__1L7forwardIRKNS_4pairINS_6vectorIiNS_9allocatorIiEEEEiEEEEOT_RNS_16remove_referenceIS9_E4typeE
FNDA:0,_ZNSt3__1L7forwardINS_9allocatorINS_4pairINS_6vectorIiNS1_IiEEEEiEEEEEEOT_RNS_16remove_referenceIS8_E4typeE
FNDA:0,_ZNSt3__1L7forwardIRNS_4pairINS_6vectorIiNS_9allocatorIiEEEEiEEEEOT_RNS_16remove_referenceIS8_E4typeE
FNDA:0,_ZNSt3__1L7forwardIRKiEEOT_RNS_16remove_referenceIS3_E4typeE
FNF:11
FNH:3
DA:454,0
DA:456,0
DA:2310,0
DA:2313,0
DA:2319,872
DA:2321,872
LF:6
LH:2
end_of_record
SF:/Library/Developer/CommandLineTools/usr/include/c++/v1/utility
FN:316,_ZNSt3__14pairINS_6vectorIiNS_9allocatorIiEEEEiED1Ev
FN:316,_ZNSt3__14pairINS_6vectorIiNS_9allocatorIiEEEEiED2Ev
FN:328,_ZNSt3__14pairINS_6vectorIiNS_9allocatorIiEEEEiEC2ERKS5_
FN:328,_ZNSt3__14pairINS_6vectorIiNS_9allocatorIiEEEEiEC1ERKS5_
FN:448,_ZNSt3__14pairINS_6vectorIiNS_9allocatorIiEEEEiEC1IRS4_iLb0EEEOT_OT0_
FN:448,_ZNSt3__14pairINS_6vectorIiNS_9allocatorIiEEEEiEC2IRS4_iLb0EEEOT_OT0_
FN:668,_ZNSt3__1L9make_pairIRNS_6vectorIiNS_9allocatorIiEEEEiEENS_4pairINS_18__unwrap_ref_decayIT_E4typeENS7_IT0_E4typeEEEOS8_OSB_
FNDA:0,_ZNSt3__14pairINS_6vectorIiNS_9allocatorIiEEEEiED1Ev
FNDA:0,_ZNSt3__14pairINS_6vectorIiNS_9allocatorIiEEEEiED2Ev
FNDA:0,_ZNSt3__14pairINS_6vectorIiNS_9allocatorIiEEEEiEC1ERKS5_
FNDA:0,_ZNSt3__14pairINS_6vectorIiNS_9allocatorIiEEEEiEC2ERKS5_
FNDA:140,_ZNSt3__14pairINS_6vectorIiNS_9allocatorIiEEEEiEC1IRS4_iLb0EEEOT_OT0_
FNDA:140,_ZNSt3__14pairINS_6vectorIiNS_9allocatorIiEEEEiEC2IRS4_iLb0EEEOT_OT0_
FNDA:140,_ZNSt3__1L9make_pairIRNS_6vectorIiNS_9allocatorIiEEEEiEENS_4pairINS_18__unwrap_ref_decayIT_E4typeENS7_IT0_E4typeEEEOS8_OSB_
FNF:7
FNH:3
DA:316,0
DA:328,0
DA:448,280
DA:451,280
DA:668,140
DA:670,140
DA:671,140
LF:7
LH:5
end_of_record
SF:/Library/Developer/CommandLineTools/usr/include/c++/v1/vector
FN:304,_ZNSt3__120__vector_base_commonILb1EEC2Ev
FN:348,_ZNSt3__113__vector_baseINS_4pairINS_6vectorIiNS_9allocatorIiEEEEiEENS3_IS6_EEE7__allocEv
FN:348,_ZNSt3__113__vector_baseIiNS_9allocatorIiEEE7__allocEv
FN:351,_ZNKSt3__113__vector_baseINS_4pairINS_6vectorIiNS_9allocatorIiEEEEiEENS3_IS6_EEE7__allocEv
FN:351,_ZNKSt3__113__vector_baseIiNS_9allocatorIiEEE7__allocEv
FN:354,_ZNSt3__113__vector_baseIiNS_9allocatorIiEEE9__end_capEv
FN:354,_ZNSt3__113__vector_baseINS_4pairINS_6vectorIiNS_9allocatorIiEEEEiEENS3_IS6_EEE9__end_capEv
FN:357,_ZNKSt3__113__vector_baseIiNS_9allocatorIiEEE9__end_capEv
FN:357,_ZNKSt3__113__vector_baseINS_4pairINS_6vectorIiNS_9allocatorIiEEEEiEENS3_IS6_EEE9__end_capEv
FN:370,_ZNSt3__113__vector_baseINS_4pairINS_6vectorIiNS_9allocatorIiEEEEiEENS3_IS6_EEE5clearEv
FN:370,_ZNSt3__113__vector_baseIiNS_9allocatorIiEEE5clearEv
FN:372,_ZNKSt3__113__vector_baseIiNS_9allocatorIiEEE8capacityEv
FN:372,_ZNKSt3__113__vector_baseINS_4pairINS_6vectorIiNS_9allocatorIiEEEEiEENS3_IS6_EEE8capacityEv
FN:423,_ZNSt3__113__vector_baseIiNS_9allocatorIiEEE17__destruct_at_endEPi
FN:423,_ZNSt3__113__vector_baseINS_4pairINS_6vectorIiNS_9allocatorIiEEEEiEENS3_IS6_EEE17__destruct_at_endEPS6_
FN:433,_ZNSt3__113__vector_baseIiNS_9allocatorIiEEEC2Ev
FN:433,_ZNSt3__113__vector_baseINS_4pairINS_6vectorIiNS_9allocatorIiEEEEiEENS3_IS6_EEEC2Ev
FN:453,_ZNSt3__113__vector_baseINS_4pairINS_6vectorIiNS_9allocatorIiEEEEiEENS3_IS6_EEEC2EOS7_
FN:453,_ZNSt3__113__vector_baseIiNS_9allocatorIiEEEC2EOS2_
FN:460,_ZNSt3__113__vector_baseINS_4pairINS_6vectorIiNS_9allocatorIiEEEEiEENS3_IS6_EEED2Ev
FN:460,_ZNSt3__113__vector_baseIiNS_9allocatorIiEEED2Ev
FN:496,_ZNSt3__16vectorINS_4pairINS0_IiNS_9allocatorIiEEEEiEENS2_IS5_EEEC1Ev
FN:496,_ZNSt3__16vectorINS_4pairINS0_IiNS_9allocatorIiEEEEiEENS2_IS5_EEEC2Ev
FN:550,_ZNSt3__16vectorIiNS_9allocatorIiEEED1Ev
FN:550,_ZNSt3__16vectorIiNS_9allocatorIiEEED2Ev
FN:550,_ZNSt3__16vectorINS_4pairINS0_IiNS_9allocatorIiEEEEiEENS2_IS5_EEED2Ev
FN:550,_ZNSt3__16vectorINS_4pairINS0_IiNS_9allocatorIiEEEEiEENS2_IS5_EEED1Ev
FN:656,_ZNKSt3__16vectorINS_4pairINS0_IiNS_9allocatorIiEEEEiEENS2_IS5_EEE4sizeEv
FN:656,_ZNKSt3__16vectorIiNS_9allocatorIiEEE4sizeEv
FN:659,_ZNKSt3__16vectorIiNS_9allocatorIiEEE8capacityEv
FN:659,_ZNKSt3__16vectorINS_4pairINS0_IiNS_9allocatorIiEEEEiEENS2_IS5_EEE8capacityEv
FN:698,_ZNKSt3__16vectorINS_4pairINS0_IiNS_9allocatorIiEEEEiEENS2_IS5_EEE4dataEv
FN:698,_ZNKSt3__16vectorIiNS_9allocatorIiEEE4dataEv
FN:862,_ZNKSt3__16vectorIiNS_9allocatorIiEEE31__annotate_contiguous_containerEPKvS5_S5_S5_
FN:862,_ZNKSt3__16vectorINS_4pairINS0_IiNS_9allocatorIiEEEEiEENS2_IS5_EEE31__annotate_contiguous_containerEPKvS9_S9_S9_
FN:866,_ZNKSt3__16vectorIiNS_9allocatorIiEEE14__annotate_newEm
FN:866,_ZNKSt3__16vectorINS_4pairINS0_IiNS_9allocatorIiEEEEiEENS2_IS5_EEE14__annotate_newEm
FN:872,_ZNKSt3__16vectorINS_4pairINS0_IiNS_9allocatorIiEEEEiEENS2_IS5_EEE17__annotate_deleteEv
FN:872,_ZNKSt3__16vectorIiNS_9allocatorIiEEE17__annotate_deleteEv
FN:910,_ZNSt3__16vectorIiNS_9allocatorIiEEE24__RAII_IncreaseAnnotatorC2ERKS3_m
FN:910,_ZNSt3__16vectorINS_4pairINS0_IiNS_9allocatorIiEEEEiEENS2_IS5_EEE24__RAII_IncreaseAnnotatorC2ERKS7_m
FN:910,_ZNSt3__16vectorIiNS_9allocatorIiEEE24__RAII_IncreaseAnnotatorC1ERKS3_m
FN:910,_ZNSt3__16vectorINS_4pairINS0_IiNS_9allocatorIiEEEEiEENS2_IS5_EEE24__RAII_IncreaseAnnotatorC1ERKS7_m
FN:911,_ZNSt3__16vectorINS_4pairINS0_IiNS_9allocatorIiEEEEiEENS2_IS5_EEE24__RAII_IncreaseAnnotator6__doneEv
FN:911,_ZNSt3__16vectorIiNS_9allocatorIiEEE24__RAII_IncreaseAnnotator6__doneEv
FN:973,_ZNSt3__16vectorIiNS_9allocatorIiEEE11__vallocateEm
FN:973,_ZNSt3__16vectorINS_4pairINS0_IiNS_9allocatorIiEEEEiEENS2_IS5_EEE11__vallocateEm
FN:996,_ZNKSt3__16vectorINS_4pairINS0_IiNS_9allocatorIiEEEEiEENS2_IS5_EEE8max_sizeEv
FN:996,_ZNKSt3__16vectorIiNS_9allocatorIiEEE8max_sizeEv
FN:1046,_ZNSt3__16vectorIiNS_9allocatorIiEEE18__construct_at_endEmRKi
FN:1066,_ZNSt3__16vectorINS_4pairINS0_IiNS_9allocatorIiEEEEiEENS2_IS5_EEE18__construct_at_endIPKS5_EENS_9enable_ifIXsr21__is_forward_iteratorIT_EE5valueEvE4typeESC_SC_m
FN:1066,_ZNSt3__16vectorINS_4pairINS0_IiNS_9allocatorIiEEEEiEENS2_IS5_EEE18__construct_at_endIPS5_EENS_9enable_ifIXsr21__is_forward_iteratorIT_EE5valueEvE4typeESB_SB_m
FN:1066,_ZNSt3__16vectorIiNS_9allocatorIiEEE18__construct_at_endIPKiEENS_9enable_ifIXsr21__is_forward_iteratorIT_EE5valueEvE4typeES8_S8_m
FN:1066,_ZNSt3__16vectorIiNS_9allocatorIiEEE18__construct_at_endIPiEENS_9enable_ifIXsr21__is_forward_iteratorIT_EE5valueEvE4typeES7_S7_m
FN:1142,_ZNSt3__16vectorIiNS_9allocatorIiEEEC1EmRKi
FN:1142,_ZNSt3__16vectorIiNS_9allocatorIiEEEC2EmRKi
FN:1243,_ZNSt3__16vectorINS_4pairINS0_IiNS_9allocatorIiEEEEiEENS2_IS5_EEEC2ERKS7_
FN:1243,_ZNSt3__16vectorIiNS_9allocatorIiEEEC1ERKS3_
FN:1243,_ZNSt3__16vectorINS_4pairINS0_IiNS_9allocatorIiEEEEiEENS2_IS5_EEEC1ERKS7_
FN:1243,_ZNSt3__16vectorIiNS_9allocatorIiEEEC2ERKS3_
FN:1321,_ZNSt3__16vectorINS_4pairINS0_IiNS_9allocatorIiEEEEiEENS2_IS5_EEEC1ESt16initializer_listIS5_E
FN:1321,_ZNSt3__16vectorIiNS_9allocatorIiEEEC2ESt16initializer_listIiE
FN:1321,_ZNSt3__16vectorIiNS_9allocatorIiEEEC1ESt16initializer_listIiE
FN:1321,_ZNSt3__16vectorINS_4pairINS0_IiNS_9allocatorIiEEEEiEENS2_IS5_EEEC2ESt16initializer_listIS5_E
FNDA:156,_ZNSt3__120__vector_base_commonILb1EEC2Ev
FNDA:0,_ZNSt3__113__vector_baseIiNS_9allocatorIiEEE7__allocEv
FNDA:0,_ZNSt3__113__vector_baseINS_4pairINS_6vectorIiNS_9allocatorIiEEEEiEENS3_IS6_EEE7__allocEv
FNDA:0,_ZNKSt3__113__vector_baseIiNS_9allocatorIiEEE7__allocEv
FNDA:0,_ZNKSt3__113__vector_baseINS_4pairINS_6vectorIiNS_9allocatorIiEEEEiEENS3_IS6_EEE7__allocEv
FNDA:0,_ZNSt3__113__vector_baseIiNS_9allocatorIiEEE9__end_capEv
FNDA:0,_ZNSt3__113__vector_baseINS_4pairINS_6vectorIiNS_9allocatorIiEEEEiEENS3_IS6_EEE9__end_capEv
FNDA:248,_ZNKSt3__113__vector_baseIiNS_9allocatorIiEEE9__end_capEv
FNDA:272,_ZNKSt3__113__vector_baseINS_4pairINS_6vectorIiNS_9allocatorIiEEEEiEENS3_IS6_EEE9__end_capEv
FNDA:0,_ZNSt3__113__vector_baseIiNS_9allocatorIiEEE5clearEv
FNDA:0,_ZNSt3__113__vector_baseINS_4pairINS_6vectorIiNS_9allocatorIiEEEEiEENS3_IS6_EEE5clearEv
FNDA:248,_ZNKSt3__113__vector_baseIiNS_9allocatorIiEEE8capacityEv
FNDA:272,_ZNKSt3__113__vector_baseINS_4pairINS_6vectorIiNS_9allocatorIiEEEEiEENS3_IS6_EEE8capacityEv
FNDA:0,_ZNSt3__113__vector_baseIiNS_9allocatorIiEEE17__destruct_at_endEPi
FNDA:0,_ZNSt3__113__vector_baseINS_4pairINS_6vectorIiNS_9allocatorIiEEEEiEENS3_IS6_EEE17__destruct_at_endEPS6_
FNDA:88,_ZNSt3__113__vector_baseIiNS_9allocatorIiEEEC2Ev
FNDA:68,_ZNSt3__113__vector_baseINS_4pairINS_6vectorIiNS_9allocatorIiEEEEiEENS3_IS6_EEEC2Ev
FNDA:0,_ZNSt3__113__vector_baseIiNS_9allocatorIiEEEC2EOS2_
FNDA:0,_ZNSt3__113__vector_baseINS_4pairINS_6vectorIiNS_9allocatorIiEEEEiEENS3_IS6_EEEC2EOS7_
FNDA:0,_ZNSt3__113__vector_baseIiNS_9allocatorIiEEED2Ev
FNDA:0,_ZNSt3__113__vector_baseINS_4pairINS_6vectorIiNS_9allocatorIiEEEEiEENS3_IS6_EEED2Ev
FNDA:4,_ZNSt3__16vectorINS_4pairINS0_IiNS_9allocatorIiEEEEiEENS2_IS5_EEEC1Ev
FNDA:4,_ZNSt3__16vectorINS_4pairINS0_IiNS_9allocatorIiEEEEiEENS2_IS5_EEEC2Ev
FNDA:136,_ZNSt3__16vectorINS_4pairINS0_IiNS_9allocatorIiEEEEiEENS2_IS5_EEED1Ev
FNDA:124,_ZNSt3__16vectorIiNS_9allocatorIiEEED1Ev
FNDA:124,_ZNSt3__16vectorIiNS_9allocatorIiEEED2Ev
FNDA:136,_ZNSt3__16vectorINS_4pairINS0_IiNS_9allocatorIiEEEEiEENS2_IS5_EEED2Ev
FNDA:124,_ZNKSt3__16vectorIiNS_9allocatorIiEEE4sizeEv
FNDA:136,_ZNKSt3__16vectorINS_4pairINS0_IiNS_9allocatorIiEEEEiEENS2_IS5_EEE4sizeEv
FNDA:248,_ZNKSt3__16vectorIiNS_9allocatorIiEEE8capacityEv
FNDA:272,_ZNKSt3__16vectorINS_4pairINS0_IiNS_9allocatorIiEEEEiEENS2_IS5_EEE8capacityEv
FNDA:496,_ZNKSt3__16vectorIiNS_9allocatorIiEEE4dataEv
FNDA:544,_ZNKSt3__16vectorINS_4pairINS0_IiNS_9allocatorIiEEEEiEENS2_IS5_EEE4dataEv
FNDA:124,_ZNKSt3__16vectorIiNS_9allocatorIiEEE31__annotate_contiguous_containerEPKvS5_S5_S5_
FNDA:136,_ZNKSt3__16vectorINS_4pairINS0_IiNS_9allocatorIiEEEEiEENS2_IS5_EEE31__annotate_contiguous_containerEPKvS9_S9_S9_
FNDA:0,_ZNKSt3__16vectorIiNS_9allocatorIiEEE14__annotate_newEm
FNDA:0,_ZNKSt3__16vectorINS_4pairINS0_IiNS_9allocatorIiEEEEiEENS2_IS5_EEE14__annotate_newEm
FNDA:124,_ZNKSt3__16vectorIiNS_9allocatorIiEEE17__annotate_deleteEv
FNDA:136,_ZNKSt3__16vectorINS_4pairINS0_IiNS_9allocatorIiEEEEiEENS2_IS5_EEE17__annotate_deleteEv
FNDA:0,_ZNSt3__16vectorIiNS_9allocatorIiEEE24__RAII_IncreaseAnnotatorC1ERKS3_m
FNDA:0,_ZNSt3__16vectorIiNS_9allocatorIiEEE24__RAII_IncreaseAnnotatorC2ERKS3_m
FNDA:0,_ZNSt3__16vectorINS_4pairINS0_IiNS_9allocatorIiEEEEiEENS2_IS5_EEE24__RAII_IncreaseAnnotatorC1ERKS7_m
FNDA:0,_ZNSt3__16vectorINS_4pairINS0_IiNS_9allocatorIiEEEEiEENS2_IS5_EEE24__RAII_IncreaseAnnotatorC2ERKS7_m
FNDA:0,_ZNSt3__16vectorIiNS_9allocatorIiEEE24__RAII_IncreaseAnnotator6__doneEv
FNDA:0,_ZNSt3__16vectorINS_4pairINS0_IiNS_9allocatorIiEEEEiEENS2_IS5_EEE24__RAII_IncreaseAnnotator6__doneEv
FNDA:0,_ZNSt3__16vectorIiNS_9allocatorIiEEE11__vallocateEm
FNDA:0,_ZNSt3__16vectorINS_4pairINS0_IiNS_9allocatorIiEEEEiEENS2_IS5_EEE11__vallocateEm
FNDA:0,_ZNKSt3__16vectorIiNS_9allocatorIiEEE8max_sizeEv
FNDA:0,_ZNKSt3__16vectorINS_4pairINS0_IiNS_9allocatorIiEEEEiEENS2_IS5_EEE8max_sizeEv
FNDA:0,_ZNSt3__16vectorIiNS_9allocatorIiEEE18__construct_at_endEmRKi
FNDA:0,_ZNSt3__16vectorIiNS_9allocatorIiEEE18__construct_at_endIPKiEENS_9enable_ifIXsr21__is_forward_iteratorIT_EE5valueEvE4typeES8_S8_m
FNDA:0,_ZNSt3__16vectorIiNS_9allocatorIiEEE18__construct_at_endIPiEENS_9enable_ifIXsr21__is_forward_iteratorIT_EE5valueEvE4typeES7_S7_m
FNDA:0,_ZNSt3__16vectorINS_4pairINS0_IiNS_9allocatorIiEEEEiEENS2_IS5_EEE18__construct_at_endIPKS5_EENS_9enable_ifIXsr21__is_forward_iteratorIT_EE5valueEvE4typeESC_SC_m
FNDA:0,_ZNSt3__16vectorINS_4pairINS0_IiNS_9allocatorIiEEEEiEENS2_IS5_EEE18__construct_at_endIPS5_EENS_9enable_ifIXsr21__is_forward_iteratorIT_EE5valueEvE4typeESB_SB_m
FNDA:0,_ZNSt3__16vectorIiNS_9allocatorIiEEEC1EmRKi
FNDA:0,_ZNSt3__16vectorIiNS_9allocatorIiEEEC2EmRKi
FNDA:0,_ZNSt3__16vectorINS_4pairINS0_IiNS_9allocatorIiEEEEiEENS2_IS5_EEEC1ERKS7_
FNDA:0,_ZNSt3__16vectorIiNS_9allocatorIiEEEC1ERKS3_
FNDA:0,_ZNSt3__16vectorIiNS_9allocatorIiEEEC2ERKS3_
FNDA:0,_ZNSt3__16vectorINS_4pairINS0_IiNS_9allocatorIiEEEEiEENS2_IS5_EEEC2ERKS7_
FNDA:88,_ZNSt3__16vectorIiNS_9allocatorIiEEEC1ESt16initializer_listIiE
FNDA:64,_ZNSt3__16vectorINS_4pairINS0_IiNS_9allocatorIiEEEEiEENS2_IS5_EEEC1ESt16initializer_listIS5_E
FNDA:88,_ZNSt3__16vectorIiNS_9allocatorIiEEEC2ESt16initializer_listIiE
FNDA:64,_ZNSt3__16vectorINS_4pairINS0_IiNS_9allocatorIiEEEEiEENS2_IS5_EEEC2ESt16initializer_listIS5_E
FNF:64
FNH:27
DA:304,156
DA:348,0
DA:349,0
DA:351,0
DA:352,0
DA:354,0
DA:355,0
DA:357,520
DA:358,520
DA:361,156
DA:365,0
DA:370,0
DA:372,520
DA:373,520
DA:423,0
DA:425,0
DA:426,0
DA:427,0
DA:428,0
DA:429,0
DA:433,156
DA:435,156
DA:436,156
DA:437,156
DA:438,156
DA:439,156
DA:453,0
DA:454,0
DA:455,0
DA:456,0
DA:460,0
DA:462,0
DA:464,0
DA:465,0
DA:466,0
DA:467,0
DA:496,8
DA:497,8
DA:501,8
DA:518,0
DA:550,520
DA:551,260
DA:552,260
DA:556,520
DA:565,152
DA:656,260
DA:657,260
DA:659,520
DA:660,520
DA:698,1040
DA:699,1040
DA:862,260
DA:863,260
DA:866,0
DA:867,0
DA:868,0
DA:869,0
DA:872,260
DA:873,520
DA:874,260
DA:875,260
DA:910,0
DA:911,0
DA:973,0
DA:975,0
DA:976,0
DA:977,0
DA:978,0
DA:979,0
DA:980,0
DA:996,0
DA:998,0
DA:999,0
DA:1046,0
DA:1048,0
DA:1049,0
DA:1051,0
DA:1052,0
DA:1053,0
DA:1054,0
DA:1055,0
DA:1056,0
DA:1057,0
DA:1066,0
DA:1068,0
DA:1069,0
DA:1070,0
DA:1071,0
DA:1072,0
DA:1142,0
DA:1143,0
DA:1147,0
DA:1149,0
DA:1150,0
DA:1151,0
DA:1152,0
DA:1243,0
DA:1244,0
DA:1245,0
DA:1249,0
DA:1250,0
DA:1252,0
DA:1253,0
DA:1254,0
DA:1255,0
DA:1321,304
DA:1322,304
DA:1326,152
DA:1328,152
DA:1329,152
DA:1330,152
DA:1331,304
LF:112
LH:39
end_of_record
SF:/Users/usuario/Desktop/LabAlgo1/tp2/reunionesRemotas/lib/gtest.h
FN:2394,_ZN7testing8internal10scoped_ptrINSt3__112basic_stringIcNS2_11char_traitsIcEENS2_9allocatorIcEEEEEC2EPS8_
FN:2394,_ZN7testing8internal10scoped_ptrINSt3__112basic_stringIcNS2_11char_traitsIcEENS2_9allocatorIcEEEEEC1EPS8_
FN:2395,_ZN7testing8internal10scoped_ptrINSt3__112basic_stringIcNS2_11char_traitsIcEENS2_9allocatorIcEEEEED2Ev
FN:2395,_ZN7testing8internal10scoped_ptrINSt3__112basic_stringIcNS2_11char_traitsIcEENS2_9allocatorIcEEEEED1Ev
FN:2395,_ZN7testing8internal10scoped_ptrINSt3__118basic_stringstreamIcNS2_11char_traitsIcEENS2_9allocatorIcEEEEED2Ev
FN:2395,_ZN7testing8internal10scoped_ptrINSt3__118basic_stringstreamIcNS2_11char_traitsIcEENS2_9allocatorIcEEEEED1Ev
FN:2407,_ZN7testing8internal10scoped_ptrINSt3__118basic_stringstreamIcNS2_11char_traitsIcEENS2_9allocatorIcEEEEE5resetEPS8_
FN:2407,_ZN7testing8internal10scoped_ptrINSt3__112basic_stringIcNS2_11char_traitsIcEENS2_9allocatorIcEEEEE5resetEPS8_
FN:3935,_ZN7testing7MessageD2Ev
FN:3935,_ZN7testing7MessageD1Ev
FN:8201,_ZN7testing8internal15TestFactoryBaseD1Ev
FN:8201,_ZN7testing8internal15TestFactoryBaseD0Ev
FN:8201,_ZN7testing8internal15TestFactoryBaseD2Ev
FN:8208,_ZN7testing8internal15TestFactoryBaseC2Ev
FN:8217,_ZN7testing8internal15TestFactoryImplI43esReunionValidaTEST_hablantesFaltantes_TestED2Ev
FN:8217,_ZN7testing8internal15TestFactoryImplI43esReunionValidaTEST_hablantesRepetidos_TestEC2Ev
FN:8217,_ZN7testing8internal15TestFactoryImplI39esReunionValidaTEST_reunionValida5_TestEC1Ev
FN:8217,_ZN7testing8internal15TestFactoryImplI57esReunionValidaTEST_reunionInvalidaDeUnSoloHablante1_TestED2Ev
FN:8217,_ZN7testing8internal15TestFactoryImplI54esReunionValidaTEST_reunionInvalidaDeDosHablantes_TestED2Ev
FN:8217,_ZN7testing8internal15TestFactoryImplI39esReunionValidaTEST_reunionValida2_TestED2Ev
FN:8217,_ZN7testing8internal15TestFactoryImplI43esReunionValidaTEST_hablantesRepetidos_TestED1Ev
FN:8217,_ZN7testing8internal15TestFactoryImplI57esReunionValidaTEST_reunionInvalidaDeUnSoloHablante2_TestEC1Ev
FN:8217,_ZN7testing8internal15TestFactoryImplI39esReunionValidaTEST_reunionValida5_TestED0Ev
FN:8217,_ZN7testing8internal15TestFactoryImplI54esReunionValidaTEST_reunionValidaDeUnSoloHablante_TestED1Ev
FN:8217,_ZN7testing8internal15TestFactoryImplI57esReunionValidaTEST_reunionInvalidaDeUnSoloHablante1_TestEC2Ev
FN:8217,_ZN7testing8internal15TestFactoryImplI39esReunionValidaTEST_reunionValida3_TestED1Ev
FN:8217,_ZN7testing8internal15TestFactoryImplI43esReunionValidaTEST_FrecuenciaInvalida_TestEC1Ev
FN:8217,_ZN7testing8internal15TestFactoryImplI43esReunionValidaTEST_hablantesFaltantes_TestEC1Ev
FN:8217,_ZN7testing8internal15TestFactoryImplI35esReunionValidaTEST_noEsMatriz_TestEC1Ev
FN:8217,_ZN7testing8internal15TestFactoryImplI50esReunionValidaTEST_hablanteConSenialNoValida_TestEC1Ev
FN:8217,_ZN7testing8internal15TestFactoryImplI57esReunionValidaTEST_reunionInvalidaDeUnSoloHablante1_TestED0Ev
FN:8217,_ZN7testing8internal15TestFactoryImplI37esReunionValidaTEST_reunionVacia_TestED2Ev
FN:8217,_ZN7testing8internal15TestFactoryImplI43esReunionValidaTEST_hablantesFaltantes_TestEC2Ev
FN:8217,_ZN7testing8internal15TestFactoryImplI43esReunionValidaTEST_hablantesFaltantes_TestED1Ev
FN:8217,_ZN7testing8internal15TestFactoryImplI38esReunionValidaTEST_reunionValida_TestED0Ev
FN:8217,_ZN7testing8internal15TestFactoryImplI43esReunionValidaTEST_FrecuenciaInvalida_TestED1Ev
FN:8217,_ZN7testing8internal15TestFactoryImplI39esReunionValidaTEST_reunionValida3_TestEC2Ev
FN:8217,_ZN7testing8internal15TestFactoryImplI38esReunionValidaTEST_reunionValida_TestEC2Ev
FN:8217,_ZN7testing8internal15TestFactoryImplI38esReunionValidaTEST_reunionValida_TestED2Ev
FN:8217,_ZN7testing8internal15TestFactoryImplI35esReunionValidaTEST_noEsMatriz_TestEC2Ev
FN:8217,_ZN7testing8internal15TestFactoryImplI54esReunionValidaTEST_reunionInvalidaDeDosHablantes_TestEC2Ev
FN:8217,_ZN7testing8internal15TestFactoryImplI48esReunionValidaTEST_ProfundidadFueraDeRango_TestED2Ev
FN:8217,_ZN7testing8internal15TestFactoryImplI48esReunionValidaTEST_ProfundidadFueraDeRango_TestED0Ev
FN:8217,_ZN7testing8internal15TestFactoryImplI57esReunionValidaTEST_reunionInvalidaDeUnSoloHablante1_TestEC1Ev
FN:8217,_ZN7testing8internal15TestFactoryImplI54esReunionValidaTEST_reunionValidaDeUnSoloHablante_TestEC2Ev
FN:8217,_ZN7testing8internal15TestFactoryImplI39esReunionValidaTEST_reunionValida5_TestED2Ev
FN:8217,_ZN7testing8internal15TestFactoryImplI54esReunionValidaTEST_reunionInvalidaDeDosHablantes_TestED1Ev
FN:8217,_ZN7testing8internal15TestFactoryImplI35esReunionValidaTEST_noEsMatriz_TestED0Ev
FN:8217,_ZN7testing8internal15TestFactoryImplI43esReunionValidaTEST_hablantesRepetidos_TestED2Ev
FN:8217,_ZN7testing8internal15TestFactoryImplI39esReunionValidaTEST_reunionValida4_TestED0Ev
FN:8217,_ZN7testing8internal15TestFactoryImplI37esReunionValidaTEST_reunionVacia_TestED1Ev
FN:8217,_ZN7testing8internal15TestFactoryImplI50esReunionValidaTEST_hablanteConSenialNoValida_TestED2Ev
FN:8217,_ZN7testing8internal15TestFactoryImplI50esReunionValidaTEST_hablanteConSenialNoValida_TestEC2Ev
FN:8217,_ZN7testing8internal15TestFactoryImplI54esReunionValidaTEST_hablanteConNumeroFueraDeRango_TestEC1Ev
FN:8217,_ZN7testing8internal15TestFactoryImplI57esReunionValidaTEST_reunionInvalidaDeUnSoloHablante2_TestED1Ev
FN:8217,_ZN7testing8internal15TestFactoryImplI39esReunionValidaTEST_reunionValida3_TestED2Ev
FN:8217,_ZN7testing8internal15TestFactoryImplI54esReunionValidaTEST_hablanteConNumeroFueraDeRango_TestED1Ev
FN:8217,_ZN7testing8internal15TestFactoryImplI57esReunionValidaTEST_reunionInvalidaDeUnSoloHablante2_TestED0Ev
FN:8217,_ZN7testing8internal15TestFactoryImplI48esReunionValidaTEST_ProfundidadFueraDeRango_TestEC2Ev
FN:8217,_ZN7testing8internal15TestFactoryImplI39esReunionValidaTEST_reunionValida4_TestED1Ev
FN:8217,_ZN7testing8internal15TestFactoryImplI43esReunionValidaTEST_hablantesRepetidos_TestEC1Ev
FN:8217,_ZN7testing8internal15TestFactoryImplI48esReunionValidaTEST_ProfundidadFueraDeRango_TestED1Ev
FN:8217,_ZN7testing8internal15TestFactoryImplI39esReunionValidaTEST_reunionValida3_TestEC1Ev
FN:8217,_ZN7testing8internal15TestFactoryImplI54esReunionValidaTEST_reunionValidaDeUnSoloHablante_TestEC1Ev
FN:8217,_ZN7testing8internal15TestFactoryImplI57esReunionValidaTEST_reunionInvalidaDeUnSoloHablante2_TestEC2Ev
FN:8217,_ZN7testing8internal15TestFactoryImplI54esReunionValidaTEST_reunionValidaDeUnSoloHablante_TestED2Ev
FN:8217,_ZN7testing8internal15TestFactoryImplI39esReunionValidaTEST_reunionValida2_TestED0Ev
FN:8217,_ZN7testing8internal15TestFactoryImplI43esReunionValidaTEST_FrecuenciaInvalida_TestED0Ev
FN:8217,_ZN7testing8internal15TestFactoryImplI39esReunionValidaTEST_reunionValida4_TestEC2Ev
FN:8217,_ZN7testing8internal15TestFactoryImplI37esReunionValidaTEST_reunionVacia_TestED0Ev
FN:8217,_ZN7testing8internal15TestFactoryImplI54esReunionValidaTEST_hablanteConNumeroFueraDeRango_TestED0Ev
FN:8217,_ZN7testing8internal15TestFactoryImplI39esReunionValidaTEST_reunionValida2_TestED1Ev
FN:8217,_ZN7testing8internal15TestFactoryImplI43esReunionValidaTEST_FrecuenciaInvalida_TestED2Ev
FN:8217,_ZN7testing8internal15TestFactoryImplI43esReunionValidaTEST_hablantesFaltantes_TestED0Ev
FN:8217,_ZN7testing8internal15TestFactoryImplI39esReunionValidaTEST_reunionValida4_TestEC1Ev
FN:8217,_ZN7testing8internal15TestFactoryImplI38esReunionValidaTEST_reunionValida_TestEC1Ev
FN:8217,_ZN7testing8internal15TestFactoryImplI39esReunionValidaTEST_reunionValida3_TestED0Ev
FN:8217,_ZN7testing8internal15TestFactoryImplI39esReunionValidaTEST_reunionValida2_TestEC2Ev
FN:8217,_ZN7testing8internal15TestFactoryImplI50esReunionValidaTEST_hablanteConSenialNoValida_TestED0Ev
FN:8217,_ZN7testing8internal15TestFactoryImplI54esReunionValidaTEST_reunionInvalidaDeDosHablantes_TestEC1Ev
FN:8217,_ZN7testing8internal15TestFactoryImplI57esReunionValidaTEST_reunionInvalidaDeUnSoloHablante2_TestED2Ev
FN:8217,_ZN7testing8internal15TestFactoryImplI39esReunionValidaTEST_reunionValida4_TestED2Ev
FN:8217,_ZN7testing8internal15TestFactoryImplI57esReunionValidaTEST_reunionInvalidaDeUnSoloHablante1_TestED1Ev
FN:8217,_ZN7testing8internal15TestFactoryImplI48esReunionValidaTEST_ProfundidadFueraDeRango_TestEC1Ev
FN:8217,_ZN7testing8internal15TestFactoryImplI39esReunionValidaTEST_reunionValida5_TestED1Ev
FN:8217,_ZN7testing8internal15TestFactoryImplI39esReunionValidaTEST_reunionValida2_TestEC1Ev
FN:8217,_ZN7testing8internal15TestFactoryImplI35esReunionValidaTEST_noEsMatriz_TestED1Ev
FN:8217,_ZN7testing8internal15TestFactoryImplI37esReunionValidaTEST_reunionVacia_TestEC2Ev
FN:8217,_ZN7testing8internal15TestFactoryImplI43esReunionValidaTEST_FrecuenciaInvalida_TestEC2Ev
FN:8217,_ZN7testing8internal15TestFactoryImplI54esReunionValidaTEST_reunionInvalidaDeDosHablantes_TestED0Ev
FN:8217,_ZN7testing8internal15TestFactoryImplI43esReunionValidaTEST_hablantesRepetidos_TestED0Ev
FN:8217,_ZN7testing8internal15TestFactoryImplI35esReunionValidaTEST_noEsMatriz_TestED2Ev
FN:8217,_ZN7testing8internal15TestFactoryImplI54esReunionValidaTEST_reunionValidaDeUnSoloHablante_TestED0Ev
FN:8217,_ZN7testing8internal15TestFactoryImplI39esReunionValidaTEST_reunionValida5_TestEC2Ev
FN:8217,_ZN7testing8internal15TestFactoryImplI54esReunionValidaTEST_hablanteConNumeroFueraDeRango_TestED2Ev
FN:8217,_ZN7testing8internal15TestFactoryImplI37esReunionValidaTEST_reunionVacia_TestEC1Ev
FN:8217,_ZN7testing8internal15TestFactoryImplI54esReunionValidaTEST_hablanteConNumeroFueraDeRango_TestEC2Ev
FN:8217,_ZN7testing8internal15TestFactoryImplI38esReunionValidaTEST_reunionValida_TestED1Ev
FN:8217,_ZN7testing8internal15TestFactoryImplI50esReunionValidaTEST_hablanteConSenialNoValida_TestED1Ev
FN:8219,_ZN7testing8internal15TestFactoryImplI43esReunionValidaTEST_hablantesRepetidos_TestE10CreateTestEv
FN:8219,_ZN7testing8internal15TestFactoryImplI37esReunionValidaTEST_reunionVacia_TestE10CreateTestEv
FN:8219,_ZN7testing8internal15TestFactoryImplI48esReunionValidaTEST_ProfundidadFueraDeRango_TestE10CreateTestEv
FN:8219,_ZN7testing8internal15TestFactoryImplI54esReunionValidaTEST_reunionInvalidaDeDosHablantes_TestE10CreateTestEv
FN:8219,_ZN7testing8internal15TestFactoryImplI39esReunionValidaTEST_reunionValida4_TestE10CreateTestEv
FN:8219,_ZN7testing8internal15TestFactoryImplI57esReunionValidaTEST_reunionInvalidaDeUnSoloHablante2_TestE10CreateTestEv
FN:8219,_ZN7testing8internal15TestFactoryImplI57esReunionValidaTEST_reunionInvalidaDeUnSoloHablante1_TestE10CreateTestEv
FN:8219,_ZN7testing8internal15TestFactoryImplI54esReunionValidaTEST_hablanteConNumeroFueraDeRango_TestE10CreateTestEv
FN:8219,_ZN7testing8internal15TestFactoryImplI54esReunionValidaTEST_reunionValidaDeUnSoloHablante_TestE10CreateTestEv
FN:8219,_ZN7testing8internal15TestFactoryImplI50esReunionValidaTEST_hablanteConSenialNoValida_TestE10CreateTestEv
FN:8219,_ZN7testing8internal15TestFactoryImplI39esReunionValidaTEST_reunionValida3_TestE10CreateTestEv
FN:8219,_ZN7testing8internal15TestFactoryImplI43esReunionValidaTEST_FrecuenciaInvalida_TestE10CreateTestEv
FN:8219,_ZN7testing8internal15TestFactoryImplI39esReunionValidaTEST_reunionValida5_TestE10CreateTestEv
FN:8219,_ZN7testing8internal15TestFactoryImplI35esReunionValidaTEST_noEsMatriz_TestE10CreateTestEv
FN:8219,_ZN7testing8internal15TestFactoryImplI38esReunionValidaTEST_reunionValida_TestE10CreateTestEv
FN:8219,_ZN7testing8internal15TestFactoryImplI43esReunionValidaTEST_hablantesFaltantes_TestE10CreateTestEv
FN:8219,_ZN7testing8internal15TestFactoryImplI39esReunionValidaTEST_reunionValida2_TestE10CreateTestEv
FN:8239,_ZN7testing8internal12CodeLocationD2Ev
FN:8239,_ZN7testing8internal12CodeLocationD1Ev
FN:8240,_ZN7testing8internal12CodeLocationC1ERKNSt3__112basic_stringIcNS2_11char_traitsIcEENS2_9allocatorIcEEEEi
FN:8240,_ZN7testing8internal12CodeLocationC2ERKNSt3__112basic_stringIcNS2_11char_traitsIcEENS2_9allocatorIcEEEEi
FN:18855,_ZN7testing15AssertionResultD1Ev
FN:18855,_ZN7testing15AssertionResultD2Ev
FN:18871,_ZN7testing15AssertionResultC1IbEERKT_PNS_8internal8EnableIfIXntsr8internal21ImplicitlyConvertibleIS2_S0_EE5valueEE4typeE
FN:18871,_ZN7testing15AssertionResultC2IbEERKT_PNS_8internal8EnableIfIXntsr8internal21ImplicitlyConvertibleIS2_S0_EE5valueEE4typeE
FN:18887,_ZNK7testing15AssertionResultcvbEv
FN:18988,_ZN7testing4Test13SetUpTestCaseEv
FN:18996,_ZN7testing4Test16TearDownTestCaseEv
FN:19073,_ZN7testing4Test5SetupEv
FNDA:0,_ZN7testing8internal10scoped_ptrINSt3__112basic_stringIcNS2_11char_traitsIcEENS2_9allocatorIcEEEEEC1EPS8_
FNDA:0,_ZN7testing8internal10scoped_ptrINSt3__112basic_stringIcNS2_11char_traitsIcEENS2_9allocatorIcEEEEEC2EPS8_
FNDA:0,_ZN7testing8internal10scoped_ptrINSt3__118basic_stringstreamIcNS2_11char_traitsIcEENS2_9allocatorIcEEEEED1Ev
FNDA:0,_ZN7testing8internal10scoped_ptrINSt3__118basic_stringstreamIcNS2_11char_traitsIcEENS2_9allocatorIcEEEEED2Ev
FNDA:0,_ZN7testing8internal10scoped_ptrINSt3__112basic_stringIcNS2_11char_traitsIcEENS2_9allocatorIcEEEEED1Ev
FNDA:0,_ZN7testing8internal10scoped_ptrINSt3__112basic_stringIcNS2_11char_traitsIcEENS2_9allocatorIcEEEEED2Ev
FNDA:0,_ZN7testing8internal10scoped_ptrINSt3__118basic_stringstreamIcNS2_11char_traitsIcEENS2_9allocatorIcEEEEE5resetEPS8_
FNDA:0,_ZN7testing8internal10scoped_ptrINSt3__112basic_stringIcNS2_11char_traitsIcEENS2_9allocatorIcEEEEE5resetEPS8_
FNDA:0,_ZN7testing7MessageD1Ev
FNDA:0,_ZN7testing7MessageD2Ev
FNDA:0,_ZN7testing8internal15TestFactoryBaseD1Ev
FNDA:0,_ZN7testing8internal15TestFactoryBaseD0Ev
FNDA:0,_ZN7testing8internal15TestFactoryBaseD2Ev
FNDA:0,_ZN7testing8internal15TestFactoryBaseC2Ev
FNDA:4,_ZN7testing8internal15TestFactoryImplI38esReunionValidaTEST_reunionValida_TestEC1Ev
FNDA:4,_ZN7testing8internal15TestFactoryImplI39esReunionValidaTEST_reunionValida2_TestEC1Ev
FNDA:4,_ZN7testing8internal15TestFactoryImplI39esReunionValidaTEST_reunionValida3_TestEC1Ev
FNDA:4,_ZN7testing8internal15TestFactoryImplI39esReunionValidaTEST_reunionValida4_TestEC1Ev
FNDA:4,_ZN7testing8internal15TestFactoryImplI39esReunionValidaTEST_reunionValida5_TestEC1Ev
FNDA:4,_ZN7testing8internal15TestFactoryImplI54esReunionValidaTEST_reunionValidaDeUnSoloHablante_TestEC1Ev
FNDA:4,_ZN7testing8internal15TestFactoryImplI37esReunionValidaTEST_reunionVacia_TestEC1Ev
FNDA:4,_ZN7testing8internal15TestFactoryImplI48esReunionValidaTEST_ProfundidadFueraDeRango_TestEC1Ev
FNDA:4,_ZN7testing8internal15TestFactoryImplI43esReunionValidaTEST_FrecuenciaInvalida_TestEC1Ev
FNDA:4,_ZN7testing8internal15TestFactoryImplI57esReunionValidaTEST_reunionInvalidaDeUnSoloHablante1_TestEC1Ev
FNDA:4,_ZN7testing8internal15TestFactoryImplI57esReunionValidaTEST_reunionInvalidaDeUnSoloHablante2_TestEC1Ev
FNDA:4,_ZN7testing8internal15TestFactoryImplI54esReunionValidaTEST_reunionInvalidaDeDosHablantes_TestEC1Ev
FNDA:4,_ZN7testing8internal15TestFactoryImplI43esReunionValidaTEST_hablantesFaltantes_TestEC1Ev
FNDA:4,_ZN7testing8internal15TestFactoryImplI35esReunionValidaTEST_noEsMatriz_TestEC1Ev
FNDA:4,_ZN7testing8internal15TestFactoryImplI50esReunionValidaTEST_hablanteConSenialNoValida_TestEC1Ev
FNDA:4,_ZN7testing8internal15TestFactoryImplI43esReunionValidaTEST_hablantesRepetidos_TestEC1Ev
FNDA:4,_ZN7testing8internal15TestFactoryImplI54esReunionValidaTEST_hablanteConNumeroFueraDeRango_TestEC1Ev
FNDA:4,_ZN7testing8internal15TestFactoryImplI38esReunionValidaTEST_reunionValida_TestEC2Ev
FNDA:4,_ZN7testing8internal15TestFactoryImplI38esReunionValidaTEST_reunionValida_TestED1Ev
FNDA:4,_ZN7testing8internal15TestFactoryImplI38esReunionValidaTEST_reunionValida_TestED0Ev
FNDA:4,_ZN7testing8internal15TestFactoryImplI38esReunionValidaTEST_reunionValida_TestED2Ev
FNDA:4,_ZN7testing8internal15TestFactoryImplI39esReunionValidaTEST_reunionValida2_TestEC2Ev
FNDA:4,_ZN7testing8internal15TestFactoryImplI39esReunionValidaTEST_reunionValida2_TestED1Ev
FNDA:4,_ZN7testing8internal15TestFactoryImplI39esReunionValidaTEST_reunionValida2_TestED0Ev
FNDA:4,_ZN7testing8internal15TestFactoryImplI39esReunionValidaTEST_reunionValida2_TestED2Ev
FNDA:4,_ZN7testing8internal15TestFactoryImplI39esReunionValidaTEST_reunionValida3_TestEC2Ev
FNDA:4,_ZN7testing8internal15TestFactoryImplI39esReunionValidaTEST_reunionValida3_TestED1Ev
FNDA:4,_ZN7testing8internal15TestFactoryImplI39esReunionValidaTEST_reunionValida3_TestED0Ev
FNDA:4,_ZN7testing8internal15TestFactoryImplI39esReunionValidaTEST_reunionValida3_TestED2Ev
FNDA:4,_ZN7testing8internal15TestFactoryImplI39esReunionValidaTEST_reunionValida4_TestEC2Ev
FNDA:4,_ZN7testing8internal15TestFactoryImplI39esReunionValidaTEST_reunionValida4_TestED1Ev
FNDA:4,_ZN7testing8internal15TestFactoryImplI39esReunionValidaTEST_reunionValida4_TestED0Ev
FNDA:4,_ZN7testing8internal15TestFactoryImplI39esReunionValidaTEST_reunionValida4_TestED2Ev
FNDA:4,_ZN7testing8internal15TestFactoryImplI39esReunionValidaTEST_reunionValida5_TestEC2Ev
FNDA:4,_ZN7testing8internal15TestFactoryImplI39esReunionValidaTEST_reunionValida5_TestED1Ev
FNDA:4,_ZN7testing8internal15TestFactoryImplI39esReunionValidaTEST_reunionValida5_TestED0Ev
FNDA:4,_ZN7testing8internal15TestFactoryImplI39esReunionValidaTEST_reunionValida5_TestED2Ev
FNDA:4,_ZN7testing8internal15TestFactoryImplI54esReunionValidaTEST_reunionValidaDeUnSoloHablante_TestEC2Ev
FNDA:4,_ZN7testing8internal15TestFactoryImplI54esReunionValidaTEST_reunionValidaDeUnSoloHablante_TestED1Ev
FNDA:4,_ZN7testing8internal15TestFactoryImplI54esReunionValidaTEST_reunionValidaDeUnSoloHablante_TestED0Ev
FNDA:4,_ZN7testing8internal15TestFactoryImplI54esReunionValidaTEST_reunionValidaDeUnSoloHablante_TestED2Ev
FNDA:4,_ZN7testing8internal15TestFactoryImplI37esReunionValidaTEST_reunionVacia_TestEC2Ev
FNDA:4,_ZN7testing8internal15TestFactoryImplI37esReunionValidaTEST_reunionVacia_TestED1Ev
FNDA:4,_ZN7testing8internal15TestFactoryImplI37esReunionValidaTEST_reunionVacia_TestED0Ev
FNDA:4,_ZN7testing8internal15TestFactoryImplI37esReunionValidaTEST_reunionVacia_TestED2Ev
FNDA:4,_ZN7testing8internal15TestFactoryImplI48esReunionValidaTEST_ProfundidadFueraDeRango_TestEC2Ev
FNDA:4,_ZN7testing8internal15TestFactoryImplI48esReunionValidaTEST_ProfundidadFueraDeRango_TestED1Ev
FNDA:4,_ZN7testing8internal15TestFactoryImplI48esReunionValidaTEST_ProfundidadFueraDeRango_TestED0Ev
FNDA:4,_ZN7testing8internal15TestFactoryImplI48esReunionValidaTEST_ProfundidadFueraDeRango_TestED2Ev
FNDA:4,_ZN7testing8internal15TestFactoryImplI43esReunionValidaTEST_FrecuenciaInvalida_TestEC2Ev
FNDA:4,_ZN7testing8internal15TestFactoryImplI43esReunionValidaTEST_FrecuenciaInvalida_TestED1Ev
FNDA:4,_ZN7testing8internal15TestFactoryImplI43esReunionValidaTEST_FrecuenciaInvalida_TestED0Ev
FNDA:4,_ZN7testing8internal15TestFactoryImplI43esReunionValidaTEST_FrecuenciaInvalida_TestED2Ev
FNDA:4,_ZN7testing8internal15TestFactoryImplI57esReunionValidaTEST_reunionInvalidaDeUnSoloHablante1_TestEC2Ev
FNDA:4,_ZN7testing8internal15TestFactoryImplI57esReunionValidaTEST_reunionInvalidaDeUnSoloHablante1_TestED1Ev
FNDA:4,_ZN7testing8internal15TestFactoryImplI57esReunionValidaTEST_reunionInvalidaDeUnSoloHablante1_TestED0Ev
FNDA:4,_ZN7testing8internal15TestFactoryImplI57esReunionValidaTEST_reunionInvalidaDeUnSoloHablante1_TestED2Ev
FNDA:4,_ZN7testing8internal15TestFactoryImplI57esReunionValidaTEST_reunionInvalidaDeUnSoloHablante2_TestEC2Ev
FNDA:4,_ZN7testing8internal15TestFactoryImplI57esReunionValidaTEST_reunionInvalidaDeUnSoloHablante2_TestED1Ev
FNDA:4,_ZN7testing8internal15TestFactoryImplI57esReunionValidaTEST_reunionInvalidaDeUnSoloHablante2_TestED0Ev
FNDA:4,_ZN7testing8internal15TestFactoryImplI57esReunionValidaTEST_reunionInvalidaDeUnSoloHablante2_TestED2Ev
FNDA:4,_ZN7testing8internal15TestFactoryImplI54esReunionValidaTEST_reunionInvalidaDeDosHablantes_TestEC2Ev
FNDA:4,_ZN7testing8internal15TestFactoryImplI54esReunionValidaTEST_reunionInvalidaDeDosHablantes_TestED1Ev
FNDA:4,_ZN7testing8internal15TestFactoryImplI54esReunionValidaTEST_reunionInvalidaDeDosHablantes_TestED0Ev
FNDA:4,_ZN7testing8internal15TestFactoryImplI54esReunionValidaTEST_reunionInvalidaDeDosHablantes_TestED2Ev
FNDA:4,_ZN7testing8internal15TestFactoryImplI43esReunionValidaTEST_hablantesFaltantes_TestEC2Ev
FNDA:4,_ZN7testing8internal15TestFactoryImplI43esReunionValidaTEST_hablantesFaltantes_TestED1Ev
FNDA:4,_ZN7testing8internal15TestFactoryImplI43esReunionValidaTEST_hablantesFaltantes_TestED0Ev
FNDA:4,_ZN7testing8internal15TestFactoryImplI43esReunionValidaTEST_hablantesFaltantes_TestED2Ev
FNDA:4,_ZN7testing8internal15TestFactoryImplI35esReunionValidaTEST_noEsMatriz_TestEC2Ev
FNDA:4,_ZN7testing8internal15TestFactoryImplI35esReunionValidaTEST_noEsMatriz_TestED1Ev
FNDA:4,_ZN7testing8internal15TestFactoryImplI35esReunionValidaTEST_noEsMatriz_TestED0Ev
FNDA:4,_ZN7testing8internal15TestFactoryImplI35esReunionValidaTEST_noEsMatriz_TestED2Ev
FNDA:4,_ZN7testing8internal15TestFactoryImplI50esReunionValidaTEST_hablanteConSenialNoValida_TestEC2Ev
FNDA:4,_ZN7testing8internal15TestFactoryImplI50esReunionValidaTEST_hablanteConSenialNoValida_TestED1Ev
FNDA:4,_ZN7testing8internal15TestFactoryImplI50esReunionValidaTEST_hablanteConSenialNoValida_TestED0Ev
FNDA:4,_ZN7testing8internal15TestFactoryImplI50esReunionValidaTEST_hablanteConSenialNoValida_TestED2Ev
FNDA:4,_ZN7testing8internal15TestFactoryImplI43esReunionValidaTEST_hablantesRepetidos_TestEC2Ev
FNDA:4,_ZN7testing8internal15TestFactoryImplI43esReunionValidaTEST_hablantesRepetidos_TestED1Ev
FNDA:4,_ZN7testing8internal15TestFactoryImplI43esReunionValidaTEST_hablantesRepetidos_TestED0Ev
FNDA:4,_ZN7testing8internal15TestFactoryImplI43esReunionValidaTEST_hablantesRepetidos_TestED2Ev
FNDA:4,_ZN7testing8internal15TestFactoryImplI54esReunionValidaTEST_hablanteConNumeroFueraDeRango_TestEC2Ev
FNDA:4,_ZN7testing8internal15TestFactoryImplI54esReunionValidaTEST_hablanteConNumeroFueraDeRango_TestED1Ev
FNDA:4,_ZN7testing8internal15TestFactoryImplI54esReunionValidaTEST_hablanteConNumeroFueraDeRango_TestED0Ev
FNDA:4,_ZN7testing8internal15TestFactoryImplI54esReunionValidaTEST_hablanteConNumeroFueraDeRango_TestED2Ev
FNDA:4,_ZN7testing8internal15TestFactoryImplI38esReunionValidaTEST_reunionValida_TestE10CreateTestEv
FNDA:4,_ZN7testing8internal15TestFactoryImplI39esReunionValidaTEST_reunionValida2_TestE10CreateTestEv
FNDA:4,_ZN7testing8internal15TestFactoryImplI39esReunionValidaTEST_reunionValida3_TestE10CreateTestEv
FNDA:4,_ZN7testing8internal15TestFactoryImplI39esReunionValidaTEST_reunionValida4_TestE10CreateTestEv
FNDA:4,_ZN7testing8internal15TestFactoryImplI39esReunionValidaTEST_reunionValida5_TestE10CreateTestEv
FNDA:4,_ZN7testing8internal15TestFactoryImplI54esReunionValidaTEST_reunionValidaDeUnSoloHablante_TestE10CreateTestEv
FNDA:4,_ZN7testing8internal15TestFactoryImplI37esReunionValidaTEST_reunionVacia_TestE10CreateTestEv
FNDA:4,_ZN7testing8internal15TestFactoryImplI48esReunionValidaTEST_ProfundidadFueraDeRango_TestE10CreateTestEv
FNDA:4,_ZN7testing8internal15TestFactoryImplI43esReunionValidaTEST_FrecuenciaInvalida_TestE10CreateTestEv
FNDA:4,_ZN7testing8internal15TestFactoryImplI57esReunionValidaTEST_reunionInvalidaDeUnSoloHablante1_TestE10CreateTestEv
FNDA:4,_ZN7testing8internal15TestFactoryImplI57esReunionValidaTEST_reunionInvalidaDeUnSoloHablante2_TestE10CreateTestEv
FNDA:4,_ZN7testing8internal15TestFactoryImplI54esReunionValidaTEST_reunionInvalidaDeDosHablantes_TestE10CreateTestEv
FNDA:4,_ZN7testing8internal15TestFactoryImplI43esReunionValidaTEST_hablantesFaltantes_TestE10CreateTestEv
FNDA:4,_ZN7testing8internal15TestFactoryImplI35esReunionValidaTEST_noEsMatriz_TestE10CreateTestEv
FNDA:4,_ZN7testing8internal15TestFactoryImplI50esReunionValidaTEST_hablanteConSenialNoValida_TestE10CreateTestEv
FNDA:4,_ZN7testing8internal15TestFactoryImplI43esReunionValidaTEST_hablantesRepetidos_TestE10CreateTestEv
FNDA:4,_ZN7testing8internal15TestFactoryImplI54esReunionValidaTEST_hablanteConNumeroFueraDeRango_TestE10CreateTestEv
FNDA:0,_ZN7testing8internal12CodeLocationD1Ev
FNDA:0,_ZN7testing8internal12CodeLocationD2Ev
FNDA:0,_ZN7testing8internal12CodeLocationC1ERKNSt3__112basic_stringIcNS2_11char_traitsIcEENS2_9allocatorIcEEEEi
FNDA:0,_ZN7testing8internal12CodeLocationC2ERKNSt3__112basic_stringIcNS2_11char_traitsIcEENS2_9allocatorIcEEEEi
FNDA:0,_ZN7testing15AssertionResultD1Ev
FNDA:0,_ZN7testing15AssertionResultD2Ev
FNDA:0,_ZN7testing15AssertionResultC1IbEERKT_PNS_8internal8EnableIfIXntsr8internal21ImplicitlyConvertibleIS2_S0_EE5valueEE4typeE
FNDA:0,_ZN7testing15AssertionResultC2IbEERKT_PNS_8internal8EnableIfIXntsr8internal21ImplicitlyConvertibleIS2_S0_EE5valueEE4typeE
FNDA:0,_ZNK7testing15AssertionResultcvbEv
FNDA:0,_ZN7testing4Test13SetUpTestCaseEv
FNDA:0,_ZN7testing4Test16TearDownTestCaseEv
FNDA:0,_ZN7testing4Test5SetupEv
FNF:128
FNH:102
DA:2394,0
DA:2395,0
DA:2407,0
DA:2408,0
DA:2409,0
DA:2410,0
DA:2411,0
DA:2412,0
DA:2413,0
DA:2414,0
DA:3935,0
DA:8201,0
DA:8208,0
DA:8217,340
DA:8219,68
DA:8239,0
DA:8240,0
DA:18855,0
DA:18871,0
DA:18876,0
DA:18887,0
DA:18988,0
DA:18996,0
DA:19073,0
LF:24
LH:2
end_of_record
SF:/Users/usuario/Desktop/LabAlgo1/tp2/reunionesRemotas/tests/esReunionValida.cpp
FN:8,_ZN38esReunionValidaTEST_reunionValida_TestD0Ev
FN:8,__cxx_global_var_init
FN:8,_ZN38esReunionValidaTEST_reunionValida_TestC1Ev
FN:8,_ZN38esReunionValidaTEST_reunionValida_TestC2Ev
FN:8,_ZN38esReunionValidaTEST_reunionValida_TestD2Ev
FN:8,_ZN38esReunionValidaTEST_reunionValida_Test8TestBodyEv
FN:8,_ZN38esReunionValidaTEST_reunionValida_TestD1Ev
FN:18,__cxx_global_var_init.7
FN:18,_ZN39esReunionValidaTEST_reunionValida2_TestD1Ev
FN:18,_ZN39esReunionValidaTEST_reunionValida2_TestD0Ev
FN:18,_ZN39esReunionValidaTEST_reunionValida2_TestD2Ev
FN:18,_ZN39esReunionValidaTEST_reunionValida2_TestC1Ev
FN:18,_ZN39esReunionValidaTEST_reunionValida2_Test8TestBodyEv
FN:18,_ZN39esReunionValidaTEST_reunionValida2_TestC2Ev
FN:29,_ZN39esReunionValidaTEST_reunionValida3_Test8TestBodyEv
FN:29,_ZN39esReunionValidaTEST_reunionValida3_TestD1Ev
FN:29,_ZN39esReunionValidaTEST_reunionValida3_TestC2Ev
FN:29,_ZN39esReunionValidaTEST_reunionValida3_TestD0Ev
FN:29,_ZN39esReunionValidaTEST_reunionValida3_TestC1Ev
FN:29,__cxx_global_var_init.11
FN:29,_ZN39esReunionValidaTEST_reunionValida3_TestD2Ev
FN:40,_ZN39esReunionValidaTEST_reunionValida4_TestD1Ev
FN:40,_ZN39esReunionValidaTEST_reunionValida4_Test8TestBodyEv
FN:40,_ZN39esReunionValidaTEST_reunionValida4_TestD0Ev
FN:40,_ZN39esReunionValidaTEST_reunionValida4_TestC1Ev
FN:40,__cxx_global_var_init.15
FN:40,_ZN39esReunionValidaTEST_reunionValida4_TestD2Ev
FN:40,_ZN39esReunionValidaTEST_reunionValida4_TestC2Ev
FN:51,_ZN39esReunionValidaTEST_reunionValida5_Test8TestBodyEv
FN:51,__cxx_global_var_init.19
FN:51,_ZN39esReunionValidaTEST_reunionValida5_TestD2Ev
FN:51,_ZN39esReunionValidaTEST_reunionValida5_TestD1Ev
FN:51,_ZN39esReunionValidaTEST_reunionValida5_TestD0Ev
FN:51,_ZN39esReunionValidaTEST_reunionValida5_TestC2Ev
FN:51,_ZN39esReunionValidaTEST_reunionValida5_TestC1Ev
FN:62,_ZN54esReunionValidaTEST_reunionValidaDeUnSoloHablante_TestD1Ev
FN:62,_ZN54esReunionValidaTEST_reunionValidaDeUnSoloHablante_TestC2Ev
FN:62,__cxx_global_var_init.23
FN:62,_ZN54esReunionValidaTEST_reunionValidaDeUnSoloHablante_TestC1Ev
FN:62,_ZN54esReunionValidaTEST_reunionValidaDeUnSoloHablante_TestD2Ev
FN:62,_ZN54esReunionValidaTEST_reunionValidaDeUnSoloHablante_Test8TestBodyEv
FN:62,_ZN54esReunionValidaTEST_reunionValidaDeUnSoloHablante_TestD0Ev
FN:71,_ZN37esReunionValidaTEST_reunionVacia_TestD1Ev
FN:71,_ZN37esReunionValidaTEST_reunionVacia_Test8TestBodyEv
FN:71,_ZN37esReunionValidaTEST_reunionVacia_TestC1Ev
FN:71,_ZN37esReunionValidaTEST_reunionVacia_TestD2Ev
FN:71,_ZN37esReunionValidaTEST_reunionVacia_TestC2Ev
FN:71,__cxx_global_var_init.26
FN:71,_ZN37esReunionValidaTEST_reunionVacia_TestD0Ev
FN:79,__cxx_global_var_init.28
FN:79,_ZN48esReunionValidaTEST_ProfundidadFueraDeRango_TestC2Ev
FN:79,_ZN48esReunionValidaTEST_ProfundidadFueraDeRango_TestD1Ev
FN:79,_ZN48esReunionValidaTEST_ProfundidadFueraDeRango_Test8TestBodyEv
FN:79,_ZN48esReunionValidaTEST_ProfundidadFueraDeRango_TestD0Ev
FN:79,_ZN48esReunionValidaTEST_ProfundidadFueraDeRango_TestD2Ev
FN:79,_ZN48esReunionValidaTEST_ProfundidadFueraDeRango_TestC1Ev
FN:90,_ZN43esReunionValidaTEST_FrecuenciaInvalida_TestC2Ev
FN:90,_ZN43esReunionValidaTEST_FrecuenciaInvalida_TestC1Ev
FN:90,_ZN43esReunionValidaTEST_FrecuenciaInvalida_Test8TestBodyEv
FN:90,_ZN43esReunionValidaTEST_FrecuenciaInvalida_TestD1Ev
FN:90,_ZN43esReunionValidaTEST_FrecuenciaInvalida_TestD0Ev
FN:90,__cxx_global_var_init.30
FN:90,_ZN43esReunionValidaTEST_FrecuenciaInvalida_TestD2Ev
FN:101,_ZN57esReunionValidaTEST_reunionInvalidaDeUnSoloHablante1_TestC2Ev
FN:101,_ZN57esReunionValidaTEST_reunionInvalidaDeUnSoloHablante1_Test8TestBodyEv
FN:101,__cxx_global_var_init.32
FN:101,_ZN57esReunionValidaTEST_reunionInvalidaDeUnSoloHablante1_TestD2Ev
FN:101,_ZN57esReunionValidaTEST_reunionInvalidaDeUnSoloHablante1_TestC1Ev
FN:101,_ZN57esReunionValidaTEST_reunionInvalidaDeUnSoloHablante1_TestD0Ev
FN:101,_ZN57esReunionValidaTEST_reunionInvalidaDeUnSoloHablante1_TestD1Ev
FN:111,_ZN57esReunionValidaTEST_reunionInvalidaDeUnSoloHablante2_TestD2Ev
FN:111,_ZN57esReunionValidaTEST_reunionInvalidaDeUnSoloHablante2_TestD1Ev
FN:111,_ZN57esReunionValidaTEST_reunionInvalidaDeUnSoloHablante2_TestD0Ev
FN:111,_ZN57esReunionValidaTEST_reunionInvalidaDeUnSoloHablante2_Test8TestBodyEv
FN:111,_ZN57esReunionValidaTEST_reunionInvalidaDeUnSoloHablante2_TestC2Ev
FN:111,__cxx_global_var_init.35
FN:111,_ZN57esReunionValidaTEST_reunionInvalidaDeUnSoloHablante2_TestC1Ev
FN:121,__cxx_global_var_init.37
FN:121,_ZN54esReunionValidaTEST_reunionInvalidaDeDosHablantes_TestD1Ev
FN:121,_ZN54esReunionValidaTEST_reunionInvalidaDeDosHablantes_TestC1Ev
FN:121,_ZN54esReunionValidaTEST_reunionInvalidaDeDosHablantes_Test8TestBodyEv
FN:121,_ZN54esReunionValidaTEST_reunionInvalidaDeDosHablantes_TestD0Ev
FN:121,_ZN54esReunionValidaTEST_reunionInvalidaDeDosHablantes_TestD2Ev
FN:121,_ZN54esReunionValidaTEST_reunionInvalidaDeDosHablantes_TestC2Ev
FN:132,_ZN43esReunionValidaTEST_hablantesFaltantes_TestD1Ev
FN:132,__cxx_global_var_init.39
FN:132,_ZN43esReunionValidaTEST_hablantesFaltantes_TestC1Ev
FN:132,_ZN43esReunionValidaTEST_hablantesFaltantes_TestD2Ev
FN:132,_ZN43esReunionValidaTEST_hablantesFaltantes_TestD0Ev
FN:132,_ZN43esReunionValidaTEST_hablantesFaltantes_Test8TestBodyEv
FN:132,_ZN43esReunionValidaTEST_hablantesFaltantes_TestC2Ev
FN:143,_ZN35esReunionValidaTEST_noEsMatriz_Test8TestBodyEv
FN:143,__cxx_global_var_init.41
FN:143,_ZN35esReunionValidaTEST_noEsMatriz_TestD0Ev
FN:143,_ZN35esReunionValidaTEST_noEsMatriz_TestD1Ev
FN:143,_ZN35esReunionValidaTEST_noEsMatriz_TestD2Ev
FN:143,_ZN35esReunionValidaTEST_noEsMatriz_TestC2Ev
FN:143,_ZN35esReunionValidaTEST_noEsMatriz_TestC1Ev
FN:153,_ZN50esReunionValidaTEST_hablanteConSenialNoValida_TestC2Ev
FN:153,_ZN50esReunionValidaTEST_hablanteConSenialNoValida_TestD2Ev
FN:153,_ZN50esReunionValidaTEST_hablanteConSenialNoValida_Test8TestBodyEv
FN:153,__cxx_global_var_init.45
FN:153,_ZN50esReunionValidaTEST_hablanteConSenialNoValida_TestD1Ev
FN:153,_ZN50esReunionValidaTEST_hablanteConSenialNoValida_TestD0Ev
FN:153,_ZN50esReunionValidaTEST_hablanteConSenialNoValida_TestC1Ev
FN:163,_ZN43esReunionValidaTEST_hablantesRepetidos_Test8TestBodyEv
FN:163,_ZN43esReunionValidaTEST_hablantesRepetidos_TestC1Ev
FN:163,_ZN43esReunionValidaTEST_hablantesRepetidos_TestD1Ev
FN:163,__cxx_global_var_init.49
FN:163,_ZN43esReunionValidaTEST_hablantesRepetidos_TestD2Ev
FN:163,_ZN43esReunionValidaTEST_hablantesRepetidos_TestC2Ev
FN:163,_ZN43esReunionValidaTEST_hablantesRepetidos_TestD0Ev
FN:174,_ZN54esReunionValidaTEST_hablanteConNumeroFueraDeRango_TestC2Ev
FN:174,__cxx_global_var_init.54
FN:174,_ZN54esReunionValidaTEST_hablanteConNumeroFueraDeRango_TestD2Ev
FN:174,_ZN54esReunionValidaTEST_hablanteConNumeroFueraDeRango_TestD1Ev
FN:174,_ZN54esReunionValidaTEST_hablanteConNumeroFueraDeRango_TestC1Ev
FN:174,_ZN54esReunionValidaTEST_hablanteConNumeroFueraDeRango_Test8TestBodyEv
FN:174,_ZN54esReunionValidaTEST_hablanteConNumeroFueraDeRango_TestD0Ev
FNDA:4,__cxx_global_var_init
FNDA:4,_ZN38esReunionValidaTEST_reunionValida_Test8TestBodyEv
FNDA:4,_ZN38esReunionValidaTEST_reunionValida_TestD1Ev
FNDA:4,_ZN38esReunionValidaTEST_reunionValida_TestD0Ev
FNDA:4,_ZN38esReunionValidaTEST_reunionValida_TestC1Ev
FNDA:4,_ZN38esReunionValidaTEST_reunionValida_TestC2Ev
FNDA:4,_ZN38esReunionValidaTEST_reunionValida_TestD2Ev
FNDA:4,__cxx_global_var_init.7
FNDA:4,_ZN39esReunionValidaTEST_reunionValida2_Test8TestBodyEv
FNDA:4,_ZN39esReunionValidaTEST_reunionValida2_TestD1Ev
FNDA:4,_ZN39esReunionValidaTEST_reunionValida2_TestD0Ev
FNDA:4,_ZN39esReunionValidaTEST_reunionValida2_TestC1Ev
FNDA:4,_ZN39esReunionValidaTEST_reunionValida2_TestC2Ev
FNDA:4,_ZN39esReunionValidaTEST_reunionValida2_TestD2Ev
FNDA:4,__cxx_global_var_init.11
FNDA:4,_ZN39esReunionValidaTEST_reunionValida3_Test8TestBodyEv
FNDA:4,_ZN39esReunionValidaTEST_reunionValida3_TestD1Ev
FNDA:4,_ZN39esReunionValidaTEST_reunionValida3_TestD0Ev
FNDA:4,_ZN39esReunionValidaTEST_reunionValida3_TestC1Ev
FNDA:4,_ZN39esReunionValidaTEST_reunionValida3_TestC2Ev
FNDA:4,_ZN39esReunionValidaTEST_reunionValida3_TestD2Ev
FNDA:4,__cxx_global_var_init.15
FNDA:4,_ZN39esReunionValidaTEST_reunionValida4_Test8TestBodyEv
FNDA:4,_ZN39esReunionValidaTEST_reunionValida4_TestD1Ev
FNDA:4,_ZN39esReunionValidaTEST_reunionValida4_TestD0Ev
FNDA:4,_ZN39esReunionValidaTEST_reunionValida4_TestC1Ev
FNDA:4,_ZN39esReunionValidaTEST_reunionValida4_TestC2Ev
FNDA:4,_ZN39esReunionValidaTEST_reunionValida4_TestD2Ev
FNDA:4,__cxx_global_var_init.19
FNDA:4,_ZN39esReunionValidaTEST_reunionValida5_Test8TestBodyEv
FNDA:4,_ZN39esReunionValidaTEST_reunionValida5_TestD1Ev
FNDA:4,_ZN39esReunionValidaTEST_reunionValida5_TestD0Ev
FNDA:4,_ZN39esReunionValidaTEST_reunionValida5_TestC1Ev
FNDA:4,_ZN39esReunionValidaTEST_reunionValida5_TestC2Ev
FNDA:4,_ZN39esReunionValidaTEST_reunionValida5_TestD2Ev
FNDA:4,__cxx_global_var_init.23
FNDA:4,_ZN54esReunionValidaTEST_reunionValidaDeUnSoloHablante_Test8TestBodyEv
FNDA:4,_ZN54esReunionValidaTEST_reunionValidaDeUnSoloHablante_TestD1Ev
FNDA:4,_ZN54esReunionValidaTEST_reunionValidaDeUnSoloHablante_TestD0Ev
FNDA:4,_ZN54esReunionValidaTEST_reunionValidaDeUnSoloHablante_TestC1Ev
FNDA:4,_ZN54esReunionValidaTEST_reunionValidaDeUnSoloHablante_TestC2Ev
FNDA:4,_ZN54esReunionValidaTEST_reunionValidaDeUnSoloHablante_TestD2Ev
FNDA:4,__cxx_global_var_init.26
FNDA:4,_ZN37esReunionValidaTEST_reunionVacia_Test8TestBodyEv
FNDA:4,_ZN37esReunionValidaTEST_reunionVacia_TestD1Ev
FNDA:4,_ZN37esReunionValidaTEST_reunionVacia_TestD0Ev
FNDA:4,_ZN37esReunionValidaTEST_reunionVacia_TestC1Ev
FNDA:4,_ZN37esReunionValidaTEST_reunionVacia_TestC2Ev
FNDA:4,_ZN37esReunionValidaTEST_reunionVacia_TestD2Ev
FNDA:4,__cxx_global_var_init.28
FNDA:4,_ZN48esReunionValidaTEST_ProfundidadFueraDeRango_Test8TestBodyEv
FNDA:4,_ZN48esReunionValidaTEST_ProfundidadFueraDeRango_TestD1Ev
FNDA:4,_ZN48esReunionValidaTEST_ProfundidadFueraDeRango_TestD0Ev
FNDA:4,_ZN48esReunionValidaTEST_ProfundidadFueraDeRango_TestC1Ev
FNDA:4,_ZN48esReunionValidaTEST_ProfundidadFueraDeRango_TestC2Ev
FNDA:4,_ZN48esReunionValidaTEST_ProfundidadFueraDeRango_TestD2Ev
FNDA:4,__cxx_global_var_init.30
FNDA:4,_ZN43esReunionValidaTEST_FrecuenciaInvalida_Test8TestBodyEv
FNDA:4,_ZN43esReunionValidaTEST_FrecuenciaInvalida_TestD1Ev
FNDA:4,_ZN43esReunionValidaTEST_FrecuenciaInvalida_TestD0Ev
FNDA:4,_ZN43esReunionValidaTEST_FrecuenciaInvalida_TestC1Ev
FNDA:4,_ZN43esReunionValidaTEST_FrecuenciaInvalida_TestC2Ev
FNDA:4,_ZN43esReunionValidaTEST_FrecuenciaInvalida_TestD2Ev
FNDA:4,__cxx_global_var_init.32
FNDA:4,_ZN57esReunionValidaTEST_reunionInvalidaDeUnSoloHablante1_Test8TestBodyEv
FNDA:4,_ZN57esReunionValidaTEST_reunionInvalidaDeUnSoloHablante1_TestD1Ev
FNDA:4,_ZN57esReunionValidaTEST_reunionInvalidaDeUnSoloHablante1_TestD0Ev
FNDA:4,_ZN57esReunionValidaTEST_reunionInvalidaDeUnSoloHablante1_TestC1Ev
FNDA:4,_ZN57esReunionValidaTEST_reunionInvalidaDeUnSoloHablante1_TestC2Ev
FNDA:4,_ZN57esReunionValidaTEST_reunionInvalidaDeUnSoloHablante1_TestD2Ev
FNDA:4,__cxx_global_var_init.35
FNDA:4,_ZN57esReunionValidaTEST_reunionInvalidaDeUnSoloHablante2_Test8TestBodyEv
FNDA:4,_ZN57esReunionValidaTEST_reunionInvalidaDeUnSoloHablante2_TestD1Ev
FNDA:4,_ZN57esReunionValidaTEST_reunionInvalidaDeUnSoloHablante2_TestD0Ev
FNDA:4,_ZN57esReunionValidaTEST_reunionInvalidaDeUnSoloHablante2_TestC1Ev
FNDA:4,_ZN57esReunionValidaTEST_reunionInvalidaDeUnSoloHablante2_TestC2Ev
FNDA:4,_ZN57esReunionValidaTEST_reunionInvalidaDeUnSoloHablante2_TestD2Ev
FNDA:4,__cxx_global_var_init.37
FNDA:4,_ZN54esReunionValidaTEST_reunionInvalidaDeDosHablantes_Test8TestBodyEv
FNDA:4,_ZN54esReunionValidaTEST_reunionInvalidaDeDosHablantes_TestD1Ev
FNDA:4,_ZN54esReunionValidaTEST_reunionInvalidaDeDosHablantes_TestD0Ev
FNDA:4,_ZN54esReunionValidaTEST_reunionInvalidaDeDosHablantes_TestC1Ev
FNDA:4,_ZN54esReunionValidaTEST_reunionInvalidaDeDosHablantes_TestC2Ev
FNDA:4,_ZN54esReunionValidaTEST_reunionInvalidaDeDosHablantes_TestD2Ev
FNDA:4,__cxx_global_var_init.39
FNDA:4,_ZN43esReunionValidaTEST_hablantesFaltantes_Test8TestBodyEv
FNDA:4,_ZN43esReunionValidaTEST_hablantesFaltantes_TestD1Ev
FNDA:4,_ZN43esReunionValidaTEST_hablantesFaltantes_TestD0Ev
FNDA:4,_ZN43esReunionValidaTEST_hablantesFaltantes_TestC1Ev
FNDA:4,_ZN43esReunionValidaTEST_hablantesFaltantes_TestC2Ev
FNDA:4,_ZN43esReunionValidaTEST_hablantesFaltantes_TestD2Ev
FNDA:4,__cxx_global_var_init.41
FNDA:4,_ZN35esReunionValidaTEST_noEsMatriz_Test8TestBodyEv
FNDA:4,_ZN35esReunionValidaTEST_noEsMatriz_TestD1Ev
FNDA:4,_ZN35esReunionValidaTEST_noEsMatriz_TestD0Ev
FNDA:4,_ZN35esReunionValidaTEST_noEsMatriz_TestC1Ev
FNDA:4,_ZN35esReunionValidaTEST_noEsMatriz_TestC2Ev
FNDA:4,_ZN35esReunionValidaTEST_noEsMatriz_TestD2Ev
FNDA:4,__cxx_global_var_init.45
FNDA:4,_ZN50esReunionValidaTEST_hablanteConSenialNoValida_Test8TestBodyEv
FNDA:4,_ZN50esReunionValidaTEST_hablanteConSenialNoValida_TestD1Ev
FNDA:4,_ZN50esReunionValidaTEST_hablanteConSenialNoValida_TestD0Ev
FNDA:4,_ZN50esReunionValidaTEST_hablanteConSenialNoValida_TestC1Ev
FNDA:4,_ZN50esReunionValidaTEST_hablanteConSenialNoValida_TestC2Ev
FNDA:4,_ZN50esReunionValidaTEST_hablanteConSenialNoValida_TestD2Ev
FNDA:4,__cxx_global_var_init.49
FNDA:4,_ZN43esReunionValidaTEST_hablantesRepetidos_Test8TestBodyEv
FNDA:4,_ZN43esReunionValidaTEST_hablantesRepetidos_TestD1Ev
FNDA:4,_ZN43esReunionValidaTEST_hablantesRepetidos_TestD0Ev
FNDA:4,_ZN43esReunionValidaTEST_hablantesRepetidos_TestC1Ev
FNDA:4,_ZN43esReunionValidaTEST_hablantesRepetidos_TestC2Ev
FNDA:4,_ZN43esReunionValidaTEST_hablantesRepetidos_TestD2Ev
FNDA:4,__cxx_global_var_init.54
FNDA:4,_ZN54esReunionValidaTEST_hablanteConNumeroFueraDeRango_Test8TestBodyEv
FNDA:4,_ZN54esReunionValidaTEST_hablanteConNumeroFueraDeRango_TestD1Ev
FNDA:4,_ZN54esReunionValidaTEST_hablanteConNumeroFueraDeRango_TestD0Ev
FNDA:4,_ZN54esReunionValidaTEST_hablanteConNumeroFueraDeRango_TestC1Ev
FNDA:4,_ZN54esReunionValidaTEST_hablanteConNumeroFueraDeRango_TestC2Ev
FNDA:4,_ZN54esReunionValidaTEST_hablanteConNumeroFueraDeRango_TestD2Ev
FNF:119
FNH:119
DA:8,28
DA:9,4
DA:10,4
DA:11,8
DA:12,4
DA:13,4
DA:15,4
DA:16,4
DA:18,28
DA:20,4
DA:21,4
DA:22,8
DA:23,4
DA:24,4
DA:26,4
DA:27,4
DA:29,28
DA:31,4
DA:32,4
DA:33,8
DA:34,4
DA:35,4
DA:37,4
DA:38,4
DA:40,28
DA:42,4
DA:43,4
DA:44,16
DA:45,4
DA:46,4
DA:48,4
DA:49,4
DA:51,28
DA:53,4
DA:54,4
DA:55,16
DA:56,4
DA:57,4
DA:59,4
DA:60,4
DA:62,28
DA:63,4
DA:64,4
DA:65,4
DA:66,4
DA:68,4
DA:69,4
DA:71,28
DA:72,4
DA:73,4
DA:74,4
DA:76,4
DA:77,4
DA:79,28
DA:81,4
DA:82,4
DA:83,8
DA:84,4
DA:85,4
DA:87,4
DA:88,4
DA:90,28
DA:92,4
DA:93,4
DA:94,8
DA:95,4
DA:96,4
DA:98,4
DA:99,4
DA:101,28
DA:103,4
DA:104,4
DA:105,4
DA:106,4
DA:108,4
DA:109,4
DA:111,28
DA:113,4
DA:114,4
DA:115,4
DA:116,4
DA:118,4
DA:119,4
DA:121,28
DA:123,4
DA:124,4
DA:125,8
DA:126,4
DA:127,4
DA:129,4
DA:130,4
DA:132,28
DA:134,4
DA:135,4
DA:136,8
DA:137,4
DA:138,4
DA:140,4
DA:141,4
DA:143,28
DA:144,4
DA:145,4
DA:146,8
DA:147,4
DA:148,4
DA:150,4
DA:151,4
DA:153,28
DA:154,4
DA:155,4
DA:156,8
DA:157,4
DA:158,4
DA:160,4
DA:161,4
DA:163,28
DA:164,4
DA:165,4
DA:166,4
DA:167,12
DA:168,4
DA:169,4
DA:171,4
DA:172,4
DA:174,28
DA:175,4
DA:176,4
DA:177,4
DA:178,12
DA:179,4
DA:180,4
DA:182,4
DA:183,4
LF:133
LH:133
end_of_record
TN:
SF:/Library/Developer/CommandLineTools/usr/include/c++/v1/__string
FN:218,_ZNSt3__111char_traitsIcE6lengthEPKc
FNDA:0,_ZNSt3__111char_traitsIcE6lengthEPKc
FNF:1
FNH:0
DA:218,0
LF:1
LH:0
end_of_record
SF:/Library/Developer/CommandLineTools/usr/include/c++/v1/algorithm
FN:716,_ZNKSt3__16__lessImmEclERKmS3_
FN:2454,_ZNSt3__1L3minImNS_6__lessImmEEEERKT_S5_S5_T0_
FN:2462,_ZNSt3__1L3minImEERKT_S3_S3_
FNDA:0,_ZNKSt3__16__lessImmEclERKmS3_
FNDA:0,_ZNSt3__1L3minImNS_6__lessImmEEEERKT_S5_S5_T0_
FNDA:0,_ZNSt3__1L3minImEERKT_S3_S3_
FNF:3
FNH:0
DA:716,0
DA:2454,0
DA:2456,0
DA:2462,0
DA:2464,0
LF:5
LH:0
end_of_record
SF:/Library/Developer/CommandLineTools/usr/include/c++/v1/initializer_list
FN:85,_ZNKSt16initializer_listIiE4sizeEv
FN:89,_ZNKSt16initializer_listIiE5beginEv
FN:93,_ZNKSt16initializer_listIiE3endEv
FNDA:84,_ZNKSt16initializer_listIiE4sizeEv
FNDA:28,_ZNKSt16initializer_listIiE5beginEv
FNDA:28,_ZNKSt16initializer_listIiE3endEv
FNF:3
FNH:3
DA:85,84
DA:89,28
DA:93,28
LF:3
LH:3
end_of_record
SF:/Library/Developer/CommandLineTools/usr/include/c++/v1/limits
FN:215,_ZNSt3__123__libcpp_numeric_limitsIlLb1EE3maxEv
FN:452,_ZNSt3__114numeric_limitsIlE3maxEv
FNDA:0,_ZNSt3__123__libcpp_numeric_limitsIlLb1EE3maxEv
FNDA:0,_ZNSt3__114numeric_limitsIlE3maxEv
FNF:2
FNH:0
DA:215,0
DA:452,0
LF:2
LH:0
end_of_record
SF:/Library/Developer/CommandLineTools/usr/include/c++/v1/memory
FN:988,_ZNSt3__114pointer_traitsIPKcE10pointer_toERS1_
FN:1106,_ZNSt3__1L16__to_raw_pointerIKcEEPT_S3_
FN:1106,_ZNSt3__1L16__to_raw_pointerIiEEPT_S2_
FN:1546,_ZNSt3__116allocator_traitsINS_9allocatorIiEEE8allocateERS2_m
FN:1554,_ZNSt3__116allocator_traitsINS_9allocatorIiEEE10deallocateERS2_Pim
FN:1560,_ZNSt3__116allocator_traitsINS_9allocatorIiEEE9constructIiJRKiEEEvRS2_PT_DpOT0_
FN:1595,_ZNSt3__116allocator_traitsINS_9allocatorIiEEE7destroyIiEEvRS2_PT_
FN:1599,_ZNSt3__116allocator_traitsINS_9allocatorIiEEE8max_sizeERKS2_
FN:1604,_ZNSt3__116allocator_traitsINS_9allocatorIiEEE37select_on_container_copy_constructionERKS2_
FN:1662,_ZNSt3__116allocator_traitsINS_9allocatorIiEEE25__construct_range_forwardIiiiiEENS_9enable_ifIXaaaasr31is_trivially_move_constructibleIT0_EE5valuesr7is_sameIT1_T2_EE5valueooL_ZNS_17integral_constantIbLb1EE5valueEEntsr15__has_constructIS2_PS6_RT_EE5valueEvE4typeERS2_PSC_SH_RSB_
FN:1662,_ZNSt3__116allocator_traitsINS_9allocatorIiEEE25__construct_range_forwardIKiiiiEENS_9enable_ifIXaaaasr31is_trivially_move_constructibleIT0_EE5valuesr7is_sameIT1_T2_EE5valueooL_ZNS_17integral_constantIbLb1EE5valueEEntsr15__has_constructIS2_PS7_RT_EE5valueEvE4typeERS2_PSD_SI_RSC_
FN:1717,_ZNSt3__116allocator_traitsINS_9allocatorIiEEE11__constructIiJRKiEEEvNS_17integral_constantIbLb1EEERS2_PT_DpOT0_
FN:1742,_ZNSt3__116allocator_traitsINS_9allocatorIiEEE9__destroyIiEEvNS_17integral_constantIbLb1EEERS2_PT_
FN:1752,_ZNSt3__116allocator_traitsINS_9allocatorIiEEE10__max_sizeENS_17integral_constantIbLb1EEERKS2_
FN:1764,_ZNSt3__116allocator_traitsINS_9allocatorIiEEE39__select_on_container_copy_constructionENS_17integral_constantIbLb0EEERKS2_
FN:1798,_ZNSt3__19allocatorIcEC2Ev
FN:1798,_ZNSt3__19allocatorIiEC2Ev
FN:1809,_ZNSt3__19allocatorIiE8allocateEmPKv
FN:1816,_ZNSt3__19allocatorIiE10deallocateEPim
FN:1818,_ZNKSt3__19allocatorIiE8max_sizeEv
FN:1824,_ZNSt3__19allocatorIiE9constructIiJRKiEEEvPT_DpOT0_
FN:1881,_ZNSt3__19allocatorIiE7destroyEPi
FN:2140,_ZNSt3__122__compressed_pair_elemINS_12basic_stringIcNS_11char_traitsIcEENS_9allocatorIcEEE5__repELi0ELb0EEC2Ev
FN:2147,_ZNSt3__122__compressed_pair_elemIPiLi0ELb0EEC2IDnvEEOT_
FN:2163,_ZNSt3__122__compressed_pair_elemIPiLi0ELb0EE5__getEv
FN:2165,_ZNKSt3__122__compressed_pair_elemINS_12basic_stringIcNS_11char_traitsIcEENS_9allocatorIcEEE5__repELi0ELb0EE5__getEv
FN:2165,_ZNKSt3__122__compressed_pair_elemIPiLi0ELb0EE5__getEv
FN:2179,_ZNSt3__122__compressed_pair_elemINS_9allocatorIiEELi1ELb1EEC2Ev
FN:2179,_ZNSt3__122__compressed_pair_elemINS_9allocatorIcEELi1ELb1EEC2Ev
FN:2186,_ZNSt3__122__compressed_pair_elemINS_9allocatorIiEELi1ELb1EEC2IS2_vEEOT_
FN:2202,_ZNSt3__122__compressed_pair_elemINS_9allocatorIiEELi1ELb1EE5__getEv
FN:2204,_ZNKSt3__122__compressed_pair_elemINS_9allocatorIiEELi1ELb1EE5__getEv
FN:2234,_ZNSt3__117__compressed_pairINS_12basic_stringIcNS_11char_traitsIcEENS_9allocatorIcEEE5__repES5_EC2ILb1EvEEv
FN:2234,_ZNSt3__117__compressed_pairINS_12basic_stringIcNS_11char_traitsIcEENS_9allocatorIcEEE5__repES5_EC1ILb1EvEEv
FN:2240,_ZNSt3__117__compressed_pairIPiNS_9allocatorIiEEEC1IDnLb1EEEOT_
FN:2240,_ZNSt3__117__compressed_pairIPiNS_9allocatorIiEEEC2IDnLb1EEEOT_
FN:2250,_ZNSt3__117__compressed_pairIPiNS_9allocatorIiEEEC1IDnS3_EEOT_OT0_
FN:2250,_ZNSt3__117__compressed_pairIPiNS_9allocatorIiEEEC2IDnS3_EEOT_OT0_
FN:2279,_ZNSt3__117__compressed_pairIPiNS_9allocatorIiEEE5firstEv
FN:2284,_ZNKSt3__117__compressed_pairINS_12basic_stringIcNS_11char_traitsIcEENS_9allocatorIcEEE5__repES5_E5firstEv
FN:2284,_ZNKSt3__117__compressed_pairIPiNS_9allocatorIiEEE5firstEv
FN:2289,_ZNSt3__117__compressed_pairIPiNS_9allocatorIiEEE6secondEv
FN:2294,_ZNKSt3__117__compressed_pairIPiNS_9allocatorIiEEE6secondEv
FNDA:0,_ZNSt3__114pointer_traitsIPKcE10pointer_toERS1_
FNDA:0,_ZNSt3__1L16__to_raw_pointerIKcEEPT_S3_
FNDA:448,_ZNSt3__1L16__to_raw_pointerIiEEPT_S2_
FNDA:0,_ZNSt3__116allocator_traitsINS_9allocatorIiEEE8allocateERS2_m
FNDA:0,_ZNSt3__116allocator_traitsINS_9allocatorIiEEE10deallocateERS2_Pim
FNDA:0,_ZNSt3__116allocator_traitsINS_9allocatorIiEEE9constructIiJRKiEEEvRS2_PT_DpOT0_
FNDA:0,_ZNSt3__116allocator_traitsINS_9allocatorIiEEE7destroyIiEEvRS2_PT_
FNDA:0,_ZNSt3__116allocator_traitsINS_9allocatorIiEEE8max_sizeERKS2_
FNDA:0,_ZNSt3__116allocator_traitsINS_9allocatorIiEEE37select_on_container_copy_constructionERKS2_
FNDA:0,_ZNSt3__116allocator_traitsINS_9allocatorIiEEE25__construct_range_forwardIKiiiiEENS_9enable_ifIXaaaasr31is_trivially_move_constructibleIT0_EE5valuesr7is_sameIT1_T2_EE5valueooL_ZNS_17integral_constantIbLb1EE5valueEEntsr15__has_constructIS2_PS7_RT_EE5valueEvE4typeERS2_PSD_SI_RSC_
FNDA:0,_ZNSt3__116allocator_traitsINS_9allocatorIiEEE25__construct_range_forwardIiiiiEENS_9enable_ifIXaaaasr31is_trivially_move_constructibleIT0_EE5valuesr7is_sameIT1_T2_EE5valueooL_ZNS_17integral_constantIbLb1EE5valueEEntsr15__has_constructIS2_PS6_RT_EE5valueEvE4typeERS2_PSC_SH_RSB_
FNDA:0,_ZNSt3__116allocator_traitsINS_9allocatorIiEEE11__constructIiJRKiEEEvNS_17integral_constantIbLb1EEERS2_PT_DpOT0_
FNDA:0,_ZNSt3__116allocator_traitsINS_9allocatorIiEEE9__destroyIiEEvNS_17integral_constantIbLb1EEERS2_PT_
FNDA:0,_ZNSt3__116allocator_traitsINS_9allocatorIiEEE10__max_sizeENS_17integral_constantIbLb1EEERKS2_
FNDA:0,_ZNSt3__116allocator_traitsINS_9allocatorIiEEE39__select_on_container_copy_constructionENS_17integral_constantIbLb0EEERKS2_
FNDA:56,_ZNSt3__19allocatorIcEC2Ev
FNDA:28,_ZNSt3__19allocatorIiEC2Ev
FNDA:0,_ZNSt3__19allocatorIiE8allocateEmPKv
FNDA:0,_ZNSt3__19allocatorIiE10deallocateEPim
FNDA:0,_ZNKSt3__19allocatorIiE8max_sizeEv
FNDA:0,_ZNSt3__19allocatorIiE9constructIiJRKiEEEvPT_DpOT0_
FNDA:0,_ZNSt3__19allocatorIiE7destroyEPi
FNDA:56,_ZNSt3__122__compressed_pair_elemINS_12basic_stringIcNS_11char_traitsIcEENS_9allocatorIcEEE5__repELi0ELb0EEC2Ev
FNDA:28,_ZNSt3__122__compressed_pair_elemIPiLi0ELb0EEC2IDnvEEOT_
FNDA:0,_ZNSt3__122__compressed_pair_elemIPiLi0ELb0EE5__getEv
FNDA:0,_ZNKSt3__122__compressed_pair_elemINS_12basic_stringIcNS_11char_traitsIcEENS_9allocatorIcEEE5__repELi0ELb0EE5__getEv
FNDA:224,_ZNKSt3__122__compressed_pair_elemIPiLi0ELb0EE5__getEv
FNDA:56,_ZNSt3__122__compressed_pair_elemINS_9allocatorIcEELi1ELb1EEC2Ev
FNDA:28,_ZNSt3__122__compressed_pair_elemINS_9allocatorIiEELi1ELb1EEC2Ev
FNDA:0,_ZNSt3__122__compressed_pair_elemINS_9allocatorIiEELi1ELb1EEC2IS2_vEEOT_
FNDA:0,_ZNSt3__122__compressed_pair_elemINS_9allocatorIiEELi1ELb1EE5__getEv
FNDA:0,_ZNKSt3__122__compressed_pair_elemINS_9allocatorIiEELi1ELb1EE5__getEv
FNDA:56,_ZNSt3__117__compressed_pairINS_12basic_stringIcNS_11char_traitsIcEENS_9allocatorIcEEE5__repES5_EC1ILb1EvEEv
FNDA:56,_ZNSt3__117__compressed_pairINS_12basic_stringIcNS_11char_traitsIcEENS_9allocatorIcEEE5__repES5_EC2ILb1EvEEv
FNDA:28,_ZNSt3__117__compressed_pairIPiNS_9allocatorIiEEEC1IDnLb1EEEOT_
FNDA:28,_ZNSt3__117__compressed_pairIPiNS_9allocatorIiEEEC2IDnLb1EEEOT_
FNDA:0,_ZNSt3__117__compressed_pairIPiNS_9allocatorIiEEEC1IDnS3_EEOT_OT0_
FNDA:0,_ZNSt3__117__compressed_pairIPiNS_9allocatorIiEEEC2IDnS3_EEOT_OT0_
FNDA:0,_ZNSt3__117__compressed_pairIPiNS_9allocatorIiEEE5firstEv
FNDA:0,_ZNKSt3__117__compressed_pairINS_12basic_stringIcNS_11char_traitsIcEENS_9allocatorIcEEE5__repES5_E5firstEv
FNDA:224,_ZNKSt3__117__compressed_pairIPiNS_9allocatorIiEEE5firstEv
FNDA:0,_ZNSt3__117__compressed_pairIPiNS_9allocatorIiEEE6secondEv
FNDA:0,_ZNKSt3__117__compressed_pairIPiNS_9allocatorIiEEE6secondEv
FNF:43
FNH:13
DA:988,0
DA:990,0
DA:1106,448
DA:1108,448
DA:1546,0
DA:1547,0
DA:1554,0
DA:1555,0
DA:1560,0
DA:1561,0
DA:1562,0
DA:1595,0
DA:1596,0
DA:1599,0
DA:1600,0
DA:1604,0
DA:1605,0
DA:1606,0
DA:1607,0
DA:1662,0
DA:1664,0
DA:1665,0
DA:1667,0
DA:1668,0
DA:1669,0
DA:1670,0
DA:1717,0
DA:1718,0
DA:1742,0
DA:1743,0
DA:1752,0
DA:1753,0
DA:1764,0
DA:1765,0
DA:1798,84
DA:1809,0
DA:1811,0
DA:1812,0
DA:1814,0
DA:1816,0
DA:1817,0
DA:1818,0
DA:1819,0
DA:1824,0
DA:1826,0
DA:1827,0
DA:1881,0
DA:2140,56
DA:2147,28
DA:2148,28
DA:2150,28
DA:2163,0
DA:2165,224
DA:2179,84
DA:2186,0
DA:2187,0
DA:2188,0
DA:2202,0
DA:2204,0
DA:2234,112
DA:2240,56
DA:2241,56
DA:2250,0
DA:2251,0
DA:2279,0
DA:2280,0
DA:2284,224
DA:2285,224
DA:2289,0
DA:2290,0
DA:2294,0
DA:2295,0
LF:72
LH:14
end_of_record
SF:/Library/Developer/CommandLineTools/usr/include/c++/v1/new
FN:223,_ZNSt3__1L17__libcpp_allocateEmm
FN:245,_ZNSt3__117_DeallocateCaller33__do_deallocate_handle_size_alignEPvmm
FN:275,_ZNSt3__117_DeallocateCaller27__do_deallocate_handle_sizeEPvm
FN:316,_ZNSt3__117_DeallocateCaller9__do_callEPv
FN:325,_ZNSt3__1L19__libcpp_deallocateEPvmm
FNDA:0,_ZNSt3__1L17__libcpp_allocateEmm
FNDA:0,_ZNSt3__117_DeallocateCaller33__do_deallocate_handle_size_alignEPvmm
FNDA:0,_ZNSt3__117_DeallocateCaller27__do_deallocate_handle_sizeEPvm
FNDA:0,_ZNSt3__117_DeallocateCaller9__do_callEPv
FNDA:0,_ZNSt3__1L19__libcpp_deallocateEPvmm
FNF:5
FNH:0
DA:223,0
DA:239,0
DA:245,0
DA:248,0
DA:275,0
DA:278,0
DA:316,0
DA:320,0
DA:325,0
DA:326,0
DA:327,0
LF:11
LH:0
end_of_record
SF:/Library/Developer/CommandLineTools/usr/include/c++/v1/stdexcept
FN:136,_ZNSt12length_errorC2EPKc
FN:136,_ZNSt12length_errorC1EPKc
FN:222,_ZNSt3__1L20__throw_length_errorEPKc
FNDA:0,_ZNSt12length_errorC1EPKc
FNDA:0,_ZNSt12length_errorC2EPKc
FNDA:0,_ZNSt3__1L20__throw_length_errorEPKc
FNF:3
FNH:0
DA:136,0
DA:222,0
DA:225,0
DA:230,0
LF:4
LH:0
end_of_record
SF:/Library/Developer/CommandLineTools/usr/include/c++/v1/string
FN:818,_ZNSt3__112basic_stringIcNS_11char_traitsIcEENS_9allocatorIcEEEC2IDnEEPKc
FN:818,_ZNSt3__112basic_stringIcNS_11char_traitsIcEENS_9allocatorIcEEEC1IDnEEPKc
FN:1241,_ZNKSt3__112basic_stringIcNS_11char_traitsIcEENS_9allocatorIcEEE5c_strEv
FN:1243,_ZNKSt3__112basic_stringIcNS_11char_traitsIcEENS_9allocatorIcEEE4dataEv
FN:1420,_ZNKSt3__112basic_stringIcNS_11char_traitsIcEENS_9allocatorIcEEE9__is_longEv
FN:1502,_ZNKSt3__112basic_stringIcNS_11char_traitsIcEENS_9allocatorIcEEE18__get_long_pointerEv
FN:1508,_ZNKSt3__112basic_stringIcNS_11char_traitsIcEENS_9allocatorIcEEE19__get_short_pointerEv
FN:1514,_ZNKSt3__112basic_stringIcNS_11char_traitsIcEENS_9allocatorIcEEE13__get_pointerEv
FNDA:56,_ZNSt3__112basic_stringIcNS_11char_traitsIcEENS_9allocatorIcEEEC1IDnEEPKc
FNDA:56,_ZNSt3__112basic_stringIcNS_11char_traitsIcEENS_9allocatorIcEEEC2IDnEEPKc
FNDA:0,_ZNKSt3__112basic_stringIcNS_11char_traitsIcEENS_9allocatorIcEEE5c_strEv
FNDA:0,_ZNKSt3__112basic_stringIcNS_11char_traitsIcEENS_9allocatorIcEEE4dataEv
FNDA:0,_ZNKSt3__112basic_stringIcNS_11char_traitsIcEENS_9allocatorIcEEE9__is_longEv
FNDA:0,_ZNKSt3__112basic_stringIcNS_11char_traitsIcEENS_9allocatorIcEEE18__get_long_pointerEv
FNDA:0,_ZNKSt3__112basic_stringIcNS_11char_traitsIcEENS_9allocatorIcEEE19__get_short_pointerEv
FNDA:0,_ZNKSt3__112basic_stringIcNS_11char_traitsIcEENS_9allocatorIcEEE13__get_pointerEv
FNF:8
FNH:2
DA:818,112
DA:820,56
DA:824,112
DA:1241,0
DA:1243,0
DA:1420,0
DA:1421,0
DA:1502,0
DA:1503,0
DA:1508,0
DA:1509,0
DA:1514,0
DA:1515,0
LF:13
LH:3
end_of_record
SF:/Library/Developer/CommandLineTools/usr/include/c++/v1/type_traits
FN:454,_ZNSt3__1L9addressofIKcEEPT_RS2_
FN:2310,_ZNSt3__1L4moveIRNS_9allocatorIiEEEEONS_16remove_referenceIT_E4typeEOS5_
FN:2319,_ZNSt3__1L7forwardINS_9allocatorIiEEEEOT_RNS_16remove_referenceIS3_E4typeE
FN:2319,_ZNSt3__1L7forwardIDnEEOT_RNS_16remove_referenceIS1_E4typeE
FN:2319,_ZNSt3__1L7forwardIRKiEEOT_RNS_16remove_referenceIS3_E4typeE
FNDA:0,_ZNSt3__1L9addressofIKcEEPT_RS2_
FNDA:0,_ZNSt3__1L4moveIRNS_9allocatorIiEEEEONS_16remove_referenceIT_E4typeEOS5_
FNDA:56,_ZNSt3__1L7forwardIDnEEOT_RNS_16remove_referenceIS1_E4typeE
FNDA:0,_ZNSt3__1L7forwardINS_9allocatorIiEEEEOT_RNS_16remove_referenceIS3_E4typeE
FNDA:0,_ZNSt3__1L7forwardIRKiEEOT_RNS_16remove_referenceIS3_E4typeE
FNF:5
FNH:1
DA:454,0
DA:456,0
DA:2310,0
DA:2313,0
DA:2319,56
DA:2321,56
LF:6
LH:2
end_of_record
SF:/Library/Developer/CommandLineTools/usr/include/c++/v1/vector
FN:304,_ZNSt3__120__vector_base_commonILb1EEC2Ev
FN:348,_ZNSt3__113__vector_baseIiNS_9allocatorIiEEE7__allocEv
FN:351,_ZNKSt3__113__vector_baseIiNS_9allocatorIiEEE7__allocEv
FN:354,_ZNSt3__113__vector_baseIiNS_9allocatorIiEEE9__end_capEv
FN:357,_ZNKSt3__113__vector_baseIiNS_9allocatorIiEEE9__end_capEv
FN:370,_ZNSt3__113__vector_baseIiNS_9allocatorIiEEE5clearEv
FN:372,_ZNKSt3__113__vector_baseIiNS_9allocatorIiEEE8capacityEv
FN:423,_ZNSt3__113__vector_baseIiNS_9allocatorIiEEE17__destruct_at_endEPi
FN:433,_ZNSt3__113__vector_baseIiNS_9allocatorIiEEEC2Ev
FN:453,_ZNSt3__113__vector_baseIiNS_9allocatorIiEEEC2EOS2_
FN:460,_ZNSt3__113__vector_baseIiNS_9allocatorIiEEED2Ev
FN:550,_ZNSt3__16vectorIiNS_9allocatorIiEEED1Ev
FN:550,_ZNSt3__16vectorIiNS_9allocatorIiEEED2Ev
FN:656,_ZNKSt3__16vectorIiNS_9allocatorIiEEE4sizeEv
FN:659,_ZNKSt3__16vectorIiNS_9allocatorIiEEE8capacityEv
FN:698,_ZNKSt3__16vectorIiNS_9allocatorIiEEE4dataEv
FN:862,_ZNKSt3__16vectorIiNS_9allocatorIiEEE31__annotate_contiguous_containerEPKvS5_S5_S5_
FN:866,_ZNKSt3__16vectorIiNS_9allocatorIiEEE14__annotate_newEm
FN:872,_ZNKSt3__16vectorIiNS_9allocatorIiEEE17__annotate_deleteEv
FN:910,_ZNSt3__16vectorIiNS_9allocatorIiEEE24__RAII_IncreaseAnnotatorC2ERKS3_m
FN:910,_ZNSt3__16vectorIiNS_9allocatorIiEEE24__RAII_IncreaseAnnotatorC1ERKS3_m
FN:911,_ZNSt3__16vectorIiNS_9allocatorIiEEE24__RAII_IncreaseAnnotator6__doneEv
FN:973,_ZNSt3__16vectorIiNS_9allocatorIiEEE11__vallocateEm
FN:996,_ZNKSt3__16vectorIiNS_9allocatorIiEEE8max_sizeEv
FN:1046,_ZNSt3__16vectorIiNS_9allocatorIiEEE18__construct_at_endEmRKi
FN:1066,_ZNSt3__16vectorIiNS_9allocatorIiEEE18__construct_at_endIPKiEENS_9enable_ifIXsr21__is_forward_iteratorIT_EE5valueEvE4typeES8_S8_m
FN:1066,_ZNSt3__16vectorIiNS_9allocatorIiEEE18__construct_at_endIPiEENS_9enable_ifIXsr21__is_forward_iteratorIT_EE5valueEvE4typeES7_S7_m
FN:1142,_ZNSt3__16vectorIiNS_9allocatorIiEEEC1EmRKi
FN:1142,_ZNSt3__16vectorIiNS_9allocatorIiEEEC2EmRKi
FN:1243,_ZNSt3__16vectorIiNS_9allocatorIiEEEC1ERKS3_
FN:1243,_ZNSt3__16vectorIiNS_9allocatorIiEEEC2ERKS3_
FN:1321,_ZNSt3__16vectorIiNS_9allocatorIiEEEC2ESt16initializer_listIiE
FN:1321,_ZNSt3__16vectorIiNS_9allocatorIiEEEC1ESt16initializer_listIiE
FNDA:28,_ZNSt3__120__vector_base_commonILb1EEC2Ev
FNDA:0,_ZNSt3__113__vector_baseIiNS_9allocatorIiEEE7__allocEv
FNDA:0,_ZNKSt3__113__vector_baseIiNS_9allocatorIiEEE7__allocEv
FNDA:0,_ZNSt3__113__vector_baseIiNS_9allocatorIiEEE9__end_capEv
FNDA:224,_ZNKSt3__113__vector_baseIiNS_9allocatorIiEEE9__end_capEv
FNDA:0,_ZNSt3__113__vector_baseIiNS_9allocatorIiEEE5clearEv
FNDA:224,_ZNKSt3__113__vector_baseIiNS_9allocatorIiEEE8capacityEv
FNDA:0,_ZNSt3__113__vector_baseIiNS_9allocatorIiEEE17__destruct_at_endEPi
FNDA:28,_ZNSt3__113__vector_baseIiNS_9allocatorIiEEEC2Ev
FNDA:0,_ZNSt3__113__vector_baseIiNS_9allocatorIiEEEC2EOS2_
FNDA:0,_ZNSt3__113__vector_baseIiNS_9allocatorIiEEED2Ev
FNDA:112,_ZNSt3__16vectorIiNS_9allocatorIiEEED1Ev
FNDA:112,_ZNSt3__16vectorIiNS_9allocatorIiEEED2Ev
FNDA:112,_ZNKSt3__16vectorIiNS_9allocatorIiEEE4sizeEv
FNDA:224,_ZNKSt3__16vectorIiNS_9allocatorIiEEE8capacityEv
FNDA:448,_ZNKSt3__16vectorIiNS_9allocatorIiEEE4dataEv
FNDA:112,_ZNKSt3__16vectorIiNS_9allocatorIiEEE31__annotate_contiguous_containerEPKvS5_S5_S5_
FNDA:0,_ZNKSt3__16vectorIiNS_9allocatorIiEEE14__annotate_newEm
FNDA:112,_ZNKSt3__16vectorIiNS_9allocatorIiEEE17__annotate_deleteEv
FNDA:0,_ZNSt3__16vectorIiNS_9allocatorIiEEE24__RAII_IncreaseAnnotatorC1ERKS3_m
FNDA:0,_ZNSt3__16vectorIiNS_9allocatorIiEEE24__RAII_IncreaseAnnotatorC2ERKS3_m
FNDA:0,_ZNSt3__16vectorIiNS_9allocatorIiEEE24__RAII_IncreaseAnnotator6__doneEv
FNDA:0,_ZNSt3__16vectorIiNS_9allocatorIiEEE11__vallocateEm
FNDA:0,_ZNKSt3__16vectorIiNS_9allocatorIiEEE8max_sizeEv
FNDA:0,_ZNSt3__16vectorIiNS_9allocatorIiEEE18__construct_at_endEmRKi
FNDA:0,_ZNSt3__16vectorIiNS_9allocatorIiEEE18__construct_at_endIPKiEENS_9enable_ifIXsr21__is_forward_iteratorIT_EE5valueEvE4typeES8_S8_m
FNDA:0,_ZNSt3__16vectorIiNS_9allocatorIiEEE18__construct_at_endIPiEENS_9enable_ifIXsr21__is_forward_iteratorIT_EE5valueEvE4typeES7_S7_m
FNDA:0,_ZNSt3__16vectorIiNS_9allocatorIiEEEC1EmRKi
FNDA:0,_ZNSt3__16vectorIiNS_9allocatorIiEEEC2EmRKi
FNDA:0,_ZNSt3__16vectorIiNS_9allocatorIiEEEC1ERKS3_
FNDA:0,_ZNSt3__16vectorIiNS_9allocatorIiEEEC2ERKS3_
FNDA:28,_ZNSt3__16vectorIiNS_9allocatorIiEEEC1ESt16initializer_listIiE
FNDA:28,_ZNSt3__16vectorIiNS_9allocatorIiEEEC2ESt16initializer_listIiE
FNF:33
FNH:13
DA:304,28
DA:348,0
DA:349,0
DA:351,0
DA:352,0
DA:354,0
DA:355,0
DA:357,224
DA:358,224
DA:361,28
DA:365,0
DA:370,0
DA:372,224
DA:373,224
DA:423,0
DA:425,0
DA:426,0
DA:427,0
DA:428,0
DA:429,0
DA:433,28
DA:435,28
DA:436,28
DA:437,28
DA:438,28
DA:439,28
DA:453,0
DA:454,0
DA:455,0
DA:456,0
DA:460,0
DA:462,0
DA:464,0
DA:465,0
DA:466,0
DA:467,0
DA:518,0
DA:550,224
DA:551,112
DA:552,112
DA:556,224
DA:565,28
DA:656,112
DA:657,112
DA:659,224
DA:660,224
DA:698,448
DA:699,448
DA:862,112
DA:863,112
DA:866,0
DA:867,0
DA:868,0
DA:869,0
DA:872,112
DA:873,224
DA:874,112
DA:875,112
DA:910,0
DA:911,0
DA:973,0
DA:975,0
DA:976,0
DA:977,0
DA:978,0
DA:979,0
DA:980,0
DA:996,0
DA:998,0
DA:999,0
DA:1046,0
DA:1048,0
DA:1049,0
DA:1051,0
DA:1052,0
DA:1053,0
DA:1054,0
DA:1055,0
DA:1056,0
DA:1057,0
DA:1066,0
DA:1068,0
DA:1069,0
DA:1070,0
DA:1071,0
DA:1072,0
DA:1142,0
DA:1143,0
DA:1147,0
DA:1149,0
DA:1150,0
DA:1151,0
DA:1152,0
DA:1243,0
DA:1244,0
DA:1245,0
DA:1249,0
DA:1250,0
DA:1252,0
DA:1253,0
DA:1254,0
DA:1255,0
DA:1321,56
DA:1322,56
DA:1326,28
DA:1328,28
DA:1329,28
DA:1330,28
DA:1331,56
LF:109
LH:36
end_of_record
SF:/Users/usuario/Desktop/LabAlgo1/tp2/reunionesRemotas/lib/gtest.h
FN:2394,_ZN7testing8internal10scoped_ptrINSt3__112basic_stringIcNS2_11char_traitsIcEENS2_9allocatorIcEEEEEC1EPS8_
FN:2394,_ZN7testing8internal10scoped_ptrINSt3__112basic_stringIcNS2_11char_traitsIcEENS2_9allocatorIcEEEEEC2EPS8_
FN:2395,_ZN7testing8internal10scoped_ptrINSt3__118basic_stringstreamIcNS2_11char_traitsIcEENS2_9allocatorIcEEEEED2Ev
FN:2395,_ZN7testing8internal10scoped_ptrINSt3__112basic_stringIcNS2_11char_traitsIcEENS2_9allocatorIcEEEEED2Ev
FN:2395,_ZN7testing8internal10scoped_ptrINSt3__112basic_stringIcNS2_11char_traitsIcEENS2_9allocatorIcEEEEED1Ev
FN:2395,_ZN7testing8internal10scoped_ptrINSt3__118basic_stringstreamIcNS2_11char_traitsIcEENS2_9allocatorIcEEEEED1Ev
FN:2407,_ZN7testing8internal10scoped_ptrINSt3__112basic_stringIcNS2_11char_traitsIcEENS2_9allocatorIcEEEEE5resetEPS8_
FN:2407,_ZN7testing8internal10scoped_ptrINSt3__118basic_stringstreamIcNS2_11char_traitsIcEENS2_9allocatorIcEEEEE5resetEPS8_
FN:3935,_ZN7testing7MessageD1Ev
FN:3935,_ZN7testing7MessageD2Ev
FN:8201,_ZN7testing8internal15TestFactoryBaseD2Ev
FN:8201,_ZN7testing8internal15TestFactoryBaseD1Ev
FN:8201,_ZN7testing8internal15TestFactoryBaseD0Ev
FN:8208,_ZN7testing8internal15TestFactoryBaseC2Ev
FN:8217,_ZN7testing8internal15TestFactoryImplI43seEnojoTEST_senialConTonoIgualAlUmbral_TestEC1Ev
FN:8217,_ZN7testing8internal15TestFactoryImplI47seEnojoTEST_senialEnojadaConLongitudMinima_TestEC1Ev
FN:8217,_ZN7testing8internal15TestFactoryImplI62seEnojoTEST_senialEnojadaConMayoriaDeMuestrasIgualesACero_TestED2Ev
FN:8217,_ZN7testing8internal15TestFactoryImplI46seEnojoTEST_senialEnojadaConLongitudBorde_TestED0Ev
FN:8217,_ZN7testing8internal15TestFactoryImplI47seEnojoTEST_senialEnojadaConLongitudMinima_TestED1Ev
FN:8217,_ZN7testing8internal15TestFactoryImplI43seEnojoTEST_senialConTonoMayorAlUmbral_TestED2Ev
FN:8217,_ZN7testing8internal15TestFactoryImplI50seEnojoTEST_senialMayorADosSegundosTodosCeros_TestEC1Ev
FN:8217,_ZN7testing8internal15TestFactoryImplI63seEnojoTEST_senialNoEnojadaConTodasMuestrasMenoresAlUmbral_TestED0Ev
FN:8217,_ZN7testing8internal15TestFactoryImplI58seEnojoTEST_senialMenorADosSegundosTonoSuperaElUmbral_TestEC1Ev
FN:8217,_ZN7testing8internal15TestFactoryImplI38seEnojoTEST_senialEnojadaCompleta_TestEC2Ev
FN:8217,_ZN7testing8internal15TestFactoryImplI63seEnojoTEST_senialNoEnojadaConTodasMuestrasMenoresAlUmbral_TestEC2Ev
FN:8217,_ZN7testing8internal15TestFactoryImplI43seEnojoTEST_senialConTonoMayorAlUmbral_TestED0Ev
FN:8217,_ZN7testing8internal15TestFactoryImplI50seEnojoTEST_senialMenorADosSegundosTodosCeros_TestED2Ev
FN:8217,_ZN7testing8internal15TestFactoryImplI43seEnojoTEST_senialConTonoMayorAlUmbral_TestEC2Ev
FN:8217,_ZN7testing8internal15TestFactoryImplI38seEnojoTEST_senialEnojadaCompleta_TestED0Ev
FN:8217,_ZN7testing8internal15TestFactoryImplI43seEnojoTEST_senialConTonoMayorAlUmbra2_TestED1Ev
FN:8217,_ZN7testing8internal15TestFactoryImplI50seEnojoTEST_senialMayorADosSegundosTodosCeros_TestEC2Ev
FN:8217,_ZN7testing8internal15TestFactoryImplI46seEnojoTEST_senialEnojadaConLongitudBorde_TestED1Ev
FN:8217,_ZN7testing8internal15TestFactoryImplI40seEnojoTEST_senialMenorADosSegundos_TestED2Ev
FN:8217,_ZN7testing8internal15TestFactoryImplI50seEnojoTEST_senialMayorADosSegundosTodosCeros_TestED1Ev
FN:8217,_ZN7testing8internal15TestFactoryImplI50seEnojoTEST_senialMenorADosSegundosTodosCeros_TestED0Ev
FN:8217,_ZN7testing8internal15TestFactoryImplI58seEnojoTEST_senialMenorADosSegundosTonoSuperaElUmbral_TestED0Ev
FN:8217,_ZN7testing8internal15TestFactoryImplI43seEnojoTEST_senialConTonoIgualAlUmbral_TestED2Ev
FN:8217,_ZN7testing8internal15TestFactoryImplI43seEnojoTEST_senialConTonoMayorAlUmbral_TestEC1Ev
FN:8217,_ZN7testing8internal15TestFactoryImplI62seEnojoTEST_senialEnojadaConMayoriaDeMuestrasIgualesACero_TestED0Ev
FN:8217,_ZN7testing8internal15TestFactoryImplI43seEnojoTEST_senialConTonoIgualAlUmbral_TestED1Ev
FN:8217,_ZN7testing8internal15TestFactoryImplI58seEnojoTEST_senialMenorADosSegundosTonoSuperaElUmbral_TestEC2Ev
FN:8217,_ZN7testing8internal15TestFactoryImplI62seEnojoTEST_senialEnojadaConMayoriaDeMuestrasIgualesACero_TestED1Ev
FN:8217,_ZN7testing8internal15TestFactoryImplI55seEnojoTEST_senialEnojadaConMayoriaDeMuestrasBajas_TestED0Ev
FN:8217,_ZN7testing8internal15TestFactoryImplI55seEnojoTEST_senialEnojadaConMayoriaDeMuestrasBajas_TestEC2Ev
FN:8217,_ZN7testing8internal15TestFactoryImplI46seEnojoTEST_senialEnojadaConLongitudBorde_TestEC1Ev
FN:8217,_ZN7testing8internal15TestFactoryImplI50seEnojoTEST_senialMenorADosSegundosTodosCeros_TestEC2Ev
FN:8217,_ZN7testing8internal15TestFactoryImplI43seEnojoTEST_senialConTonoMayorAlUmbral_TestED1Ev
FN:8217,_ZN7testing8internal15TestFactoryImplI40seEnojoTEST_senialMenorADosSegundos_TestEC2Ev
FN:8217,_ZN7testing8internal15TestFactoryImplI55seEnojoTEST_senialEnojadaConMayoriaDeMuestrasBajas_TestED2Ev
FN:8217,_ZN7testing8internal15TestFactoryImplI55seEnojoTEST_senialEnojadaConMayoriaDeMuestrasBajas_TestEC1Ev
FN:8217,_ZN7testing8internal15TestFactoryImplI50seEnojoTEST_senialMenorADosSegundosTodosCeros_TestEC1Ev
FN:8217,_ZN7testing8internal15TestFactoryImplI46seEnojoTEST_senialEnojadaConLongitudBorde_TestEC2Ev
FN:8217,_ZN7testing8internal15TestFactoryImplI52seEnojoTEST_senialEnojadaConSubseqMinimaEnojada_TestEC2Ev
FN:8217,_ZN7testing8internal15TestFactoryImplI52seEnojoTEST_senialEnojadaConSubseqMinimaEnojada_TestED0Ev
FN:8217,_ZN7testing8internal15TestFactoryImplI43seEnojoTEST_senialConTonoMayorAlUmbra2_TestED2Ev
FN:8217,_ZN7testing8internal15TestFactoryImplI47seEnojoTEST_senialEnojadaConLongitudMinima_TestED0Ev
FN:8217,_ZN7testing8internal15TestFactoryImplI38seEnojoTEST_senialEnojadaCompleta_TestED2Ev
FN:8217,_ZN7testing8internal15TestFactoryImplI43seEnojoTEST_senialConTonoMayorAlUmbra2_TestED0Ev
FN:8217,_ZN7testing8internal15TestFactoryImplI50seEnojoTEST_senialMenorADosSegundosTodosCeros_TestED1Ev
FN:8217,_ZN7testing8internal15TestFactoryImplI38seEnojoTEST_senialEnojadaCompleta_TestED1Ev
FN:8217,_ZN7testing8internal15TestFactoryImplI63seEnojoTEST_senialNoEnojadaConTodasMuestrasMenoresAlUmbral_TestED1Ev
FN:8217,_ZN7testing8internal15TestFactoryImplI43seEnojoTEST_senialConTonoIgualAlUmbral_TestEC2Ev
FN:8217,_ZN7testing8internal15TestFactoryImplI46seEnojoTEST_senialEnojadaConLongitudBorde_TestED2Ev
FN:8217,_ZN7testing8internal15TestFactoryImplI63seEnojoTEST_senialNoEnojadaConTodasMuestrasMenoresAlUmbral_TestEC1Ev
FN:8217,_ZN7testing8internal15TestFactoryImplI50seEnojoTEST_senialMayorADosSegundosTodosCeros_TestED2Ev
FN:8217,_ZN7testing8internal15TestFactoryImplI40seEnojoTEST_senialMenorADosSegundos_TestED0Ev
FN:8217,_ZN7testing8internal15TestFactoryImplI40seEnojoTEST_senialMenorADosSegundos_TestED1Ev
FN:8217,_ZN7testing8internal15TestFactoryImplI47seEnojoTEST_senialEnojadaConLongitudMinima_TestEC2Ev
FN:8217,_ZN7testing8internal15TestFactoryImplI58seEnojoTEST_senialMenorADosSegundosTonoSuperaElUmbral_TestED1Ev
FN:8217,_ZN7testing8internal15TestFactoryImplI47seEnojoTEST_senialEnojadaConLongitudMinima_TestED2Ev
FN:8217,_ZN7testing8internal15TestFactoryImplI52seEnojoTEST_senialEnojadaConSubseqMinimaEnojada_TestED2Ev
FN:8217,_ZN7testing8internal15TestFactoryImplI62seEnojoTEST_senialEnojadaConMayoriaDeMuestrasIgualesACero_TestEC2Ev
FN:8217,_ZN7testing8internal15TestFactoryImplI52seEnojoTEST_senialEnojadaConSubseqMinimaEnojada_TestEC1Ev
FN:8217,_ZN7testing8internal15TestFactoryImplI58seEnojoTEST_senialMenorADosSegundosTonoSuperaElUmbral_TestED2Ev
FN:8217,_ZN7testing8internal15TestFactoryImplI43seEnojoTEST_senialConTonoIgualAlUmbral_TestED0Ev
FN:8217,_ZN7testing8internal15TestFactoryImplI38seEnojoTEST_senialEnojadaCompleta_TestEC1Ev
FN:8217,_ZN7testing8internal15TestFactoryImplI43seEnojoTEST_senialConTonoMayorAlUmbra2_TestEC2Ev
FN:8217,_ZN7testing8internal15TestFactoryImplI63seEnojoTEST_senialNoEnojadaConTodasMuestrasMenoresAlUmbral_TestED2Ev
FN:8217,_ZN7testing8internal15TestFactoryImplI43seEnojoTEST_senialConTonoMayorAlUmbra2_TestEC1Ev
FN:8217,_ZN7testing8internal15TestFactoryImplI55seEnojoTEST_senialEnojadaConMayoriaDeMuestrasBajas_TestED1Ev
FN:8217,_ZN7testing8internal15TestFactoryImplI62seEnojoTEST_senialEnojadaConMayoriaDeMuestrasIgualesACero_TestEC1Ev
FN:8217,_ZN7testing8internal15TestFactoryImplI50seEnojoTEST_senialMayorADosSegundosTodosCeros_TestED0Ev
FN:8217,_ZN7testing8internal15TestFactoryImplI40seEnojoTEST_senialMenorADosSegundos_TestEC1Ev
FN:8217,_ZN7testing8internal15TestFactoryImplI52seEnojoTEST_senialEnojadaConSubseqMinimaEnojada_TestED1Ev
FN:8219,_ZN7testing8internal15TestFactoryImplI50seEnojoTEST_senialMenorADosSegundosTodosCeros_TestE10CreateTestEv
FN:8219,_ZN7testing8internal15TestFactoryImplI43seEnojoTEST_senialConTonoIgualAlUmbral_TestE10CreateTestEv
FN:8219,_ZN7testing8internal15TestFactoryImplI50seEnojoTEST_senialMayorADosSegundosTodosCeros_TestE10CreateTestEv
FN:8219,_ZN7testing8internal15TestFactoryImplI40seEnojoTEST_senialMenorADosSegundos_TestE10CreateTestEv
FN:8219,_ZN7testing8internal15TestFactoryImplI46seEnojoTEST_senialEnojadaConLongitudBorde_TestE10CreateTestEv
FN:8219,_ZN7testing8internal15TestFactoryImplI38seEnojoTEST_senialEnojadaCompleta_TestE10CreateTestEv
FN:8219,_ZN7testing8internal15TestFactoryImplI55seEnojoTEST_senialEnojadaConMayoriaDeMuestrasBajas_TestE10CreateTestEv
FN:8219,_ZN7testing8internal15TestFactoryImplI47seEnojoTEST_senialEnojadaConLongitudMinima_TestE10CreateTestEv
FN:8219,_ZN7testing8internal15TestFactoryImplI58seEnojoTEST_senialMenorADosSegundosTonoSuperaElUmbral_TestE10CreateTestEv
FN:8219,_ZN7testing8internal15TestFactoryImplI63seEnojoTEST_senialNoEnojadaConTodasMuestrasMenoresAlUmbral_TestE10CreateTestEv
FN:8219,_ZN7testing8internal15TestFactoryImplI62seEnojoTEST_senialEnojadaConMayoriaDeMuestrasIgualesACero_TestE10CreateTestEv
FN:8219,_ZN7testing8internal15TestFactoryImplI52seEnojoTEST_senialEnojadaConSubseqMinimaEnojada_TestE10CreateTestEv
FN:8219,_ZN7testing8internal15TestFactoryImplI43seEnojoTEST_senialConTonoMayorAlUmbra2_TestE10CreateTestEv
FN:8219,_ZN7testing8internal15TestFactoryImplI43seEnojoTEST_senialConTonoMayorAlUmbral_TestE10CreateTestEv
FN:8239,_ZN7testing8internal12CodeLocationD1Ev
FN:8239,_ZN7testing8internal12CodeLocationD2Ev
FN:8240,_ZN7testing8internal12CodeLocationC2ERKNSt3__112basic_stringIcNS2_11char_traitsIcEENS2_9allocatorIcEEEEi
FN:8240,_ZN7testing8internal12CodeLocationC1ERKNSt3__112basic_stringIcNS2_11char_traitsIcEENS2_9allocatorIcEEEEi
FN:18855,_ZN7testing15AssertionResultD1Ev
FN:18855,_ZN7testing15AssertionResultD2Ev
FN:18871,_ZN7testing15AssertionResultC2IbEERKT_PNS_8internal8EnableIfIXntsr8internal21ImplicitlyConvertibleIS2_S0_EE5valueEE4typeE
FN:18871,_ZN7testing15AssertionResultC1IbEERKT_PNS_8internal8EnableIfIXntsr8internal21ImplicitlyConvertibleIS2_S0_EE5valueEE4typeE
FN:18887,_ZNK7testing15AssertionResultcvbEv
FN:18988,_ZN7testing4Test13SetUpTestCaseEv
FN:18996,_ZN7testing4Test16TearDownTestCaseEv
FN:19073,_ZN7testing4Test5SetupEv
FNDA:0,_ZN7testing8internal10scoped_ptrINSt3__112basic_stringIcNS2_11char_traitsIcEENS2_9allocatorIcEEEEEC1EPS8_
FNDA:0,_ZN7testing8internal10scoped_ptrINSt3__112basic_stringIcNS2_11char_traitsIcEENS2_9allocatorIcEEEEEC2EPS8_
FNDA:0,_ZN7testing8internal10scoped_ptrINSt3__118basic_stringstreamIcNS2_11char_traitsIcEENS2_9allocatorIcEEEEED1Ev
FNDA:0,_ZN7testing8internal10scoped_ptrINSt3__118basic_stringstreamIcNS2_11char_traitsIcEENS2_9allocatorIcEEEEED2Ev
FNDA:0,_ZN7testing8internal10scoped_ptrINSt3__112basic_stringIcNS2_11char_traitsIcEENS2_9allocatorIcEEEEED1Ev
FNDA:0,_ZN7testing8internal10scoped_ptrINSt3__112basic_stringIcNS2_11char_traitsIcEENS2_9allocatorIcEEEEED2Ev
FNDA:0,_ZN7testing8internal10scoped_ptrINSt3__118basic_stringstreamIcNS2_11char_traitsIcEENS2_9allocatorIcEEEEE5resetEPS8_
FNDA:0,_ZN7testing8internal10scoped_ptrINSt3__112basic_stringIcNS2_11char_traitsIcEENS2_9allocatorIcEEEEE5resetEPS8_
FNDA:0,_ZN7testing7MessageD1Ev
FNDA:0,_ZN7testing7MessageD2Ev
FNDA:0,_ZN7testing8internal15TestFactoryBaseD1Ev
FNDA:0,_ZN7testing8internal15TestFactoryBaseD0Ev
FNDA:0,_ZN7testing8internal15TestFactoryBaseD2Ev
FNDA:0,_ZN7testing8internal15TestFactoryBaseC2Ev
FNDA:4,_ZN7testing8internal15TestFactoryImplI40seEnojoTEST_senialMenorADosSegundos_TestEC1Ev
FNDA:4,_ZN7testing8internal15TestFactoryImplI58seEnojoTEST_senialMenorADosSegundosTonoSuperaElUmbral_TestEC1Ev
FNDA:4,_ZN7testing8internal15TestFactoryImplI50seEnojoTEST_senialMenorADosSegundosTodosCeros_TestEC1Ev
FNDA:4,_ZN7testing8internal15TestFactoryImplI50seEnojoTEST_senialMayorADosSegundosTodosCeros_TestEC1Ev
FNDA:4,_ZN7testing8internal15TestFactoryImplI38seEnojoTEST_senialEnojadaCompleta_TestEC1Ev
FNDA:4,_ZN7testing8internal15TestFactoryImplI43seEnojoTEST_senialConTonoIgualAlUmbral_TestEC1Ev
FNDA:4,_ZN7testing8internal15TestFactoryImplI43seEnojoTEST_senialConTonoMayorAlUmbral_TestEC1Ev
FNDA:4,_ZN7testing8internal15TestFactoryImplI43seEnojoTEST_senialConTonoMayorAlUmbra2_TestEC1Ev
FNDA:4,_ZN7testing8internal15TestFactoryImplI46seEnojoTEST_senialEnojadaConLongitudBorde_TestEC1Ev
FNDA:4,_ZN7testing8internal15TestFactoryImplI47seEnojoTEST_senialEnojadaConLongitudMinima_TestEC1Ev
FNDA:4,_ZN7testing8internal15TestFactoryImplI52seEnojoTEST_senialEnojadaConSubseqMinimaEnojada_TestEC1Ev
FNDA:4,_ZN7testing8internal15TestFactoryImplI63seEnojoTEST_senialNoEnojadaConTodasMuestrasMenoresAlUmbral_TestEC1Ev
FNDA:4,_ZN7testing8internal15TestFactoryImplI62seEnojoTEST_senialEnojadaConMayoriaDeMuestrasIgualesACero_TestEC1Ev
FNDA:4,_ZN7testing8internal15TestFactoryImplI55seEnojoTEST_senialEnojadaConMayoriaDeMuestrasBajas_TestEC1Ev
FNDA:4,_ZN7testing8internal15TestFactoryImplI40seEnojoTEST_senialMenorADosSegundos_TestEC2Ev
FNDA:4,_ZN7testing8internal15TestFactoryImplI40seEnojoTEST_senialMenorADosSegundos_TestED1Ev
FNDA:4,_ZN7testing8internal15TestFactoryImplI40seEnojoTEST_senialMenorADosSegundos_TestED0Ev
FNDA:4,_ZN7testing8internal15TestFactoryImplI40seEnojoTEST_senialMenorADosSegundos_TestED2Ev
FNDA:4,_ZN7testing8internal15TestFactoryImplI58seEnojoTEST_senialMenorADosSegundosTonoSuperaElUmbral_TestEC2Ev
FNDA:4,_ZN7testing8internal15TestFactoryImplI58seEnojoTEST_senialMenorADosSegundosTonoSuperaElUmbral_TestED1Ev
FNDA:4,_ZN7testing8internal15TestFactoryImplI58seEnojoTEST_senialMenorADosSegundosTonoSuperaElUmbral_TestED0Ev
FNDA:4,_ZN7testing8internal15TestFactoryImplI58seEnojoTEST_senialMenorADosSegundosTonoSuperaElUmbral_TestED2Ev
FNDA:4,_ZN7testing8internal15TestFactoryImplI50seEnojoTEST_senialMenorADosSegundosTodosCeros_TestEC2Ev
FNDA:4,_ZN7testing8internal15TestFactoryImplI50seEnojoTEST_senialMenorADosSegundosTodosCeros_TestED1Ev
FNDA:4,_ZN7testing8internal15TestFactoryImplI50seEnojoTEST_senialMenorADosSegundosTodosCeros_TestED0Ev
FNDA:4,_ZN7testing8internal15TestFactoryImplI50seEnojoTEST_senialMenorADosSegundosTodosCeros_TestED2Ev
FNDA:4,_ZN7testing8internal15TestFactoryImplI50seEnojoTEST_senialMayorADosSegundosTodosCeros_TestEC2Ev
FNDA:4,_ZN7testing8internal15TestFactoryImplI50seEnojoTEST_senialMayorADosSegundosTodosCeros_TestED1Ev
FNDA:4,_ZN7testing8internal15TestFactoryImplI50seEnojoTEST_senialMayorADosSegundosTodosCeros_TestED0Ev
FNDA:4,_ZN7testing8internal15TestFactoryImplI50seEnojoTEST_senialMayorADosSegundosTodosCeros_TestED2Ev
FNDA:4,_ZN7testing8internal15TestFactoryImplI38seEnojoTEST_senialEnojadaCompleta_TestEC2Ev
FNDA:4,_ZN7testing8internal15TestFactoryImplI38seEnojoTEST_senialEnojadaCompleta_TestED1Ev
FNDA:4,_ZN7testing8internal15TestFactoryImplI38seEnojoTEST_senialEnojadaCompleta_TestED0Ev
FNDA:4,_ZN7testing8internal15TestFactoryImplI38seEnojoTEST_senialEnojadaCompleta_TestED2Ev
FNDA:4,_ZN7testing8internal15TestFactoryImplI43seEnojoTEST_senialConTonoIgualAlUmbral_TestEC2Ev
FNDA:4,_ZN7testing8internal15TestFactoryImplI43seEnojoTEST_senialConTonoIgualAlUmbral_TestED1Ev
FNDA:4,_ZN7testing8internal15TestFactoryImplI43seEnojoTEST_senialConTonoIgualAlUmbral_TestED0Ev
FNDA:4,_ZN7testing8internal15TestFactoryImplI43seEnojoTEST_senialConTonoIgualAlUmbral_TestED2Ev
FNDA:4,_ZN7testing8internal15TestFactoryImplI43seEnojoTEST_senialConTonoMayorAlUmbral_TestEC2Ev
FNDA:4,_ZN7testing8internal15TestFactoryImplI43seEnojoTEST_senialConTonoMayorAlUmbral_TestED1Ev
FNDA:4,_ZN7testing8internal15TestFactoryImplI43seEnojoTEST_senialConTonoMayorAlUmbral_TestED0Ev
FNDA:4,_ZN7testing8internal15TestFactoryImplI43seEnojoTEST_senialConTonoMayorAlUmbral_TestED2Ev
FNDA:4,_ZN7testing8internal15TestFactoryImplI43seEnojoTEST_senialConTonoMayorAlUmbra2_TestEC2Ev
FNDA:4,_ZN7testing8internal15TestFactoryImplI43seEnojoTEST_senialConTonoMayorAlUmbra2_TestED1Ev
FNDA:4,_ZN7testing8internal15TestFactoryImplI43seEnojoTEST_senialConTonoMayorAlUmbra2_TestED0Ev
FNDA:4,_ZN7testing8internal15TestFactoryImplI43seEnojoTEST_senialConTonoMayorAlUmbra2_TestED2Ev
FNDA:4,_ZN7testing8internal15TestFactoryImplI46seEnojoTEST_senialEnojadaConLongitudBorde_TestEC2Ev
FNDA:4,_ZN7testing8internal15TestFactoryImplI46seEnojoTEST_senialEnojadaConLongitudBorde_TestED1Ev
FNDA:4,_ZN7testing8internal15TestFactoryImplI46seEnojoTEST_senialEnojadaConLongitudBorde_TestED0Ev
FNDA:4,_ZN7testing8internal15TestFactoryImplI46seEnojoTEST_senialEnojadaConLongitudBorde_TestED2Ev
FNDA:4,_ZN7testing8internal15TestFactoryImplI47seEnojoTEST_senialEnojadaConLongitudMinima_TestEC2Ev
FNDA:4,_ZN7testing8internal15TestFactoryImplI47seEnojoTEST_senialEnojadaConLongitudMinima_TestED1Ev
FNDA:4,_ZN7testing8internal15TestFactoryImplI47seEnojoTEST_senialEnojadaConLongitudMinima_TestED0Ev
FNDA:4,_ZN7testing8internal15TestFactoryImplI47seEnojoTEST_senialEnojadaConLongitudMinima_TestED2Ev
FNDA:4,_ZN7testing8internal15TestFactoryImplI52seEnojoTEST_senialEnojadaConSubseqMinimaEnojada_TestEC2Ev
FNDA:4,_ZN7testing8internal15TestFactoryImplI52seEnojoTEST_senialEnojadaConSubseqMinimaEnojada_TestED1Ev
FNDA:4,_ZN7testing8internal15TestFactoryImplI52seEnojoTEST_senialEnojadaConSubseqMinimaEnojada_TestED0Ev
FNDA:4,_ZN7testing8internal15TestFactoryImplI52seEnojoTEST_senialEnojadaConSubseqMinimaEnojada_TestED2Ev
FNDA:4,_ZN7testing8internal15TestFactoryImplI63seEnojoTEST_senialNoEnojadaConTodasMuestrasMenoresAlUmbral_TestEC2Ev
FNDA:4,_ZN7testing8internal15TestFactoryImplI63seEnojoTEST_senialNoEnojadaConTodasMuestrasMenoresAlUmbral_TestED1Ev
FNDA:4,_ZN7testing8internal15TestFactoryImplI63seEnojoTEST_senialNoEnojadaConTodasMuestrasMenoresAlUmbral_TestED0Ev
FNDA:4,_ZN7testing8internal15TestFactoryImplI63seEnojoTEST_senialNoEnojadaConTodasMuestrasMenoresAlUmbral_TestED2Ev
FNDA:4,_ZN7testing8internal15TestFactoryImplI62seEnojoTEST_senialEnojadaConMayoriaDeMuestrasIgualesACero_TestEC2Ev
FNDA:4,_ZN7testing8internal15TestFactoryImplI62seEnojoTEST_senialEnojadaConMayoriaDeMuestrasIgualesACero_TestED1Ev
FNDA:4,_ZN7testing8internal15TestFactoryImplI62seEnojoTEST_senialEnojadaConMayoriaDeMuestrasIgualesACero_TestED0Ev
FNDA:4,_ZN7testing8internal15TestFactoryImplI62seEnojoTEST_senialEnojadaConMayoriaDeMuestrasIgualesACero_TestED2Ev
FNDA:4,_ZN7testing8internal15TestFactoryImplI55seEnojoTEST_senialEnojadaConMayoriaDeMuestrasBajas_TestEC2Ev
FNDA:4,_ZN7testing8internal15TestFactoryImplI55seEnojoTEST_senialEnojadaConMayoriaDeMuestrasBajas_TestED1Ev
FNDA:4,_ZN7testing8internal15TestFactoryImplI55seEnojoTEST_senialEnojadaConMayoriaDeMuestrasBajas_TestED0Ev
FNDA:4,_ZN7testing8internal15TestFactoryImplI55seEnojoTEST_senialEnojadaConMayoriaDeMuestrasBajas_TestED2Ev
FNDA:4,_ZN7testing8internal15TestFactoryImplI40seEnojoTEST_senialMenorADosSegundos_TestE10CreateTestEv
FNDA:4,_ZN7testing8internal15TestFactoryImplI58seEnojoTEST_senialMenorADosSegundosTonoSuperaElUmbral_TestE10CreateTestEv
FNDA:4,_ZN7testing8internal15TestFactoryImplI50seEnojoTEST_senialMenorADosSegundosTodosCeros_TestE10CreateTestEv
FNDA:4,_ZN7testing8internal15TestFactoryImplI50seEnojoTEST_senialMayorADosSegundosTodosCeros_TestE10CreateTestEv
FNDA:4,_ZN7testing8internal15TestFactoryImplI38seEnojoTEST_senialEnojadaCompleta_TestE10CreateTestEv
FNDA:4,_ZN7testing8internal15TestFactoryImplI43seEnojoTEST_senialConTonoIgualAlUmbral_TestE10CreateTestEv
FNDA:4,_ZN7testing8internal15TestFactoryImplI43seEnojoTEST_senialConTonoMayorAlUmbral_TestE10CreateTestEv
FNDA:4,_ZN7testing8internal15TestFactoryImplI43seEnojoTEST_senialConTonoMayorAlUmbra2_TestE10CreateTestEv
FNDA:4,_ZN7testing8internal15TestFactoryImplI46seEnojoTEST_senialEnojadaConLongitudBorde_TestE10CreateTestEv
FNDA:4,_ZN7testing8internal15TestFactoryImplI47seEnojoTEST_senialEnojadaConLongitudMinima_TestE10CreateTestEv
FNDA:4,_ZN7testing8internal15TestFactoryImplI52seEnojoTEST_senialEnojadaConSubseqMinimaEnojada_TestE10CreateTestEv
FNDA:4,_ZN7testing8internal15TestFactoryImplI63seEnojoTEST_senialNoEnojadaConTodasMuestrasMenoresAlUmbral_TestE10CreateTestEv
FNDA:4,_ZN7testing8internal15TestFactoryImplI62seEnojoTEST_senialEnojadaConMayoriaDeMuestrasIgualesACero_TestE10CreateTestEv
FNDA:4,_ZN7testing8internal15TestFactoryImplI55seEnojoTEST_senialEnojadaConMayoriaDeMuestrasBajas_TestE10CreateTestEv
FNDA:0,_ZN7testing8internal12CodeLocationD1Ev
FNDA:0,_ZN7testing8internal12CodeLocationD2Ev
FNDA:0,_ZN7testing8internal12CodeLocationC1ERKNSt3__112basic_stringIcNS2_11char_traitsIcEENS2_9allocatorIcEEEEi
FNDA:0,_ZN7testing8internal12CodeLocationC2ERKNSt3__112basic_stringIcNS2_11char_traitsIcEENS2_9allocatorIcEEEEi
FNDA:0,_ZN7testing15AssertionResultD1Ev
FNDA:0,_ZN7testing15AssertionResultD2Ev
FNDA:0,_ZN7testing15AssertionResultC1IbEERKT_PNS_8internal8EnableIfIXntsr8internal21ImplicitlyConvertibleIS2_S0_EE5valueEE4typeE
FNDA:0,_ZN7testing15AssertionResultC2IbEERKT_PNS_8internal8EnableIfIXntsr8internal21ImplicitlyConvertibleIS2_S0_EE5valueEE4typeE
FNDA:0,_ZNK7testing15AssertionResultcvbEv
FNDA:0,_ZN7testing4Test13SetUpTestCaseEv
FNDA:0,_ZN7testing4Test16TearDownTestCaseEv
FNDA:0,_ZN7testing4Test5SetupEv
FNF:110
FNH:84
DA:2394,0
DA:2395,0
DA:2407,0
DA:2408,0
DA:2409,0
DA:2410,0
DA:2411,0
DA:2412,0
DA:2413,0
DA:2414,0
DA:3935,0
DA:8201,0
DA:8208,0
DA:8217,280
DA:8219,56
DA:8239,0
DA:8240,0
DA:18855,0
DA:18871,0
DA:18876,0
DA:18887,0
DA:18988,0
DA:18996,0
DA:19073,0
LF:24
LH:2
end_of_record
SF:/Users/usuario/Desktop/LabAlgo1/tp2/reunionesRemotas/tests/seEnojo.cpp
FN:8,_ZN40seEnojoTEST_senialMenorADosSegundos_TestD1Ev
FN:8,_ZN40seEnojoTEST_senialMenorADosSegundos_TestD0Ev
FN:8,_ZN40seEnojoTEST_senialMenorADosSegundos_TestC1Ev
FN:8,_ZN40seEnojoTEST_senialMenorADosSegundos_TestD2Ev
FN:8,_ZN40seEnojoTEST_senialMenorADosSegundos_Test8TestBodyEv
FN:8,_ZN40seEnojoTEST_senialMenorADosSegundos_TestC2Ev
FN:8,__cxx_global_var_init
FN:17,_ZN58seEnojoTEST_senialMenorADosSegundosTonoSuperaElUmbral_Test8TestBodyEv
FN:17,_ZN58seEnojoTEST_senialMenorADosSegundosTonoSuperaElUmbral_TestD0Ev
FN:17,_ZN58seEnojoTEST_senialMenorADosSegundosTonoSuperaElUmbral_TestC1Ev
FN:17,_ZN58seEnojoTEST_senialMenorADosSegundosTonoSuperaElUmbral_TestC2Ev
FN:17,_ZN58seEnojoTEST_senialMenorADosSegundosTonoSuperaElUmbral_TestD1Ev
FN:17,__cxx_global_var_init.6
FN:17,_ZN58seEnojoTEST_senialMenorADosSegundosTonoSuperaElUmbral_TestD2Ev
FN:26,_ZN50seEnojoTEST_senialMenorADosSegundosTodosCeros_TestC2Ev
FN:26,__cxx_global_var_init.9
FN:26,_ZN50seEnojoTEST_senialMenorADosSegundosTodosCeros_TestC1Ev
FN:26,_ZN50seEnojoTEST_senialMenorADosSegundosTodosCeros_TestD0Ev
FN:26,_ZN50seEnojoTEST_senialMenorADosSegundosTodosCeros_TestD1Ev
FN:26,_ZN50seEnojoTEST_senialMenorADosSegundosTodosCeros_TestD2Ev
FN:26,_ZN50seEnojoTEST_senialMenorADosSegundosTodosCeros_Test8TestBodyEv
FN:35,__cxx_global_var_init.11
FN:35,_ZN50seEnojoTEST_senialMayorADosSegundosTodosCeros_TestC1Ev
FN:35,_ZN50seEnojoTEST_senialMayorADosSegundosTodosCeros_TestC2Ev
FN:35,_ZN50seEnojoTEST_senialMayorADosSegundosTodosCeros_Test8TestBodyEv
FN:35,_ZN50seEnojoTEST_senialMayorADosSegundosTodosCeros_TestD1Ev
FN:35,_ZN50seEnojoTEST_senialMayorADosSegundosTodosCeros_TestD0Ev
FN:35,_ZN50seEnojoTEST_senialMayorADosSegundosTodosCeros_TestD2Ev
FN:44,_ZN38seEnojoTEST_senialEnojadaCompleta_TestC2Ev
FN:44,__cxx_global_var_init.13
FN:44,_ZN38seEnojoTEST_senialEnojadaCompleta_TestC1Ev
FN:44,_ZN38seEnojoTEST_senialEnojadaCompleta_TestD0Ev
FN:44,_ZN38seEnojoTEST_senialEnojadaCompleta_Test8TestBodyEv
FN:44,_ZN38seEnojoTEST_senialEnojadaCompleta_TestD2Ev
FN:44,_ZN38seEnojoTEST_senialEnojadaCompleta_TestD1Ev
FN:53,_ZN43seEnojoTEST_senialConTonoIgualAlUmbral_Test8TestBodyEv
FN:53,_ZN43seEnojoTEST_senialConTonoIgualAlUmbral_TestD1Ev
FN:53,_ZN43seEnojoTEST_senialConTonoIgualAlUmbral_TestD0Ev
FN:53,_ZN43seEnojoTEST_senialConTonoIgualAlUmbral_TestC2Ev
FN:53,_ZN43seEnojoTEST_senialConTonoIgualAlUmbral_TestD2Ev
FN:53,__cxx_global_var_init.16
FN:53,_ZN43seEnojoTEST_senialConTonoIgualAlUmbral_TestC1Ev
FN:62,_ZN43seEnojoTEST_senialConTonoMayorAlUmbral_TestC2Ev
FN:62,_ZN43seEnojoTEST_senialConTonoMayorAlUmbral_Test8TestBodyEv
FN:62,_ZN43seEnojoTEST_senialConTonoMayorAlUmbral_TestD2Ev
FN:62,_ZN43seEnojoTEST_senialConTonoMayorAlUmbral_TestD0Ev
FN:62,__cxx_global_var_init.18
FN:62,_ZN43seEnojoTEST_senialConTonoMayorAlUmbral_TestD1Ev
FN:62,_ZN43seEnojoTEST_senialConTonoMayorAlUmbral_TestC1Ev
FN:72,_ZN43seEnojoTEST_senialConTonoMayorAlUmbra2_TestD2Ev
FN:72,_ZN43seEnojoTEST_senialConTonoMayorAlUmbra2_TestC2Ev
FN:72,_ZN43seEnojoTEST_senialConTonoMayorAlUmbra2_TestD0Ev
FN:72,__cxx_global_var_init.20
FN:72,_ZN43seEnojoTEST_senialConTonoMayorAlUmbra2_TestC1Ev
FN:72,_ZN43seEnojoTEST_senialConTonoMayorAlUmbra2_Test8TestBodyEv
FN:72,_ZN43seEnojoTEST_senialConTonoMayorAlUmbra2_TestD1Ev
FN:82,_ZN46seEnojoTEST_senialEnojadaConLongitudBorde_TestC1Ev
FN:82,_ZN46seEnojoTEST_senialEnojadaConLongitudBorde_Test8TestBodyEv
FN:82,_ZN46seEnojoTEST_senialEnojadaConLongitudBorde_TestD0Ev
FN:82,_ZN46seEnojoTEST_senialEnojadaConLongitudBorde_TestD1Ev
FN:82,__cxx_global_var_init.23
FN:82,_ZN46seEnojoTEST_senialEnojadaConLongitudBorde_TestC2Ev
FN:82,_ZN46seEnojoTEST_senialEnojadaConLongitudBorde_TestD2Ev
FN:92,_ZN47seEnojoTEST_senialEnojadaConLongitudMinima_TestC1Ev
FN:92,_ZN47seEnojoTEST_senialEnojadaConLongitudMinima_Test8TestBodyEv
FN:92,_ZN47seEnojoTEST_senialEnojadaConLongitudMinima_TestD2Ev
FN:92,__cxx_global_var_init.25
FN:92,_ZN47seEnojoTEST_senialEnojadaConLongitudMinima_TestC2Ev
FN:92,_ZN47seEnojoTEST_senialEnojadaConLongitudMinima_TestD1Ev
FN:92,_ZN47seEnojoTEST_senialEnojadaConLongitudMinima_TestD0Ev
FN:101,_ZN52seEnojoTEST_senialEnojadaConSubseqMinimaEnojada_TestD2Ev
FN:101,_ZN52seEnojoTEST_senialEnojadaConSubseqMinimaEnojada_TestD0Ev
FN:101,_ZN52seEnojoTEST_senialEnojadaConSubseqMinimaEnojada_TestC1Ev
FN:101,__cxx_global_var_init.27
FN:101,_ZN52seEnojoTEST_senialEnojadaConSubseqMinimaEnojada_TestC2Ev
FN:101,_ZN52seEnojoTEST_senialEnojadaConSubseqMinimaEnojada_TestD1Ev
FN:101,_ZN52seEnojoTEST_senialEnojadaConSubseqMinimaEnojada_Test8TestBodyEv
FN:110,_ZN63seEnojoTEST_senialNoEnojadaConTodasMuestrasMenoresAlUmbral_TestC1Ev
FN:110,__cxx_global_var_init.30
FN:110,_ZN63seEnojoTEST_senialNoEnojadaConTodasMuestrasMenoresAlUmbral_Test8TestBodyEv
FN:110,_ZN63seEnojoTEST_senialNoEnojadaConTodasMuestrasMenoresAlUmbral_TestD2Ev
FN:110,_ZN63seEnojoTEST_senialNoEnojadaConTodasMuestrasMenoresAlUmbral_TestD0Ev
FN:110,_ZN63seEnojoTEST_senialNoEnojadaConTodasMuestrasMenoresAlUmbral_TestC2Ev
FN:110,_ZN63seEnojoTEST_senialNoEnojadaConTodasMuestrasMenoresAlUmbral_TestD1Ev
FN:119,_ZN62seEnojoTEST_senialEnojadaConMayoriaDeMuestrasIgualesACero_TestD2Ev
FN:119,__cxx_global_var_init.32
FN:119,_ZN62seEnojoTEST_senialEnojadaConMayoriaDeMuestrasIgualesACero_TestC1Ev
FN:119,_ZN62seEnojoTEST_senialEnojadaConMayoriaDeMuestrasIgualesACero_Test8TestBodyEv
FN:119,_ZN62seEnojoTEST_senialEnojadaConMayoriaDeMuestrasIgualesACero_TestD1Ev
FN:119,_ZN62seEnojoTEST_senialEnojadaConMayoriaDeMuestrasIgualesACero_TestC2Ev
FN:119,_ZN62seEnojoTEST_senialEnojadaConMayoriaDeMuestrasIgualesACero_TestD0Ev
FN:128,_ZN55seEnojoTEST_senialEnojadaConMayoriaDeMuestrasBajas_Test8TestBodyEv
FN:128,__cxx_global_var_init.35
FN:128,_ZN55seEnojoTEST_senialEnojadaConMayoriaDeMuestrasBajas_TestD1Ev
FN:128,_ZN55seEnojoTEST_senialEnojadaConMayoriaDeMuestrasBajas_TestC2Ev
FN:128,_ZN55seEnojoTEST_senialEnojadaConMayoriaDeMuestrasBajas_TestD2Ev
FN:128,_ZN55seEnojoTEST_senialEnojadaConMayoriaDeMuestrasBajas_TestC1Ev
FN:128,_ZN55seEnojoTEST_senialEnojadaConMayoriaDeMuestrasBajas_TestD0Ev
FNDA:4,__cxx_global_var_init
FNDA:4,_ZN40seEnojoTEST_senialMenorADosSegundos_Test8TestBodyEv
FNDA:4,_ZN40seEnojoTEST_senialMenorADosSegundos_TestD1Ev
FNDA:4,_ZN40seEnojoTEST_senialMenorADosSegundos_TestD0Ev
FNDA:4,_ZN40seEnojoTEST_senialMenorADosSegundos_TestC1Ev
FNDA:4,_ZN40seEnojoTEST_senialMenorADosSegundos_TestC2Ev
FNDA:4,_ZN40seEnojoTEST_senialMenorADosSegundos_TestD2Ev
FNDA:4,__cxx_global_var_init.6
FNDA:4,_ZN58seEnojoTEST_senialMenorADosSegundosTonoSuperaElUmbral_Test8TestBodyEv
FNDA:4,_ZN58seEnojoTEST_senialMenorADosSegundosTonoSuperaElUmbral_TestD1Ev
FNDA:4,_ZN58seEnojoTEST_senialMenorADosSegundosTonoSuperaElUmbral_TestD0Ev
FNDA:4,_ZN58seEnojoTEST_senialMenorADosSegundosTonoSuperaElUmbral_TestC1Ev
FNDA:4,_ZN58seEnojoTEST_senialMenorADosSegundosTonoSuperaElUmbral_TestC2Ev
FNDA:4,_ZN58seEnojoTEST_senialMenorADosSegundosTonoSuperaElUmbral_TestD2Ev
FNDA:4,__cxx_global_var_init.9
FNDA:4,_ZN50seEnojoTEST_senialMenorADosSegundosTodosCeros_Test8TestBodyEv
FNDA:4,_ZN50seEnojoTEST_senialMenorADosSegundosTodosCeros_TestD1Ev
FNDA:4,_ZN50seEnojoTEST_senialMenorADosSegundosTodosCeros_TestD0Ev
FNDA:4,_ZN50seEnojoTEST_senialMenorADosSegundosTodosCeros_TestC1Ev
FNDA:4,_ZN50seEnojoTEST_senialMenorADosSegundosTodosCeros_TestC2Ev
FNDA:4,_ZN50seEnojoTEST_senialMenorADosSegundosTodosCeros_TestD2Ev
FNDA:4,__cxx_global_var_init.11
FNDA:4,_ZN50seEnojoTEST_senialMayorADosSegundosTodosCeros_Test8TestBodyEv
FNDA:4,_ZN50seEnojoTEST_senialMayorADosSegundosTodosCeros_TestD1Ev
FNDA:4,_ZN50seEnojoTEST_senialMayorADosSegundosTodosCeros_TestD0Ev
FNDA:4,_ZN50seEnojoTEST_senialMayorADosSegundosTodosCeros_TestC1Ev
FNDA:4,_ZN50seEnojoTEST_senialMayorADosSegundosTodosCeros_TestC2Ev
FNDA:4,_ZN50seEnojoTEST_senialMayorADosSegundosTodosCeros_TestD2Ev
FNDA:4,__cxx_global_var_init.13
FNDA:4,_ZN38seEnojoTEST_senialEnojadaCompleta_Test8TestBodyEv
FNDA:4,_ZN38seEnojoTEST_senialEnojadaCompleta_TestD1Ev
FNDA:4,_ZN38seEnojoTEST_senialEnojadaCompleta_TestD0Ev
FNDA:4,_ZN38seEnojoTEST_senialEnojadaCompleta_TestC1Ev
FNDA:4,_ZN38seEnojoTEST_senialEnojadaCompleta_TestC2Ev
FNDA:4,_ZN38seEnojoTEST_senialEnojadaCompleta_TestD2Ev
FNDA:4,__cxx_global_var_init.16
FNDA:4,_ZN43seEnojoTEST_senialConTonoIgualAlUmbral_Test8TestBodyEv
FNDA:4,_ZN43seEnojoTEST_senialConTonoIgualAlUmbral_TestD1Ev
FNDA:4,_ZN43seEnojoTEST_senialConTonoIgualAlUmbral_TestD0Ev
FNDA:4,_ZN43seEnojoTEST_senialConTonoIgualAlUmbral_TestC1Ev
FNDA:4,_ZN43seEnojoTEST_senialConTonoIgualAlUmbral_TestC2Ev
FNDA:4,_ZN43seEnojoTEST_senialConTonoIgualAlUmbral_TestD2Ev
FNDA:4,__cxx_global_var_init.18
FNDA:4,_ZN43seEnojoTEST_senialConTonoMayorAlUmbral_Test8TestBodyEv
FNDA:4,_ZN43seEnojoTEST_senialConTonoMayorAlUmbral_TestD1Ev
FNDA:4,_ZN43seEnojoTEST_senialConTonoMayorAlUmbral_TestD0Ev
FNDA:4,_ZN43seEnojoTEST_senialConTonoMayorAlUmbral_TestC1Ev
FNDA:4,_ZN43seEnojoTEST_senialConTonoMayorAlUmbral_TestC2Ev
FNDA:4,_ZN43seEnojoTEST_senialConTonoMayorAlUmbral_TestD2Ev
FNDA:4,__cxx_global_var_init.20
FNDA:4,_ZN43seEnojoTEST_senialConTonoMayorAlUmbra2_Test8TestBodyEv
FNDA:4,_ZN43seEnojoTEST_senialConTonoMayorAlUmbra2_TestD1Ev
FNDA:4,_ZN43seEnojoTEST_senialConTonoMayorAlUmbra2_TestD0Ev
FNDA:4,_ZN43seEnojoTEST_senialConTonoMayorAlUmbra2_TestC1Ev
FNDA:4,_ZN43seEnojoTEST_senialConTonoMayorAlUmbra2_TestC2Ev
FNDA:4,_ZN43seEnojoTEST_senialConTonoMayorAlUmbra2_TestD2Ev
FNDA:4,__cxx_global_var_init.23
FNDA:4,_ZN46seEnojoTEST_senialEnojadaConLongitudBorde_Test8TestBodyEv
FNDA:4,_ZN46seEnojoTEST_senialEnojadaConLongitudBorde_TestD1Ev
FNDA:4,_ZN46seEnojoTEST_senialEnojadaConLongitudBorde_TestD0Ev
FNDA:4,_ZN46seEnojoTEST_senialEnojadaConLongitudBorde_TestC1Ev
FNDA:4,_ZN46seEnojoTEST_senialEnojadaConLongitudBorde_TestC2Ev
FNDA:4,_ZN46seEnojoTEST_senialEnojadaConLongitudBorde_TestD2Ev
FNDA:4,__cxx_global_var_init.25
FNDA:4,_ZN47seEnojoTEST_senialEnojadaConLongitudMinima_Test8TestBodyEv
FNDA:4,_ZN47seEnojoTEST_senialEnojadaConLongitudMinima_TestD1Ev
FNDA:4,_ZN47seEnojoTEST_senialEnojadaConLongitudMinima_TestD0Ev
FNDA:4,_ZN47seEnojoTEST_senialEnojadaConLongitudMinima_TestC1Ev
FNDA:4,_ZN47seEnojoTEST_senialEnojadaConLongitudMinima_TestC2Ev
FNDA:4,_ZN47seEnojoTEST_senialEnojadaConLongitudMinima_TestD2Ev
FNDA:4,__cxx_global_var_init.27
FNDA:4,_ZN52seEnojoTEST_senialEnojadaConSubseqMinimaEnojada_Test8TestBodyEv
FNDA:4,_ZN52seEnojoTEST_senialEnojadaConSubseqMinimaEnojada_TestD1Ev
FNDA:4,_ZN52seEnojoTEST_senialEnojadaConSubseqMinimaEnojada_TestD0Ev
FNDA:4,_ZN52seEnojoTEST_senialEnojadaConSubseqMinimaEnojada_TestC1Ev
FNDA:4,_ZN52seEnojoTEST_senialEnojadaConSubseqMinimaEnojada_TestC2Ev
FNDA:4,_ZN52seEnojoTEST_senialEnojadaConSubseqMinimaEnojada_TestD2Ev
FNDA:4,__cxx_global_var_init.30
FNDA:4,_ZN63seEnojoTEST_senialNoEnojadaConTodasMuestrasMenoresAlUmbral_Test8TestBodyEv
FNDA:4,_ZN63seEnojoTEST_senialNoEnojadaConTodasMuestrasMenoresAlUmbral_TestD1Ev
FNDA:4,_ZN63seEnojoTEST_senialNoEnojadaConTodasMuestrasMenoresAlUmbral_TestD0Ev
FNDA:4,_ZN63seEnojoTEST_senialNoEnojadaConTodasMuestrasMenoresAlUmbral_TestC1Ev
FNDA:4,_ZN63seEnojoTEST_senialNoEnojadaConTodasMuestrasMenoresAlUmbral_TestC2Ev
FNDA:4,_ZN63seEnojoTEST_senialNoEnojadaConTodasMuestrasMenoresAlUmbral_TestD2Ev
FNDA:4,__cxx_global_var_init.32
FNDA:4,_ZN62seEnojoTEST_senialEnojadaConMayoriaDeMuestrasIgualesACero_Test8TestBodyEv
FNDA:4,_ZN62seEnojoTEST_senialEnojadaConMayoriaDeMuestrasIgualesACero_TestD1Ev
FNDA:4,_ZN62seEnojoTEST_senialEnojadaConMayoriaDeMuestrasIgualesACero_TestD0Ev
FNDA:4,_ZN62seEnojoTEST_senialEnojadaConMayoriaDeMuestrasIgualesACero_TestC1Ev
FNDA:4,_ZN62seEnojoTEST_senialEnojadaConMayoriaDeMuestrasIgualesACero_TestC2Ev
FNDA:4,_ZN62seEnojoTEST_senialEnojadaConMayoriaDeMuestrasIgualesACero_TestD2Ev
FNDA:4,__cxx_global_var_init.35
FNDA:4,_ZN55seEnojoTEST_senialEnojadaConMayoriaDeMuestrasBajas_Test8TestBodyEv
FNDA:4,_ZN55seEnojoTEST_senialEnojadaConMayoriaDeMuestrasBajas_TestD1Ev
FNDA:4,_ZN55seEnojoTEST_senialEnojadaConMayoriaDeMuestrasBajas_TestD0Ev
FNDA:4,_ZN55seEnojoTEST_senialEnojadaConMayoriaDeMuestrasBajas_TestC1Ev
FNDA:4,_ZN55seEnojoTEST_senialEnojadaConMayoriaDeMuestrasBajas_TestC2Ev
FNDA:4,_ZN55seEnojoTEST_senialEnojadaConMayoriaDeMuestrasBajas_TestD2Ev
FNF:98
FNH:98
DA:8,28
DA:9,4
DA:10,4
DA:11,4
DA:12,4
DA:14,4
DA:15,4
DA:17,28
DA:18,4
DA:19,4
DA:20,4
DA:21,4
DA:23,4
DA:24,4
DA:26,28
DA:27,4
DA:28,4
DA:29,4
DA:30,4
DA:32,4
DA:33,4
DA:35,28
DA:36,4
DA:37,4
DA:38,4
DA:39,4
DA:41,4
DA:42,4
DA:44,28
DA:45,4
DA:46,4
DA:47,4
DA:48,4
DA:50,4
DA:51,4
DA:53,28
DA:54,4
DA:55,4
DA:56,4
DA:57,4
DA:59,4
DA:60,4
DA:62,28
DA:64,4
DA:65,4
DA:66,4
DA:67,4
DA:69,4
DA:70,4
DA:72,28
DA:74,4
DA:75,4
DA:76,4
DA:77,4
DA:79,4
DA:80,4
DA:82,28
DA:84,4
DA:85,4
DA:86,4
DA:87,4
DA:89,4
DA:90,4
DA:92,28
DA:93,4
DA:94,4
DA:95,4
DA:96,4
DA:98,4
DA:99,4
DA:101,28
DA:102,4
DA:103,4
DA:104,4
DA:105,4
DA:107,4
DA:108,4
DA:110,28
DA:111,4
DA:112,4
DA:113,4
DA:114,4
DA:116,4
DA:117,4
DA:119,28
DA:120,4
DA:121,4
DA:122,4
DA:123,4
DA:125,4
DA:126,4
DA:128,28
DA:130,4
DA:131,4
DA:132,4
DA:133,4
DA:135,4
DA:136,4
LF:98
LH:98
end_of_record
TN:
SF:/Library/Developer/CommandLineTools/usr/include/c++/v1/__string
FN:218,_ZNSt3__111char_traitsIcE6lengthEPKc
FNDA:0,_ZNSt3__111char_traitsIcE6lengthEPKc
FNF:1
FNH:0
DA:218,0
LF:1
LH:0
end_of_record
SF:/Library/Developer/CommandLineTools/usr/include/c++/v1/algorithm
FN:716,_ZNKSt3__16__lessImmEclERKmS3_
FN:2454,_ZNSt3__1L3minImNS_6__lessImmEEEERKT_S5_S5_T0_
FN:2462,_ZNSt3__1L3minImEERKT_S3_S3_
FNDA:0,_ZNKSt3__16__lessImmEclERKmS3_
FNDA:0,_ZNSt3__1L3minImNS_6__lessImmEEEERKT_S5_S5_T0_
FNDA:0,_ZNSt3__1L3minImEERKT_S3_S3_
FNF:3
FNH:0
DA:716,0
DA:2454,0
DA:2456,0
DA:2462,0
DA:2464,0
LF:5
LH:0
end_of_record
SF:/Library/Developer/CommandLineTools/usr/include/c++/v1/initializer_list
FN:85,_ZNKSt16initializer_listIiE4sizeEv
FN:85,_ZNKSt16initializer_listINSt3__14pairINS0_6vectorIiNS0_9allocatorIiEEEEiEEE4sizeEv
FN:89,_ZNKSt16initializer_listIiE5beginEv
FN:89,_ZNKSt16initializer_listINSt3__14pairINS0_6vectorIiNS0_9allocatorIiEEEEiEEE5beginEv
FN:93,_ZNKSt16initializer_listIiE3endEv
FN:93,_ZNKSt16initializer_listINSt3__14pairINS0_6vectorIiNS0_9allocatorIiEEEEiEEE3endEv
FNDA:300,_ZNKSt16initializer_listIiE4sizeEv
FNDA:168,_ZNKSt16initializer_listINSt3__14pairINS0_6vectorIiNS0_9allocatorIiEEEEiEEE4sizeEv
FNDA:100,_ZNKSt16initializer_listIiE5beginEv
FNDA:56,_ZNKSt16initializer_listINSt3__14pairINS0_6vectorIiNS0_9allocatorIiEEEEiEEE5beginEv
FNDA:100,_ZNKSt16initializer_listIiE3endEv
FNDA:56,_ZNKSt16initializer_listINSt3__14pairINS0_6vectorIiNS0_9allocatorIiEEEEiEEE3endEv
FNF:6
FNH:6
DA:85,468
DA:89,156
DA:93,156
LF:3
LH:3
end_of_record
SF:/Library/Developer/CommandLineTools/usr/include/c++/v1/limits
FN:215,_ZNSt3__123__libcpp_numeric_limitsIlLb1EE3maxEv
FN:452,_ZNSt3__114numeric_limitsIlE3maxEv
FNDA:0,_ZNSt3__123__libcpp_numeric_limitsIlLb1EE3maxEv
FNDA:0,_ZNSt3__114numeric_limitsIlE3maxEv
FNF:2
FNH:0
DA:215,0
DA:452,0
LF:2
LH:0
end_of_record
SF:/Library/Developer/CommandLineTools/usr/include/c++/v1/memory
FN:1106,_ZNSt3__1L16__to_raw_pointerIiEEPT_S2_
FN:1106,_ZNSt3__1L16__to_raw_pointerINS_4pairINS_6vectorIiNS_9allocatorIiEEEEiEEEEPT_S8_
FN:1546,_ZNSt3__116allocator_traitsINS_9allocatorIiEEE8allocateERS2_m
FN:1546,_ZNSt3__116allocator_traitsINS_9allocatorINS_4pairINS_6vectorIiNS1_IiEEEEiEEEEE8allocateERS7_m
FN:1554,_ZNSt3__116allocator_traitsINS_9allocatorIiEEE10deallocateERS2_Pim
FN:1554,_ZNSt3__116allocator_traitsINS_9allocatorINS_4pairINS_6vectorIiNS1_IiEEEEiEEEEE10deallocateERS7_PS6_m
FN:1560,_ZNSt3__116allocator_traitsINS_9allocatorINS_4pairINS_6vectorIiNS1_IiEEEEiEEEEE9constructIS6_JRKS6_EEEvRS7_PT_DpOT0_
FN:1560,_ZNSt3__116allocator_traitsINS_9allocatorIiEEE9constructIiJRKiEEEvRS2_PT_DpOT0_
FN:1560,_ZNSt3__116allocator_traitsINS_9allocatorINS_4pairINS_6vectorIiNS1_IiEEEEiEEEEE9constructIS6_JRS6_EEEvRS7_PT_DpOT0_
FN:1595,_ZNSt3__116allocator_traitsINS_9allocatorIiEEE7destroyIiEEvRS2_PT_
FN:1595,_ZNSt3__116allocator_traitsINS_9allocatorINS_4pairINS_6vectorIiNS1_IiEEEEiEEEEE7destroyIS6_EEvRS7_PT_
FN:1599,_ZNSt3__116allocator_traitsINS_9allocatorIiEEE8max_sizeERKS2_
FN:1599,_ZNSt3__116allocator_traitsINS_9allocatorINS_4pairINS_6vectorIiNS1_IiEEEEiEEEEE8max_sizeERKS7_
FN:1604,_ZNSt3__116allocator_traitsINS_9allocatorINS_4pairINS_6vectorIiNS1_IiEEEEiEEEEE37select_on_container_copy_constructionERKS7_
FN:1604,_ZNSt3__116allocator_traitsINS_9allocatorIiEEE37select_on_container_copy_constructionERKS2_
FN:1643,_ZNSt3__116allocator_traitsINS_9allocatorINS_4pairINS_6vectorIiNS1_IiEEEEiEEEEE25__construct_range_forwardIPKS6_PS6_EEvRS7_T_SE_RT0_
FN:1643,_ZNSt3__116allocator_traitsINS_9allocatorINS_4pairINS_6vectorIiNS1_IiEEEEiEEEEE25__construct_range_forwardIPS6_SA_EEvRS7_T_SC_RT0_
FN:1662,_ZNSt3__116allocator_traitsINS_9allocatorIiEEE25__construct_range_forwardIiiiiEENS_9enable_ifIXaaaasr31is_trivially_move_constructibleIT0_EE5valuesr7is_sameIT1_T2_EE5valueooL_ZNS_17integral_constantIbLb1EE5valueEEntsr15__has_constructIS2_PS6_RT_EE5valueEvE4typeERS2_PSC_SH_RSB_
FN:1662,_ZNSt3__116allocator_traitsINS_9allocatorIiEEE25__construct_range_forwardIKiiiiEENS_9enable_ifIXaaaasr31is_trivially_move_constructibleIT0_EE5valuesr7is_sameIT1_T2_EE5valueooL_ZNS_17integral_constantIbLb1EE5valueEEntsr15__has_constructIS2_PS7_RT_EE5valueEvE4typeERS2_PSD_SI_RSC_
FN:1717,_ZNSt3__116allocator_traitsINS_9allocatorINS_4pairINS_6vectorIiNS1_IiEEEEiEEEEE11__constructIS6_JRS6_EEEvNS_17integral_constantIbLb1EEERS7_PT_DpOT0_
FN:1717,_ZNSt3__116allocator_traitsINS_9allocatorINS_4pairINS_6vectorIiNS1_IiEEEEiEEEEE11__constructIS6_JRKS6_EEEvNS_17integral_constantIbLb1EEERS7_PT_DpOT0_
FN:1717,_ZNSt3__116allocator_traitsINS_9allocatorIiEEE11__constructIiJRKiEEEvNS_17integral_constantIbLb1EEERS2_PT_DpOT0_
FN:1742,_ZNSt3__116allocator_traitsINS_9allocatorIiEEE9__destroyIiEEvNS_17integral_constantIbLb1EEERS2_PT_
FN:1742,_ZNSt3__116allocator_traitsINS_9allocatorINS_4pairINS_6vectorIiNS1_IiEEEEiEEEEE9__destroyIS6_EEvNS_17integral_constantIbLb1EEERS7_PT_
FN:1752,_ZNSt3__116allocator_traitsINS_9allocatorINS_4pairINS_6vectorIiNS1_IiEEEEiEEEEE10__max_sizeENS_17integral_constantIbLb1EEERKS7_
FN:1752,_ZNSt3__116allocator_traitsINS_9allocatorIiEEE10__max_sizeENS_17integral_constantIbLb1EEERKS2_
